
Optional file libmchp_peripheral.a not found

Optional file libmchp_peripheral_32MX795F512L.a not found
Archive member included because of file (symbol)

c:/program files (x86)/microchip/xc32/v2.30/bin/bin/../../lib/gcc/pic32mx/4.8.3\libgcc.a(floatunsisf.o)
                              build/default/production/_ext/308360523/lodepng.o (__floatunsisf)
c:/program files (x86)/microchip/xc32/v2.30/bin/bin/../../lib/gcc/pic32mx/4.8.3/../../../../pic32mx/lib\libpic32.a(memcpy.o)
                              build/default/production/_ext/308360523/lodepng.o (memcpy)
c:/program files (x86)/microchip/xc32/v2.30/bin/bin/../../lib/gcc/pic32mx/4.8.3/../../../../pic32mx/lib\libpic32.a(memset.o)
                              build/default/production/_ext/308360523/lodepng.o (memset)
c:/program files (x86)/microchip/xc32/v2.30/bin/bin/../../lib/gcc/pic32mx/4.8.3/../../../../pic32mx/lib\libpic32.a(strcmp.o)
                              build/default/production/_ext/308360523/lodepng.o (strcmp)
c:/program files (x86)/microchip/xc32/v2.30/bin/bin/../../lib/gcc/pic32mx/4.8.3/../../../../pic32mx/lib\libpic32.a(strcpy.o)
                              build/default/production/_ext/347121368/drv_gfx_ssd1926.o (strcpy)
c:/program files (x86)/microchip/xc32/v2.30/bin/bin/../../lib/gcc/pic32mx/4.8.3/../../../../pic32mx/lib\libpic32.a(strlen.o)
                              build/default/production/_ext/308360523/lodepng.o (strlen)
c:/program files (x86)/microchip/xc32/v2.30/bin/bin/../../lib/gcc/pic32mx/4.8.3/../../../../pic32mx/lib\libpic32.a(default-bootstrap-exception-handler.o)
                              C:\Users\and08479\AppData\Local\Temp\ccFsgLgR.o (_bootstrap_exception_handler)
c:/program files (x86)/microchip/xc32/v2.30/bin/bin/../../lib/gcc/pic32mx/4.8.3/../../../../pic32mx/lib\libpic32.a(default-on-reset.o)
                              C:\Users\and08479\AppData\Local\Temp\ccFsgLgR.o (_on_reset)
c:/program files (x86)/microchip/xc32/v2.30/bin/bin/../../lib/gcc/pic32mx/4.8.3/../../../../pic32mx/lib\libpic32.a(default-on-bootstrap.o)
                              C:\Users\and08479\AppData\Local\Temp\ccFsgLgR.o (_on_bootstrap)
c:/program files (x86)/microchip/xc32/v2.30/bin/bin/../../lib/gcc/pic32mx/4.8.3/../../../../pic32mx/lib\libpic32.a(default-nmi-handler.o)
                              C:\Users\and08479\AppData\Local\Temp\ccFsgLgR.o (_nmi_handler)
c:/program files (x86)/microchip/xc32/v2.30/bin/bin/../../lib/gcc/pic32mx/4.8.3/../../../../pic32mx/lib\libpic32.a(pic32_data_init.o)
                              C:\Users\and08479\AppData\Local\Temp\ccFsgLgR.o (__pic32_data_init)
c:/program files (x86)/microchip/xc32/v2.30/bin/bin/../../lib/gcc/pic32mx/4.8.3/../../../../pic32mx/lib\libpic32.a(general-exception.o)
                              C:\Users\and08479\AppData\Local\Temp\ccFsgLgR.o (_general_exception_context)
c:/program files (x86)/microchip/xc32/v2.30/bin/bin/../../lib/gcc/pic32mx/4.8.3/../../../../pic32mx/lib\libpic32.a(vector0.o)
                              C:\Users\and08479\AppData\Local\Temp\ccubExsT.o (__vector_dispatch_0)
c:/program files (x86)/microchip/xc32/v2.30/bin/bin/../../lib/gcc/pic32mx/4.8.3/../../../../pic32mx/lib\libpic32.a(vector1.o)
                              C:\Users\and08479\AppData\Local\Temp\ccubExsT.o (__vector_dispatch_1)
c:/program files (x86)/microchip/xc32/v2.30/bin/bin/../../lib/gcc/pic32mx/4.8.3/../../../../pic32mx/lib\libpic32.a(vector2.o)
                              C:\Users\and08479\AppData\Local\Temp\ccubExsT.o (__vector_dispatch_2)
c:/program files (x86)/microchip/xc32/v2.30/bin/bin/../../lib/gcc/pic32mx/4.8.3/../../../../pic32mx/lib\libpic32.a(vector3.o)
                              C:\Users\and08479\AppData\Local\Temp\ccubExsT.o (__vector_dispatch_3)
c:/program files (x86)/microchip/xc32/v2.30/bin/bin/../../lib/gcc/pic32mx/4.8.3/../../../../pic32mx/lib\libpic32.a(vector4.o)
                              C:\Users\and08479\AppData\Local\Temp\ccubExsT.o (__vector_dispatch_4)
c:/program files (x86)/microchip/xc32/v2.30/bin/bin/../../lib/gcc/pic32mx/4.8.3/../../../../pic32mx/lib\libpic32.a(vector5.o)
                              C:\Users\and08479\AppData\Local\Temp\ccubExsT.o (__vector_dispatch_5)
c:/program files (x86)/microchip/xc32/v2.30/bin/bin/../../lib/gcc/pic32mx/4.8.3/../../../../pic32mx/lib\libpic32.a(vector6.o)
                              C:\Users\and08479\AppData\Local\Temp\ccubExsT.o (__vector_dispatch_6)
c:/program files (x86)/microchip/xc32/v2.30/bin/bin/../../lib/gcc/pic32mx/4.8.3/../../../../pic32mx/lib\libpic32.a(vector7.o)
                              C:\Users\and08479\AppData\Local\Temp\ccubExsT.o (__vector_dispatch_7)
c:/program files (x86)/microchip/xc32/v2.30/bin/bin/../../lib/gcc/pic32mx/4.8.3/../../../../pic32mx/lib\libpic32.a(vector8.o)
                              C:\Users\and08479\AppData\Local\Temp\ccubExsT.o (__vector_dispatch_8)
c:/program files (x86)/microchip/xc32/v2.30/bin/bin/../../lib/gcc/pic32mx/4.8.3/../../../../pic32mx/lib\libpic32.a(vector9.o)
                              C:\Users\and08479\AppData\Local\Temp\ccubExsT.o (__vector_dispatch_9)
c:/program files (x86)/microchip/xc32/v2.30/bin/bin/../../lib/gcc/pic32mx/4.8.3/../../../../pic32mx/lib\libpic32.a(vector10.o)
                              C:\Users\and08479\AppData\Local\Temp\ccubExsT.o (__vector_dispatch_10)
c:/program files (x86)/microchip/xc32/v2.30/bin/bin/../../lib/gcc/pic32mx/4.8.3/../../../../pic32mx/lib\libpic32.a(vector11.o)
                              C:\Users\and08479\AppData\Local\Temp\ccubExsT.o (__vector_dispatch_11)
c:/program files (x86)/microchip/xc32/v2.30/bin/bin/../../lib/gcc/pic32mx/4.8.3/../../../../pic32mx/lib\libpic32.a(vector12.o)
                              C:\Users\and08479\AppData\Local\Temp\ccubExsT.o (__vector_dispatch_12)
c:/program files (x86)/microchip/xc32/v2.30/bin/bin/../../lib/gcc/pic32mx/4.8.3/../../../../pic32mx/lib\libpic32.a(vector13.o)
                              C:\Users\and08479\AppData\Local\Temp\ccubExsT.o (__vector_dispatch_13)
c:/program files (x86)/microchip/xc32/v2.30/bin/bin/../../lib/gcc/pic32mx/4.8.3/../../../../pic32mx/lib\libpic32.a(vector14.o)
                              C:\Users\and08479\AppData\Local\Temp\ccubExsT.o (__vector_dispatch_14)
c:/program files (x86)/microchip/xc32/v2.30/bin/bin/../../lib/gcc/pic32mx/4.8.3/../../../../pic32mx/lib\libpic32.a(vector15.o)
                              C:\Users\and08479\AppData\Local\Temp\ccubExsT.o (__vector_dispatch_15)
c:/program files (x86)/microchip/xc32/v2.30/bin/bin/../../lib/gcc/pic32mx/4.8.3/../../../../pic32mx/lib\libpic32.a(vector16.o)
                              C:\Users\and08479\AppData\Local\Temp\ccubExsT.o (__vector_dispatch_16)
c:/program files (x86)/microchip/xc32/v2.30/bin/bin/../../lib/gcc/pic32mx/4.8.3/../../../../pic32mx/lib\libpic32.a(vector17.o)
                              C:\Users\and08479\AppData\Local\Temp\ccubExsT.o (__vector_dispatch_17)
c:/program files (x86)/microchip/xc32/v2.30/bin/bin/../../lib/gcc/pic32mx/4.8.3/../../../../pic32mx/lib\libpic32.a(vector18.o)
                              C:\Users\and08479\AppData\Local\Temp\ccubExsT.o (__vector_dispatch_18)
c:/program files (x86)/microchip/xc32/v2.30/bin/bin/../../lib/gcc/pic32mx/4.8.3/../../../../pic32mx/lib\libpic32.a(vector19.o)
                              C:\Users\and08479\AppData\Local\Temp\ccubExsT.o (__vector_dispatch_19)
c:/program files (x86)/microchip/xc32/v2.30/bin/bin/../../lib/gcc/pic32mx/4.8.3/../../../../pic32mx/lib\libpic32.a(vector20.o)
                              C:\Users\and08479\AppData\Local\Temp\ccubExsT.o (__vector_dispatch_20)
c:/program files (x86)/microchip/xc32/v2.30/bin/bin/../../lib/gcc/pic32mx/4.8.3/../../../../pic32mx/lib\libpic32.a(vector21.o)
                              C:\Users\and08479\AppData\Local\Temp\ccubExsT.o (__vector_dispatch_21)
c:/program files (x86)/microchip/xc32/v2.30/bin/bin/../../lib/gcc/pic32mx/4.8.3/../../../../pic32mx/lib\libpic32.a(vector22.o)
                              C:\Users\and08479\AppData\Local\Temp\ccubExsT.o (__vector_dispatch_22)
c:/program files (x86)/microchip/xc32/v2.30/bin/bin/../../lib/gcc/pic32mx/4.8.3/../../../../pic32mx/lib\libpic32.a(vector23.o)
                              C:\Users\and08479\AppData\Local\Temp\ccubExsT.o (__vector_dispatch_23)
c:/program files (x86)/microchip/xc32/v2.30/bin/bin/../../lib/gcc/pic32mx/4.8.3/../../../../pic32mx/lib\libpic32.a(vector24.o)
                              C:\Users\and08479\AppData\Local\Temp\ccubExsT.o (__vector_dispatch_24)
c:/program files (x86)/microchip/xc32/v2.30/bin/bin/../../lib/gcc/pic32mx/4.8.3/../../../../pic32mx/lib\libpic32.a(vector25.o)
                              C:\Users\and08479\AppData\Local\Temp\ccubExsT.o (__vector_dispatch_25)
c:/program files (x86)/microchip/xc32/v2.30/bin/bin/../../lib/gcc/pic32mx/4.8.3/../../../../pic32mx/lib\libpic32.a(vector26.o)
                              C:\Users\and08479\AppData\Local\Temp\ccubExsT.o (__vector_dispatch_26)
c:/program files (x86)/microchip/xc32/v2.30/bin/bin/../../lib/gcc/pic32mx/4.8.3/../../../../pic32mx/lib\libpic32.a(vector27.o)
                              C:\Users\and08479\AppData\Local\Temp\ccubExsT.o (__vector_dispatch_27)
c:/program files (x86)/microchip/xc32/v2.30/bin/bin/../../lib/gcc/pic32mx/4.8.3/../../../../pic32mx/lib\libpic32.a(vector28.o)
                              C:\Users\and08479\AppData\Local\Temp\ccubExsT.o (__vector_dispatch_28)
c:/program files (x86)/microchip/xc32/v2.30/bin/bin/../../lib/gcc/pic32mx/4.8.3/../../../../pic32mx/lib\libpic32.a(vector29.o)
                              C:\Users\and08479\AppData\Local\Temp\ccubExsT.o (__vector_dispatch_29)
c:/program files (x86)/microchip/xc32/v2.30/bin/bin/../../lib/gcc/pic32mx/4.8.3/../../../../pic32mx/lib\libpic32.a(vector30.o)
                              C:\Users\and08479\AppData\Local\Temp\ccubExsT.o (__vector_dispatch_30)
c:/program files (x86)/microchip/xc32/v2.30/bin/bin/../../lib/gcc/pic32mx/4.8.3/../../../../pic32mx/lib\libpic32.a(vector31.o)
                              C:\Users\and08479\AppData\Local\Temp\ccubExsT.o (__vector_dispatch_31)
c:/program files (x86)/microchip/xc32/v2.30/bin/bin/../../lib/gcc/pic32mx/4.8.3/../../../../pic32mx/lib\libpic32.a(vector32.o)
                              C:\Users\and08479\AppData\Local\Temp\ccubExsT.o (__vector_dispatch_32)
c:/program files (x86)/microchip/xc32/v2.30/bin/bin/../../lib/gcc/pic32mx/4.8.3/../../../../pic32mx/lib\libpic32.a(vector33.o)
                              C:\Users\and08479\AppData\Local\Temp\ccubExsT.o (__vector_dispatch_33)
c:/program files (x86)/microchip/xc32/v2.30/bin/bin/../../lib/gcc/pic32mx/4.8.3/../../../../pic32mx/lib\libpic32.a(vector34.o)
                              C:\Users\and08479\AppData\Local\Temp\ccubExsT.o (__vector_dispatch_34)
c:/program files (x86)/microchip/xc32/v2.30/bin/bin/../../lib/gcc/pic32mx/4.8.3/../../../../pic32mx/lib\libpic32.a(vector35.o)
                              C:\Users\and08479\AppData\Local\Temp\ccubExsT.o (__vector_dispatch_35)
c:/program files (x86)/microchip/xc32/v2.30/bin/bin/../../lib/gcc/pic32mx/4.8.3/../../../../pic32mx/lib\libpic32.a(vector36.o)
                              C:\Users\and08479\AppData\Local\Temp\ccubExsT.o (__vector_dispatch_36)
c:/program files (x86)/microchip/xc32/v2.30/bin/bin/../../lib/gcc/pic32mx/4.8.3/../../../../pic32mx/lib\libpic32.a(vector37.o)
                              C:\Users\and08479\AppData\Local\Temp\ccubExsT.o (__vector_dispatch_37)
c:/program files (x86)/microchip/xc32/v2.30/bin/bin/../../lib/gcc/pic32mx/4.8.3/../../../../pic32mx/lib\libpic32.a(vector38.o)
                              C:\Users\and08479\AppData\Local\Temp\ccubExsT.o (__vector_dispatch_38)
c:/program files (x86)/microchip/xc32/v2.30/bin/bin/../../lib/gcc/pic32mx/4.8.3/../../../../pic32mx/lib\libpic32.a(vector39.o)
                              C:\Users\and08479\AppData\Local\Temp\ccubExsT.o (__vector_dispatch_39)
c:/program files (x86)/microchip/xc32/v2.30/bin/bin/../../lib/gcc/pic32mx/4.8.3/../../../../pic32mx/lib\libpic32.a(vector40.o)
                              C:\Users\and08479\AppData\Local\Temp\ccubExsT.o (__vector_dispatch_40)
c:/program files (x86)/microchip/xc32/v2.30/bin/bin/../../lib/gcc/pic32mx/4.8.3/../../../../pic32mx/lib\libpic32.a(vector41.o)
                              C:\Users\and08479\AppData\Local\Temp\ccubExsT.o (__vector_dispatch_41)
c:/program files (x86)/microchip/xc32/v2.30/bin/bin/../../lib/gcc/pic32mx/4.8.3/../../../../pic32mx/lib\libpic32.a(vector42.o)
                              C:\Users\and08479\AppData\Local\Temp\ccubExsT.o (__vector_dispatch_42)
c:/program files (x86)/microchip/xc32/v2.30/bin/bin/../../lib/gcc/pic32mx/4.8.3/../../../../pic32mx/lib\libpic32.a(vector43.o)
                              C:\Users\and08479\AppData\Local\Temp\ccubExsT.o (__vector_dispatch_43)
c:/program files (x86)/microchip/xc32/v2.30/bin/bin/../../lib/gcc/pic32mx/4.8.3/../../../../pic32mx/lib\libpic32.a(vector44.o)
                              C:\Users\and08479\AppData\Local\Temp\ccubExsT.o (__vector_dispatch_44)
c:/program files (x86)/microchip/xc32/v2.30/bin/bin/../../lib/gcc/pic32mx/4.8.3/../../../../pic32mx/lib\libpic32.a(vector45.o)
                              C:\Users\and08479\AppData\Local\Temp\ccubExsT.o (__vector_dispatch_45)
c:/program files (x86)/microchip/xc32/v2.30/bin/bin/../../lib/gcc/pic32mx/4.8.3/../../../../pic32mx/lib\libpic32.a(vector46.o)
                              C:\Users\and08479\AppData\Local\Temp\ccubExsT.o (__vector_dispatch_46)
c:/program files (x86)/microchip/xc32/v2.30/bin/bin/../../lib/gcc/pic32mx/4.8.3/../../../../pic32mx/lib\libpic32.a(vector47.o)
                              C:\Users\and08479\AppData\Local\Temp\ccubExsT.o (__vector_dispatch_47)
c:/program files (x86)/microchip/xc32/v2.30/bin/bin/../../lib/gcc/pic32mx/4.8.3/../../../../pic32mx/lib\libpic32.a(vector48.o)
                              C:\Users\and08479\AppData\Local\Temp\ccubExsT.o (__vector_dispatch_48)
c:/program files (x86)/microchip/xc32/v2.30/bin/bin/../../lib/gcc/pic32mx/4.8.3/../../../../pic32mx/lib\libpic32.a(vector49.o)
                              C:\Users\and08479\AppData\Local\Temp\ccubExsT.o (__vector_dispatch_49)
c:/program files (x86)/microchip/xc32/v2.30/bin/bin/../../lib/gcc/pic32mx/4.8.3/../../../../pic32mx/lib\libpic32.a(vector50.o)
                              C:\Users\and08479\AppData\Local\Temp\ccubExsT.o (__vector_dispatch_50)
c:/program files (x86)/microchip/xc32/v2.30/bin/bin/../../lib/gcc/pic32mx/4.8.3/../../../../pic32mx/lib\libpic32.a(vector51.o)
                              C:\Users\and08479\AppData\Local\Temp\ccubExsT.o (__vector_dispatch_51)
c:/program files (x86)/microchip/xc32/v2.30/bin/bin/../../lib/gcc/pic32mx/4.8.3/../../../../pic32mx/lib\libpic32.a(defaultinterrupt.o)
                              c:/program files (x86)/microchip/xc32/v2.30/bin/bin/../../lib/gcc/pic32mx/4.8.3/../../../../pic32mx/lib\libpic32.a(vector0.o) (_DefaultInterrupt)
c:/program files (x86)/microchip/xc32/v2.30/bin/bin/../../lib/gcc/pic32mx/4.8.3/../../../../pic32mx/lib\libc.a(fassert.o)
                              build/default/production/_ext/1963452113/gfxu_image_png_external.o (_fassert)
c:/program files (x86)/microchip/xc32/v2.30/bin/bin/../../lib/gcc/pic32mx/4.8.3/../../../../pic32mx/lib\libc.a(calloc.o)
                              build/default/production/_ext/1963452113/gfxu_image_utils.o (calloc)
c:/program files (x86)/microchip/xc32/v2.30/bin/bin/../../lib/gcc/pic32mx/4.8.3/../../../../pic32mx/lib\libc.a(malloc.o)
                              build/default/production/_ext/1963452113/gfxu_image_utils.o (malloc)
c:/program files (x86)/microchip/xc32/v2.30/bin/bin/../../lib/gcc/pic32mx/4.8.3/../../../../pic32mx/lib\libc.a(signal.o)
                              c:/program files (x86)/microchip/xc32/v2.30/bin/bin/../../lib/gcc/pic32mx/4.8.3/../../../../pic32mx/lib\libc.a(fassert.o) (abort)
c:/program files (x86)/microchip/xc32/v2.30/bin/bin/../../lib/gcc/pic32mx/4.8.3/../../../../pic32mx/lib\libc.a(exit.o)
                              c:/program files (x86)/microchip/xc32/v2.30/bin/bin/../../lib/gcc/pic32mx/4.8.3/../../../../pic32mx/lib\libc.a(signal.o) (exit)
c:/program files (x86)/microchip/xc32/v2.30/bin/bin/../../lib/gcc/pic32mx/4.8.3/../../../../pic32mx/lib\libc.a(stdclean_simple.o)
                              c:/program files (x86)/microchip/xc32/v2.30/bin/bin/../../lib/gcc/pic32mx/4.8.3/../../../../pic32mx/lib\libc.a(exit.o) (_cleanup)
c:/program files (x86)/microchip/xc32/v2.30/bin/bin/../../lib/gcc/pic32mx/4.8.3/../../../../pic32mx/lib\libc.a(fprintf_cdnopsuxX.eo)
                              c:/program files (x86)/microchip/xc32/v2.30/bin/bin/../../lib/gcc/pic32mx/4.8.3/../../../../pic32mx/lib\libc.a(fassert.o) (_fprintf_cdnopsuxX)
c:/program files (x86)/microchip/xc32/v2.30/bin/bin/../../lib/gcc/pic32mx/4.8.3/../../../../pic32mx/lib\libc.a(sprintf_cdnopuxX.eo)
                              build/default/production/_ext/1071800814/libaria_widget_bar_graph_skin_classic.o (_sprintf_cdnopuxX)
c:/program files (x86)/microchip/xc32/v2.30/bin/bin/../../lib/gcc/pic32mx/4.8.3/../../../../pic32mx/lib\libc.a(_iob.o)
                              c:/program files (x86)/microchip/xc32/v2.30/bin/bin/../../lib/gcc/pic32mx/4.8.3/../../../../pic32mx/lib\libc.a(fassert.o) (_iob)
c:/program files (x86)/microchip/xc32/v2.30/bin/bin/../../lib/gcc/pic32mx/4.8.3/../../../../pic32mx/lib\libc.a(doprnt_cdnopsuxX.eo)
                              c:/program files (x86)/microchip/xc32/v2.30/bin/bin/../../lib/gcc/pic32mx/4.8.3/../../../../pic32mx/lib\libc.a(fprintf_cdnopsuxX.eo) (_vfprintf_cdnopsuxX)
c:/program files (x86)/microchip/xc32/v2.30/bin/bin/../../lib/gcc/pic32mx/4.8.3/../../../../pic32mx/lib\libc.a(doprnt_cdnopuxX.eo)
                              c:/program files (x86)/microchip/xc32/v2.30/bin/bin/../../lib/gcc/pic32mx/4.8.3/../../../../pic32mx/lib\libc.a(sprintf_cdnopuxX.eo) (_vfprintf_cdnopuxX)
c:/program files (x86)/microchip/xc32/v2.30/bin/bin/../../lib/gcc/pic32mx/4.8.3/../../../../pic32mx/lib\libc.a(_fputc_simple.o)
                              c:/program files (x86)/microchip/xc32/v2.30/bin/bin/../../lib/gcc/pic32mx/4.8.3/../../../../pic32mx/lib\libc.a(doprnt_cdnopsuxX.eo) (fputc)
c:/program files (x86)/microchip/xc32/v2.30/bin/bin/../../lib/gcc/pic32mx/4.8.3/../../../../pic32mx/lib\libc.a(ctype.o)
                              c:/program files (x86)/microchip/xc32/v2.30/bin/bin/../../lib/gcc/pic32mx/4.8.3/../../../../pic32mx/lib\libc.a(doprnt_cdnopsuxX.eo) (_ctype)
c:/program files (x86)/microchip/xc32/v2.30/bin/bin/../../lib/gcc/pic32mx/4.8.3/../../../../pic32mx/lib\libc.a(_flsbuf_simple.o)
                              c:/program files (x86)/microchip/xc32/v2.30/bin/bin/../../lib/gcc/pic32mx/4.8.3/../../../../pic32mx/lib\libc.a(_fputc_simple.o) (_flsbuf)
c:/program files (x86)/microchip/xc32/v2.30/bin/bin/../../lib/gcc/pic32mx/4.8.3/../../../../pic32mx/lib\libm.a(fp32div.o)
                              build/default/production/_ext/308360523/lodepng.o (fpdiv)
c:/program files (x86)/microchip/xc32/v2.30/bin/bin/../../lib/gcc/pic32mx/4.8.3/../../../../pic32mx/lib\libm.a(fp32mul.o)
                              build/default/production/_ext/308360523/lodepng.o (fpmul)
c:/program files (x86)/microchip/xc32/v2.30/bin/bin/../../lib/gcc/pic32mx/4.8.3/../../../../pic32mx/lib\libm.a(fp32subadd.o)
                              build/default/production/_ext/308360523/lodepng.o (fpsub)
c:/program files (x86)/microchip/xc32/v2.30/bin/bin/../../lib/gcc/pic32mx/4.8.3/../../../../pic32mx/lib\libm.a(fpatan.o)
                              build/default/production/_ext/676789875/gfx_math.o (atanf)
c:/program files (x86)/microchip/xc32/v2.30/bin/bin/../../lib/gcc/pic32mx/4.8.3/../../../../pic32mx/lib\libm.a(fpcmp.o)
                              build/default/production/_ext/308360523/lodepng.o (fpcmp)
c:/program files (x86)/microchip/xc32/v2.30/bin/bin/../../lib/gcc/pic32mx/4.8.3/../../../../pic32mx/lib\libm.a(fpexatan.o)
                              c:/program files (x86)/microchip/xc32/v2.30/bin/bin/../../lib/gcc/pic32mx/4.8.3/../../../../pic32mx/lib\libm.a(fpatan.o) (fpexatan)
c:/program files (x86)/microchip/xc32/v2.30/bin/bin/../../lib/gcc/pic32mx/4.8.3/../../../../pic32mx/lib\libm.a(fpexsqrt32.o)
                              c:/program files (x86)/microchip/xc32/v2.30/bin/bin/../../lib/gcc/pic32mx/4.8.3/../../../../pic32mx/lib\libm.a(fpatan.o) (fpexsqrt)
c:/program files (x86)/microchip/xc32/v2.30/bin/bin/../../lib/gcc/pic32mx/4.8.3/../../../../pic32mx/lib\libm.a(fptoli.o)
                              build/default/production/_ext/1071800814/libaria_widget_bar_graph_skin_classic.o (fptosi)
c:/program files (x86)/microchip/xc32/v2.30/bin/bin/../../lib/gcc/pic32mx/4.8.3/../../../../pic32mx/lib\libm.a(fptoul.o)
                              build/default/production/_ext/676789875/gfx_math.o (fptoui)
c:/program files (x86)/microchip/xc32/v2.30/bin/bin/../../lib/gcc/pic32mx/4.8.3/../../../../pic32mx/lib\libm.a(sitofp.o)
                              build/default/production/_ext/1071800814/libaria_widget_bar_graph_skin_classic.o (sitofp)
c:/program files (x86)/microchip/xc32/v2.30/bin/bin/../../lib/gcc/pic32mx/4.8.3\libgcc.a(_udivdi3.o)
                              c:/program files (x86)/microchip/xc32/v2.30/bin/bin/../../lib/gcc/pic32mx/4.8.3/../../../../pic32mx/lib\libc.a(doprnt_cdnopsuxX.eo) (__udivdi3)
c:/program files (x86)/microchip/xc32/v2.30/bin/bin/../../lib/gcc/pic32mx/4.8.3\libgcc.a(_umoddi3.o)
                              c:/program files (x86)/microchip/xc32/v2.30/bin/bin/../../lib/gcc/pic32mx/4.8.3/../../../../pic32mx/lib\libc.a(doprnt_cdnopsuxX.eo) (__umoddi3)
c:/program files (x86)/microchip/xc32/v2.30/bin/bin/../../lib/gcc/pic32mx/4.8.3/../../../../pic32mx/lib\libpic32.a(sbrk.o)
                              c:/program files (x86)/microchip/xc32/v2.30/bin/bin/../../lib/gcc/pic32mx/4.8.3/../../../../pic32mx/lib\libc.a(malloc.o) (sbrk)
c:/program files (x86)/microchip/xc32/v2.30/bin/bin/../../lib/gcc/pic32mx/4.8.3/../../../../pic32mx/lib\libpic32.a(write.o)
                              c:/program files (x86)/microchip/xc32/v2.30/bin/bin/../../lib/gcc/pic32mx/4.8.3/../../../../pic32mx/lib\libc.a(_fputc_simple.o) (write)
c:/program files (x86)/microchip/xc32/v2.30/bin/bin/../../lib/gcc/pic32mx/4.8.3/../../../../pic32mx/lib\libpic32.a(errno.o)
                              c:/program files (x86)/microchip/xc32/v2.30/bin/bin/../../lib/gcc/pic32mx/4.8.3/../../../../pic32mx/lib\libpic32.a(sbrk.o) (errno)
c:/program files (x86)/microchip/xc32/v2.30/bin/bin/../../lib/gcc/pic32mx/4.8.3/../../../../pic32mx/lib\libpic32.a(_mon_putc.o)
                              c:/program files (x86)/microchip/xc32/v2.30/bin/bin/../../lib/gcc/pic32mx/4.8.3/../../../../pic32mx/lib\libpic32.a(write.o) (_mon_putc)
c:/program files (x86)/microchip/xc32/v2.30/bin/bin/../../lib/gcc/pic32mx/4.8.3/../../../../pic32mx/lib\libpic32.a(xc32_uart.o)
                              c:/program files (x86)/microchip/xc32/v2.30/bin/bin/../../lib/gcc/pic32mx/4.8.3/../../../../pic32mx/lib\libpic32.a(_mon_putc.o) (__XC_UART)

Allocating common symbols
Common symbol       size              file

appData             0x4               build/default/production/_ext/1360937237/app.o
libariaObj          0x4               build/default/production/_ext/458109090/libaria_harmony.o
defaultScheme       0x40              build/default/production/_ext/458109090/libaria_init.o
sysObj              0x4               build/default/production/_ext/1688732426/system_init.o
sysDevconObj        0x8               build/default/production/_ext/340578644/sys_devcon.o

Microchip PIC32 Memory-Usage Report

kseg0 Program-Memory Usage
section                    address  length [bytes]      (dec)  Description
-------                 ----------  -------------------------  -----------
.rodata                 0x9d000000         0x16a4        5796  Read-only const 
.text.cpuDrawArc_Fill   0x9d0016a4          0xef4        3828   
.dinit                  0x9d002598          0x6b0        1712   
.text.contextDefInitial 0x9d002c48          0x620        1568   
.text.initialize        0x9d003268          0x614        1556   
.text._laContext_ShowSc 0x9d00387c          0x4b4        1204   
.text.cpuDrawStretchBli 0x9d003d30          0x444        1092   
.text.laWidget_SkinClas 0x9d004174          0x3e8        1000   
.text._laContext_PaintW 0x9d00455c          0x3a0         928   
.text.laWidget_SkinClas 0x9d0048fc          0x398         920   
.text.GFX_Open          0x9d004c94          0x334         820   
.text.cpuDrawStretchBli 0x9d004fc8          0x314         788   
.text.malloc            0x9d0052dc          0x28c         652   
.text.cpuDrawLine       0x9d005568          0x288         648   
.text.fpsubadd          0x9d0057f0          0x278         632   
.text.GFX_DrawBlit      0x9d005a68          0x250         592   
.text.GFX_TCON_SSD1289I 0x9d005cb8          0x250         592   
.text._laContext_Paint  0x9d005f08          0x238         568   
.text.fp32div           0x9d006140          0x230         560   
.text.GFX_DrawLine      0x9d006370          0x228         552   
.text._laLayer_Preframe 0x9d006598          0x200         512   
.text.cpuDrawRect_Gradi 0x9d006798          0x1d8         472   
.text.cpuDrawRect_Gradi 0x9d006970          0x1d8         472   
.text.GFX_DrawArc       0x9d006b48          0x1bc         444   
.text.GFX_DrawRect      0x9d006d04          0x1bc         444   
.text.fp32mul           0x9d006ec0          0x1bc         444   
.text.laWidget_SkinClas 0x9d00707c          0x1b4         436   
.text.laScheme_Initiali 0x9d007230          0x1a4         420   
.text.fillRect          0x9d0073d4          0x1a4         420   
.text.cpuDrawBlit       0x9d007578          0x1a0         416   
.text                   0x9d007718          0x1a0         416  App's exec code 
.text._sbrk_init        0x9d0078b8          0x194         404   
.text.defColorModeSet   0x9d007a4c          0x18c         396   
.text.cpuDrawLine_Thick 0x9d007bd8          0x188         392   
.text.laContext_Create  0x9d007d60          0x184         388   
.text.cpuDrawDirectBlit 0x9d007ee4          0x184         388   
.text.cpuDrawLine_Norma 0x9d008068          0x184         388   
.text.cpuDrawEllipse_Li 0x9d0081ec          0x180         384   
.text                   0x9d00836c          0x168         360  App's exec code 
.text.GFX_Close         0x9d0084d4          0x164         356   
.text.GFX_RectSplit     0x9d008638          0x164         356   
.text.laRectArray_SortB 0x9d00879c          0x15c         348   
.text.cpuDrawPixel      0x9d0088f8          0x15c         348   
.text.GFX_UtilPointFrom 0x9d008a54          0x158         344   
.text.getArcSoftEdgeCol 0x9d008bac          0x154         340   
.text.GFX_SineCosineGet 0x9d008d00          0x154         340   
.text.cpuDrawCircle_Lin 0x9d008e54          0x148         328   
.text.realloc           0x9d008f9c          0x148         328   
.text.GFX_ColorBlend_RG 0x9d0090e4          0x144         324   
.text.cpuDrawRect_Fill  0x9d009228          0x140         320   
.text.cpuDrawRect_Line  0x9d009368          0x138         312   
.text._laLayer_AddDamag 0x9d0094a0          0x134         308   
.text._laWidget_Invalid 0x9d0095d4          0x134         308   
.text.GFX_PixelBufferAr 0x9d009708          0x134         308   
.text.GFX_DrawPixel     0x9d00983c          0x134         308   
.text.setLayerAttribute 0x9d009970          0x130         304   
.text._laWidget_Constru 0x9d009aa0          0x130         304   
.text.laWidget_SkinClas 0x9d009bd0          0x130         304   
.text.laWidget_SkinClas 0x9d009d00          0x130         304   
.text.GFX_LayerRectFrom 0x9d009e30          0x130         304   
.text.laEvent_ProcessEv 0x9d009f60          0x12c         300   
.text.GFX_RectClipAdj   0x9d00a08c          0x128         296   
.rodata                 0x9d00a1b4          0x128         296  Read-only const 
.text.laWidget_SkinClas 0x9d00a2dc          0x124         292   
.text.laWidget_SkinClas 0x9d00a400          0x124         292   
.text.GFX_LayerFromOrie 0x9d00a524          0x124         292   
.text.laLayer_New       0x9d00a648          0x118         280   
.text.GFX_UtilPointToOr 0x9d00a760          0x114         276   
.text.defDestroy        0x9d00a874          0x110         272   
.text.driverSSD1926Cont 0x9d00a984          0x110         272   
.text.laRectArray_Merge 0x9d00aa94          0x10c         268   
.text.defLayerBufferCou 0x9d00aba0          0x10c         268   
.text.laWidget_SetSize  0x9d00acac          0x108         264   
.text.layerBufferAlloca 0x9d00adb4          0x108         264   
.text.GFX_EllipsePoint  0x9d00aebc          0x100         256   
.text.laWidget_SetPosit 0x9d00afbc           0xfc         252   
.text.defDrawBlendModeS 0x9d00b0b8           0xfc         252   
.text.GFX_LayerToOrient 0x9d00b1b4           0xf8         248   
.text.arcsOverlapQuadra 0x9d00b2ac           0xf8         248   
.text.laList_Remove     0x9d00b3a4           0xf4         244   
.text.pickChild         0x9d00b498           0xf0         240   
.text.updateDirtyFlags  0x9d00b588           0xec         236   
.text.laUtils_WidgetIsO 0x9d00b674           0xe8         232   
.text.GFX_PixelBufferCr 0x9d00b75c           0xe0         224   
.text.SYS_DEVCON_Perfor 0x9d00b83c           0xe0         224   
.text.defMirroringSet   0x9d00b91c           0xdc         220   
.text.general_exception 0x9d00b9f8           0xdc         220   
.text.defInitialize     0x9d00bad4           0xd8         216   
.text.defOrientationSet 0x9d00bbac           0xd8         216   
.text.laLayer_AddDamage 0x9d00bc84           0xd4         212   
.text.laRectArray_Remov 0x9d00bd58           0xd4         212   
.text.drawBackground    0x9d00be2c           0xd4         212   
.text.laWidget_SetBackg 0x9d00bf00           0xd0         208   
.text.laRectArray_Remov 0x9d00bfd0           0xc8         200   
.text._sbrk             0x9d00c098           0xc8         200   
.text.handleTouchDown   0x9d00c160           0xc4         196   
.text._laLayer_FinishFr 0x9d00c224           0xc4         196   
.text.laWidget_SkinClas 0x9d00c2e8           0xc4         196   
.text.GFX_RectCombine   0x9d00c3ac           0xc4         196   
.text.laWidget_SkinClas 0x9d00c470           0xc0         192   
.text.libaria_initializ 0x9d00c530           0xc0         192   
.text.BSP_LEDOff        0x9d00c5f0           0xc0         192   
.text.defLayerBufferAdd 0x9d00c6b0           0xbc         188   
.text.drawGlyphRow8bpp  0x9d00c76c           0xb8         184   
.text.laWidget_SkinClas 0x9d00c824           0xb8         184   
.rodata                 0x9d00c8dc           0xb8         184  Read-only const 
.text.drawGlyphRow1bpp  0x9d00c994           0xb4         180   
.text.laWidget_SkinClas 0x9d00ca48           0xb4         180   
.text.GFX_RectsAreSimil 0x9d00cafc           0xb4         180   
.text.SYS_PORTS_Initial 0x9d00cbb0           0xb4         180   
.text.laArray_Destroy   0x9d00cc64           0xb0         176   
.text._shuffleLeft      0x9d00cd14           0xb0         176   
.text.laRectArray_PushB 0x9d00cdc4           0xb0         176   
.text.lerp_argb8888     0x9d00ce74           0xb0         176   
.text.lerp_rgba8888     0x9d00cf24           0xb0         176   
.text.findNextLayer     0x9d00cfd4           0xac         172   
.text.laWidget_GetCumul 0x9d00d080           0xac         172   
.text.laWidget_SkinClas 0x9d00d12c           0xac         172   
.text.GFX_PixelBufferAr 0x9d00d1d8           0xac         172   
.text._laLayer_Invalida 0x9d00d284           0xa8         168   
.text.laScreen_New      0x9d00d32c           0xa8         168   
.text.pixelSet          0x9d00d3d4           0xa8         168   
.text                   0x9d00d47c           0xa8         168  App's exec code 
.text.laRectArray_Copy  0x9d00d524           0xa4         164   
.text._laWidget_Destruc 0x9d00d5c8           0xa4         164   
.text.laWidget_RectToLa 0x9d00d66c           0xa4         164   
.text.drvSSD1926_GetReg 0x9d00d710           0xa4         164   
.text.writeCommand      0x9d00d7b4           0xa4         164   
.text.laWidget_SkinClas 0x9d00d858           0xa0         160   
.text._laContext_Update 0x9d00d8f8           0x9c         156   
.text.GFX_ColorBilerp   0x9d00d994           0x9c         156   
.text.rejectPixel       0x9d00da30           0x9c         156   
.text.laArray_Free      0x9d00dacc           0x98         152   
.text.lerp_rgba5551     0x9d00db64           0x98         152   
.text.laArray_Resize    0x9d00dbfc           0x94         148   
.text.laArray_PushBack  0x9d00dc90           0x94         148   
.text.laContext_SetActi 0x9d00dd24           0x94         148   
.text._laLayer_Moved    0x9d00ddb8           0x94         148   
.text._laLayer_Resized  0x9d00de4c           0x94         148   
.text.laList_PushBack   0x9d00dee0           0x94         148   
.text.laRectArray_Resiz 0x9d00df74           0x94         148   
.text.laWidget_DeleteAl 0x9d00e008           0x94         148   
.text.laWidget_SkinClas 0x9d00e09c           0x94         148   
.text.GFX_PixelBufferCl 0x9d00e130           0x94         148   
.text.laContext_SetEdit 0x9d00e1c4           0x90         144   
.text.laUtils_PickFromL 0x9d00e254           0x90         144   
.text.SYS_Initialize    0x9d00e2e4           0x90         144   
.text.laList_Destroy    0x9d00e374           0x8c         140   
.text.defLayerPositionS 0x9d00e400           0x8c         140   
.text.GFX_RectClip      0x9d00e48c           0x8c         140   
.text.defDrawPaletteSet 0x9d00e518           0x88         136   
.text.defGlobalAlphaBle 0x9d00e5a0           0x88         136   
.text.defPixelArrayGet  0x9d00e628           0x88         136   
.text.writeByte         0x9d00e6b0           0x88         136   
.text.GFX_ReadPixelArra 0x9d00e738           0x84         132   
.text.GFX_PolarToXY     0x9d00e7bc           0x84         132   
.text.DRV_PMP0_ModeConf 0x9d00e840           0x84         132   
.text                   0x9d00e8c4           0x84         132  App's exec code 
.text._laLayer_Paint    0x9d00e948           0x80         128   
.text.laUtils_WidgetLay 0x9d00e9c8           0x80         128   
.text.laWidget_SkinClas 0x9d00ea48           0x80         128   
.text.layerBufferFree   0x9d00eac8           0x80         128   
.text.defLayerSwapSet   0x9d00eb48           0x80         128   
.text.get_displayInfo   0x9d00ebc8           0x80         128   
.text.lerp_rgb888       0x9d00ec48           0x80         128   
.text.lerp_rgb565       0x9d00ecc8           0x80         128   
.text.lerp_rgb332       0x9d00ed48           0x80         128   
.text.rejectBlit        0x9d00edc8           0x80         128   
.text.drvSSD1926_SetReg 0x9d00ee48           0x80         128   
.text.laWidget_SkinClas 0x9d00eec8           0x7c         124   
.text.GFX_LayerSwap     0x9d00ef44           0x7c         124   
.text.cpuDrawLine_Horz  0x9d00efc0           0x7c         124   
.text.cpuDrawLine_Vert  0x9d00f03c           0x7c         124   
.text.GFX_PercentOf     0x9d00f0b8           0x7c         124   
.rodata                 0x9d00f134           0x7c         124  Read-only const 
.text.fptoul            0x9d00f1b0           0x7c         124   
.text.laArray_Find      0x9d00f22c           0x78         120   
.text.defAlphaChannelBl 0x9d00f2a4           0x78         120   
.text.ScreenCreate_defa 0x9d00f31c           0x78         120   
.text._laContext_Update 0x9d00f394           0x74         116   
.text.laContext_SetFocu 0x9d00f408           0x74         116   
.text.laLayer_SetBuffer 0x9d00f47c           0x74         116   
.text.laScreen_SetLayer 0x9d00f4f0           0x74         116   
.text.laUtils_ChildInte 0x9d00f564           0x74         116   
.text.laUtils_GetNextHi 0x9d00f5d8           0x74         116   
.text.laWidget_Invalida 0x9d00f64c           0x74         116   
.text.laWidget_SkinClas 0x9d00f6c0           0x74         116   
.text.GFX_PixelBufferSe 0x9d00f734           0x74         116   
.text.GFX_RectContainsR 0x9d00f7a8           0x74         116   
.text.GFX_RectIntersect 0x9d00f81c           0x74         116   
.text.GFX_Set           0x9d00f890           0x70         112   
.text.GFX_ScaleInteger  0x9d00f900           0x70         112   
.text.handleTouchUp     0x9d00f970           0x6c         108   
.text.handleTouchMoved  0x9d00f9dc           0x6c         108   
.text.laRectArray_Remov 0x9d00fa48           0x6c         108   
.text.laUtils_GetLayer  0x9d00fab4           0x6c         108   
.text.laWidget_SkinClas 0x9d00fb20           0x6c         108   
.text.GFX_Lerp          0x9d00fb8c           0x6c         108   
.text.LibAria_Initializ 0x9d00fbf8           0x6c         108   
.text.laContext_GetScre 0x9d00fc64           0x68         104   
.text.laRectArray_Destr 0x9d00fccc           0x68         104   
.text.defDrawGradientCo 0x9d00fd34           0x68         104   
.text.defLayerSizeGet   0x9d00fd9c           0x68         104   
.text.defLayerSizeSet   0x9d00fe04           0x68         104   
.text._GFX_LayerSizeSet 0x9d00fe6c           0x68         104   
.text._laInput_HandleIn 0x9d00fed4           0x64         100   
.text._laWidget_Validat 0x9d00ff38           0x64         100   
.text.defLayerActiveSet 0x9d00ff9c           0x64         100   
.text.defDrawMaskEnable 0x9d010000           0x64         100   
.text.GFX_PixelBufferOf 0x9d010064           0x64         100   
.text.rgb565_gs8        0x9d0100c8           0x64         100   
.text.rgb332_gs8        0x9d01012c           0x64         100   
.text.laLayer_Delete    0x9d010190           0x60          96   
.text.GFX_RectFromPoint 0x9d0101f0           0x60          96   
.text.lut_argb8888      0x9d010250           0x60          96   
.text.lut_rgba8888      0x9d0102b0           0x60          96   
.text.lut_rgb888        0x9d010310           0x60          96   
.text.lut_rgba5551      0x9d010370           0x60          96   
.text.lut_rgb565        0x9d0103d0           0x60          96   
.text.lut_rgb332        0x9d010430           0x60          96   
.text.lut_gs8           0x9d010490           0x60          96   
.text.sitofp            0x9d0104f0           0x60          96   
.text.laUtils_RectToLay 0x9d010550           0x5c          92   
.text.drawBorder        0x9d0105ac           0x5c          92   
.text.defDrawGradientCo 0x9d010608           0x5c          92   
.text.defLayerPositionG 0x9d010664           0x5c          92   
.text.indexGet          0x9d0106c0           0x5c          92   
.text.GFX_PixelBufferDe 0x9d01071c           0x5c          92   
.text.GFX_PixelBufferGe 0x9d010778           0x5c          92   
.text.GFX_PixelBufferGe 0x9d0107d4           0x5c          92   
.text.GFX_ColorLerp     0x9d010830           0x5c          92   
.text.pointRelPositionF 0x9d01088c           0x5c          92   
.text._laLayer_NeedsDra 0x9d0108e8           0x58          88   
.text.GFX_Get           0x9d010940           0x58          88   
.text.defDrawPipelineMo 0x9d010998           0x58          88   
.text.defDrawPaletteGet 0x9d0109f0           0x58          88   
.text.GFX_PercentWholeR 0x9d010a48           0x58          88   
.text.setIO             0x9d010aa0           0x58          88   
.text.SYS_DEVCON_System 0x9d010af8           0x58          88   
.text._laLayer_Postfram 0x9d010b50           0x54          84   
.text.laWidget_GetCumul 0x9d010ba4           0x54          84   
.text.laWidget_SkinClas 0x9d010bf8           0x54          84   
.text.main_entry        0x9d010c4c           0x54          84   
.text._laLayer_Reset    0x9d010ca0           0x50          80   
.text.GFX_PixelBufferGe 0x9d010cf0           0x50          80   
.text.GFX_RectContainsP 0x9d010d40           0x50          80   
.text.wait              0x9d010d90           0x50          80   
.text.sbrk              0x9d010de0           0x50          80   
.text._laWidget_Paint   0x9d010e30           0x4c          76   
.text.defLayerBufferCoh 0x9d010e7c           0x4c          76   
.text.LibAria_Tasks     0x9d010ec8           0x4c          76   
.text                   0x9d010f14           0x4c          76  App's exec code 
.text.calloc            0x9d010f60           0x4c          76   
.text.laContext_AddScre 0x9d010fac           0x48          72   
.text.laEvent_AddEvent  0x9d010ff4           0x48          72   
.text.defDrawTargetSet  0x9d01103c           0x48          72   
.text.defDrawClipRectGe 0x9d011084           0x48          72   
.text.defDrawClipRectSe 0x9d0110cc           0x48          72   
.text.GFX_RectCompare   0x9d011114           0x48          72   
.text.driverSSD1926Info 0x9d01115c           0x48          72   
.text.SYS_DEVCON_System 0x9d0111a4           0x48          72   
.text._bootstrap_except 0x9d0111ec           0x48          72   
.vector_default         0x9d011234           0x48          72   
.text.defBegin          0x9d01127c           0x44          68   
.text.defLayerBufferIsA 0x9d0112c0           0x44          68   
.text.get_layerBufferAd 0x9d011304           0x44          68   
.text.get_layerBufferCo 0x9d011348           0x44          68   
.text.get_layerBufferAl 0x9d01138c           0x44          68   
.text.GFX_ColorConvert  0x9d0113d0           0x44          68   
.text.destroy           0x9d011414           0x44          68   
.text.SYS_CLK_Initializ 0x9d011458           0x44          68   
.text                   0x9d01149c           0x44          68  App's exec code 
.text.laContext_Update  0x9d0114e0           0x40          64   
.text.laWidget_GetIndex 0x9d011520           0x40          64   
.text.defBrightnessSet  0x9d011560           0x40          64   
.text.get_drawGradientC 0x9d0115a0           0x40          64   
.text.rgba5551_rgba8888 0x9d0115e0           0x40          64   
.text.rgba5551_argb8888 0x9d011620           0x40          64   
.text._general_exceptio 0x9d011660           0x40          64   
.text.laContext_GetActi 0x9d0116a0           0x3c          60   
.text.defVSyncCallbackS 0x9d0116dc           0x3c          60   
.text.defHSyncCallbackS 0x9d011718           0x3c          60   
.text.defLayerBufferAdd 0x9d011754           0x3c          60   
.text.defLayerBufferCoh 0x9d011790           0x3c          60   
.text.defLayerAlphaAmou 0x9d0117cc           0x3c          60   
.text.GFX_PixelBufferOf 0x9d011808           0x3c          60   
.text.GFX_RectToPoints  0x9d011844           0x3c          60   
.text.GFX_UtilOrientPoi 0x9d011880           0x3c          60   
.text.GFX_UtilMirrorPoi 0x9d0118bc           0x3c          60   
.text.set_layerAlphaEna 0x9d0118f8           0x3c          60   
.text.set_layerAlphaAmo 0x9d011934           0x3c          60   
.text.set_layerMaskEnab 0x9d011970           0x3c          60   
.text.set_layerMaskColo 0x9d0119ac           0x3c          60   
.text.set_drawGradientC 0x9d0119e8           0x3c          60   
.text.laInitialize      0x9d011a24           0x38          56   
.text.laEditWidget_Star 0x9d011a5c           0x38          56   
.text.laWidget_GetChild 0x9d011a94           0x38          56   
.text.GFX_Update        0x9d011acc           0x38          56   
.text.GFX_Begin         0x9d011b04           0x38          56   
.text.GFX_DriverIntfGet 0x9d011b3c           0x38          56   
.text.get_brightness    0x9d011b74           0x38          56   
.text.get_vsyncCallback 0x9d011bac           0x38          56   
.text.get_hsyncCallback 0x9d011be4           0x38          56   
.text.get_orientation   0x9d011c1c           0x38          56   
.text.get_mirroring     0x9d011c54           0x38          56   
.text.get_colorMode     0x9d011c8c           0x38          56   
.text.get_globalPalette 0x9d011cc4           0x38          56   
.text.get_layerEnabled  0x9d011cfc           0x38          56   
.text.get_layerVisible  0x9d011d34           0x38          56   
.text.get_layerInvalid  0x9d011d6c           0x38          56   
.text.get_layerVsync    0x9d011da4           0x38          56   
.text.get_layerSwapSync 0x9d011ddc           0x38          56   
.text.get_layerSwap     0x9d011e14           0x38          56   
.text.get_layerAlphaEna 0x9d011e4c           0x38          56   
.text.get_layerAlphaAmo 0x9d011e84           0x38          56   
.text.get_layerMaskEnab 0x9d011ebc           0x38          56   
.text.get_layerMaskColo 0x9d011ef4           0x38          56   
.text.get_layerBufferCo 0x9d011f2c           0x38          56   
.text.get_drawPipelineM 0x9d011f64           0x38          56   
.text.get_drawMode      0x9d011f9c           0x38          56   
.text.get_drawColor     0x9d011fd4           0x38          56   
.text.get_drawBlendMode 0x9d01200c           0x38          56   
.text.get_drawResizeMod 0x9d012044           0x38          56   
.text.get_drawAlphaEnab 0x9d01207c           0x38          56   
.text.get_drawAlphaValu 0x9d0120b4           0x38          56   
.text.get_drawMaskEnabl 0x9d0120ec           0x38          56   
.text.get_drawMaskValue 0x9d012124           0x38          56   
.text.get_drawThickness 0x9d01215c           0x38          56   
.text.get_drawClipEnabl 0x9d012194           0x38          56   
.text.deviceBusy        0x9d0121cc           0x38          56   
.text.laInput_SetEnable 0x9d012204           0x34          52   
.text.defLayerBufferFre 0x9d012238           0x34          52   
.text.defLayerBufferAll 0x9d01226c           0x34          52   
.text.get_driverInfo    0x9d0122a0           0x34          52   
.text.get_brightnessRan 0x9d0122d4           0x34          52   
.text.get_layerCount    0x9d012308           0x34          52   
.text.get_layerActive   0x9d01233c           0x34          52   
.text.get_layerPosition 0x9d012370           0x34          52   
.text.get_layerSize     0x9d0123a4           0x34          52   
.text.get_drawPalette   0x9d0123d8           0x34          52   
.text.get_drawTarget    0x9d01240c           0x34          52   
.text.set_layerPosition 0x9d012440           0x34          52   
.text.set_layerSize     0x9d012474           0x34          52   
.text.set_layerBufferAd 0x9d0124a8           0x34          52   
.text.set_layerBufferCo 0x9d0124dc           0x34          52   
.text.rgba8888_rgba5551 0x9d012510           0x34          52   
.text.laEditWidget_EndE 0x9d012544           0x30          48   
.text.laUtils_WidgetLoc 0x9d012574           0x30          48   
.text.GFX_End           0x9d0125a4           0x30          48   
.text.defLayerEnabledSe 0x9d0125d4           0x30          48   
.text.defLayerVisibleSe 0x9d012604           0x30          48   
.text.defLayerVsyncSet  0x9d012634           0x30          48   
.text.defLayerInvalidSe 0x9d012664           0x30          48   
.text.defLayerAlphaEnab 0x9d012694           0x30          48   
.text.defLayerMaskEnabl 0x9d0126c4           0x30          48   
.text.defLayerMaskColor 0x9d0126f4           0x30          48   
.text.defDrawTargetGet  0x9d012724           0x30          48   
.text.get_drawClipRect  0x9d012754           0x30          48   
.text.indexGet1bpp      0x9d012784           0x30          48   
.text.orient_180        0x9d0127b4           0x30          48   
.text.GFX_UtilSizeFromO 0x9d0127e4           0x30          48   
.text.set_brightness    0x9d012814           0x30          48   
.text.set_vsyncCallback 0x9d012844           0x30          48   
.text.set_hsyncCallback 0x9d012874           0x30          48   
.text.set_orientation   0x9d0128a4           0x30          48   
.text.set_mirroring     0x9d0128d4           0x30          48   
.text.set_colorMode     0x9d012904           0x30          48   
.text.set_globalPalette 0x9d012934           0x30          48   
.text.set_layerActive   0x9d012964           0x30          48   
.text.set_layerEnabled  0x9d012994           0x30          48   
.text.set_layerVisible  0x9d0129c4           0x30          48   
.text.set_layerInvalid  0x9d0129f4           0x30          48   
.text.set_layerVsync    0x9d012a24           0x30          48   
.text.set_layerSwapSync 0x9d012a54           0x30          48   
.text.set_layerSwap     0x9d012a84           0x30          48   
.text.set_layerBufferCo 0x9d012ab4           0x30          48   
.text.set_layerBufferAl 0x9d012ae4           0x30          48   
.text.set_layerBufferFr 0x9d012b14           0x30          48   
.text.set_drawPipelineM 0x9d012b44           0x30          48   
.text.set_drawMode      0x9d012b74           0x30          48   
.text.set_drawColor     0x9d012ba4           0x30          48   
.text.set_drawPalette   0x9d012bd4           0x30          48   
.text.set_drawTarget    0x9d012c04           0x30          48   
.text.set_drawBlendMode 0x9d012c34           0x30          48   
.text.set_drawResizeMod 0x9d012c64           0x30          48   
.text.set_drawAlphaEnab 0x9d012c94           0x30          48   
.text.set_drawAlphaValu 0x9d012cc4           0x30          48   
.text.set_drawMaskEnabl 0x9d012cf4           0x30          48   
.text.set_drawMaskValue 0x9d012d24           0x30          48   
.text.set_drawThickness 0x9d012d54           0x30          48   
.text.set_drawClipEnabl 0x9d012d84           0x30          48   
.text.set_drawClipRect  0x9d012db4           0x30          48   
.text.rgb332_rgb888     0x9d012de4           0x30          48   
.text.rgb332_rgba8888   0x9d012e14           0x30          48   
.text.rgb332_argb8888   0x9d012e44           0x30          48   
.text.rgba5551_rgb888   0x9d012e74           0x30          48   
.text.argb8888_rgba5551 0x9d012ea4           0x30          48   
.text.BSP_Initialize    0x9d012ed4           0x30          48   
.rodata                 0x9d012f04           0x30          48  Read-only const 
.text.free              0x9d012f34           0x30          48   
.text._laContext_Handle 0x9d012f64           0x2c          44   
.text.defGlobalPaletteS 0x9d012f90           0x2c          44   
.text.defLayerSwapSyncS 0x9d012fbc           0x2c          44   
.text.defDrawModeSet    0x9d012fe8           0x2c          44   
.text.defDrawColorSet   0x9d013014           0x2c          44   
.text.defDrawResizeMode 0x9d013040           0x2c          44   
.text.defDrawAlphaEnabl 0x9d01306c           0x2c          44   
.text.defDrawAlphaValue 0x9d013098           0x2c          44   
.text.defDrawMaskValueS 0x9d0130c4           0x2c          44   
.text.defDrawThicknessS 0x9d0130f0           0x2c          44   
.text.defDrawClipEnable 0x9d01311c           0x2c          44   
.text.rgb565_argb8888   0x9d013148           0x2c          44   
.text.GFX_Percent       0x9d013174           0x2c          44   
.text.SYS_Tasks         0x9d0131a0           0x2c          44   
.text._stub_sbd_memlayo 0x9d0131cc           0x2c          44   
.text.GFX_Initialize    0x9d0131f8           0x28          40   
.text.defOrientPoint    0x9d013220           0x28          40   
.text.defMirrorPoint    0x9d013248           0x28          40   
.text.indexGet4bpp      0x9d013270           0x28          40   
.text.rgb332_rgb565     0x9d013298           0x28          40   
.text.rgb332_rgba5551   0x9d0132c0           0x28          40   
.text.rgb565_rgba8888   0x9d0132e8           0x28          40   
.text.rgb888_rgba5551   0x9d013310           0x28          40   
.text.DRV_PMP0_Read     0x9d013338           0x28          40   
.text.GFX_InitializeDri 0x9d013360           0x28          40   
.text.getGlyphRowDataSi 0x9d013388           0x24          36   
.text.laArray_Create    0x9d0133ac           0x24          36   
.text.laRectArray_Creat 0x9d0133d0           0x24          36   
.text.laScreen_GetLayer 0x9d0133f4           0x24          36   
.text.laString_Initiali 0x9d013418           0x24          36   
.text.defAlphaGetPoint  0x9d01343c           0x24          36   
.text.defEnd            0x9d013460           0x24          36   
.text.defLayerEnabledGe 0x9d013484           0x24          36   
.text.defLayerVisibleGe 0x9d0134a8           0x24          36   
.text.defLayerBufferCou 0x9d0134cc           0x24          36   
.text.defLayerVsyncGet  0x9d0134f0           0x24          36   
.text.defLayerInvalidGe 0x9d013514           0x24          36   
.text.defLayerSwapGet   0x9d013538           0x24          36   
.text.defLayerAlphaEnab 0x9d01355c           0x24          36   
.text.defLayerAlphaAmou 0x9d013580           0x24          36   
.text.defLayerMaskEnabl 0x9d0135a4           0x24          36   
.text.defLayerMaskColor 0x9d0135c8           0x24          36   
.text.orient_90         0x9d0135ec           0x24          36   
.text.orient_270        0x9d013610           0x24          36   
.text.mirror_0          0x9d013634           0x24          36   
.text.mirror_90         0x9d013658           0x24          36   
.text.mirror_180        0x9d01367c           0x24          36   
.text.mirror_270        0x9d0136a0           0x24          36   
.text.rgb565_rgb888     0x9d0136c4           0x24          36   
.text.rgb888_rgb332     0x9d0136e8           0x24          36   
.text.rgba8888_rgb332   0x9d01370c           0x24          36   
.text.rgba8888_rgb565   0x9d013730           0x24          36   
.text.rgba8888_rgb888   0x9d013754           0x24          36   
.text.DRV_PMP0_Write    0x9d013778           0x24          36   
.text.main              0x9d01379c           0x20          32   
.text.defBrightnessGet  0x9d0137bc           0x20          32   
.text.defVSyncCallbackG 0x9d0137dc           0x20          32   
.text.defHSyncCallbackG 0x9d0137fc           0x20          32   
.text.defOrientationGet 0x9d01381c           0x20          32   
.text.defMirroringGet   0x9d01383c           0x20          32   
.text.defColorModeGet   0x9d01385c           0x20          32   
.text.defGlobalPaletteG 0x9d01387c           0x20          32   
.text.defLayerActiveGet 0x9d01389c           0x20          32   
.text.defLayerSwapSyncG 0x9d0138bc           0x20          32   
.text.defDrawPipelineMo 0x9d0138dc           0x20          32   
.text.defDrawModeGet    0x9d0138fc           0x20          32   
.text.defDrawColorGet   0x9d01391c           0x20          32   
.text.defDrawBlendModeG 0x9d01393c           0x20          32   
.text.defDrawResizeMode 0x9d01395c           0x20          32   
.text.defDrawAlphaEnabl 0x9d01397c           0x20          32   
.text.defDrawAlphaValue 0x9d01399c           0x20          32   
.text.defDrawMaskEnable 0x9d0139bc           0x20          32   
.text.defDrawMaskValueG 0x9d0139dc           0x20          32   
.text.defDrawThicknessG 0x9d0139fc           0x20          32   
.text.defDrawClipEnable 0x9d013a1c           0x20          32   
.text.get3byte          0x9d013a3c           0x20          32   
.rodata                 0x9d013a5c           0x20          32  Read-only const 
.text.gs8_rgb565        0x9d013a7c           0x20          32   
.text.gs8_rgba5551      0x9d013a9c           0x20          32   
.text.rgb565_rgb332     0x9d013abc           0x20          32   
.text.rgba5551_rgb332   0x9d013adc           0x20          32   
.text.rgb888_rgb565     0x9d013afc           0x20          32   
.text.laUpdate          0x9d013b1c           0x1c          28   
.text.laContext_GetEdit 0x9d013b38           0x1c          28   
.text.laRectArray_Clear 0x9d013b54           0x1c          28   
.text.__pic32_alloc_coh 0x9d013b70           0x1c          28   
.text.__pic32_free_cohe 0x9d013b8c           0x1c          28   
.text.defPixelGet       0x9d013ba8           0x1c          28   
.text.defPixelSet       0x9d013bc4           0x1c          28   
.text.GFX_DriverIntfIni 0x9d013be0           0x1c          28   
.text.set3byte          0x9d013bfc           0x1c          28   
.text.gs8_rgba8888      0x9d013c18           0x1c          28   
.text.gs8_argb8888      0x9d013c34           0x1c          28   
.text.lerp_gs8          0x9d013c50           0x1c          28   
.text.DRV_PMP0_Initiali 0x9d013c6c           0x1c          28   
.text.APP_Tasks         0x9d013c88           0x18          24   
.text._laWidget_Increas 0x9d013ca0           0x18          24   
.text.defMirrorPointEmp 0x9d013cb8           0x18          24   
.text.GFX_DisplayInfoPt 0x9d013cd0           0x18          24   
.text.orient_0          0x9d013ce8           0x18          24   
.text.gs8_rgb332        0x9d013d00           0x18          24   
.text.rgb565_rgba5551   0x9d013d18           0x18          24   
.text.SYS_DEVCON_JTAGEn 0x9d013d30           0x18          24   
.text                   0x9d013d48           0x18          24  App's exec code 
.text.laContext_GetDefa 0x9d013d60           0x14          20   
.text.defBrightnessRang 0x9d013d74           0x14          20   
.text.get_displayCount  0x9d013d88           0x14          20   
.text.get_driverCount   0x9d013d9c           0x14          20   
.text.gs8_rgb888        0x9d013db0           0x14          20   
.text.rgba5551_rgb565   0x9d013dc4           0x14          20   
.text.SYS_INT_Initializ 0x9d013dd8           0x14          20   
.text.SYS_DEVCON_Initia 0x9d013dec           0x14          20   
.text.defMaskColor      0x9d013e00           0x10          16   
.text.GFX_Mini          0x9d013e10           0x10          16   
.text.GFX_Maxi          0x9d013e20           0x10          16   
.text.laContext_SetActi 0x9d013e30            0xc          12   
.text.GFX_DriverIntfPtr 0x9d013e3c            0xc          12   
.text.set1byte          0x9d013e48            0xc          12   
.text.set2byte          0x9d013e54            0xc          12   
.text.set4byte          0x9d013e60            0xc          12   
.text.rgb888_rgba8888   0x9d013e6c            0xc          12   
.text.rgb888_argb8888   0x9d013e78            0xc          12   
.text.SYS_CLK_SystemFre 0x9d013e84            0xc          12   
.text.APP_Initialize    0x9d013e90            0x8           8   
.text.getGlyphRowDataSi 0x9d013e98            0x8           8   
.text.laContext_GetActi 0x9d013ea0            0x8           8   
.text.update            0x9d013ea8            0x8           8   
.text.moved             0x9d013eb0            0x8           8   
.text.resized           0x9d013eb8            0x8           8   
.text.focusGained       0x9d013ec0            0x8           8   
.text.focusLost         0x9d013ec8            0x8           8   
.text.touchDownEvent    0x9d013ed0            0x8           8   
.text.touchUpEvent      0x9d013ed8            0x8           8   
.text.touchMovedEvent   0x9d013ee0            0x8           8   
.text.languageChangingE 0x9d013ee8            0x8           8   
.text._laWidget_SetDirt 0x9d013ef0            0x8           8   
.text._laWidget_ClearDi 0x9d013ef8            0x8           8   
.text.GFX_ActiveContext 0x9d013f00            0x8           8   
.text.GFX_ContextActive 0x9d013f08            0x8           8   
.text._GFX_DefaultSyncC 0x9d013f10            0x8           8   
.text.defUpdate         0x9d013f18            0x8           8   
.text.defLayerSwapPendi 0x9d013f20            0x8           8   
.text.defLayerSwapped   0x9d013f28            0x8           8   
.text.defMaskEmpty      0x9d013f30            0x8           8   
.text.defAlphaEmptyPoin 0x9d013f38            0x8           8   
.text.defEmptyAlphaBlen 0x9d013f40            0x8           8   
.text.defInterrupt      0x9d013f48            0x8           8   
.text.get_unimplemented 0x9d013f50            0x8           8   
.text.get1byte          0x9d013f58            0x8           8   
.text.get2byte          0x9d013f60            0x8           8   
.text.get4byte          0x9d013f68            0x8           8   
.text.set_unimplemented 0x9d013f70            0x8           8   
.text.no_conv           0x9d013f78            0x8           8   
.text.gs8_yuv           0x9d013f80            0x8           8   
.text.rgb332_yuv        0x9d013f88            0x8           8   
.text.rgb565_yuv        0x9d013f90            0x8           8   
.text.rgba5551_gs8      0x9d013f98            0x8           8   
.text.rgba5551_yuv      0x9d013fa0            0x8           8   
.text.rgb888_gs8        0x9d013fa8            0x8           8   
.text.rgb888_yuv        0x9d013fb0            0x8           8   
.text.rgba8888_gs8      0x9d013fb8            0x8           8   
.text.rgba8888_argb8888 0x9d013fc0            0x8           8   
.text.rgba8888_yuv      0x9d013fc8            0x8           8   
.text.argb8888_rgb888   0x9d013fd0            0x8           8   
.text.argb8888_rgba8888 0x9d013fd8            0x8           8   
.text.yuv_gs8           0x9d013fe0            0x8           8   
.text.yuv_rgb332        0x9d013fe8            0x8           8   
.text.yuv_rgb565        0x9d013ff0            0x8           8   
.text.yuv_rgba5551      0x9d013ff8            0x8           8   
.text.yuv_rgb888        0x9d014000            0x8           8   
.text.yuv_rgba8888      0x9d014008            0x8           8   
.text.yuv_argb8888      0x9d014010            0x8           8   
.text.lut_yuv           0x9d014018            0x8           8   
.text.cpuDrawLine_AA    0x9d014020            0x8           8   
.text.cpuDrawRect_Line_ 0x9d014028            0x8           8   
.text.cpuDrawRect_Fill_ 0x9d014030            0x8           8   
.text.brightnessRangeGe 0x9d014038            0x8           8   
.text.brightnessSet     0x9d014040            0x8           8   
.text.vsyncSet          0x9d014048            0x8           8   
.text.vsyncCallbackSet  0x9d014050            0x8           8   
.text.hsyncCallbackSet  0x9d014058            0x8           8   
.text.layerActiveSet    0x9d014060            0x8           8   
.text.layerEnabledSet   0x9d014068            0x8           8   
.text.layerPositionSet  0x9d014070            0x8           8   
.text.layerSizeSet      0x9d014078            0x8           8   
.text.layerBufferCountS 0x9d014080            0x8           8   
.text.layerBufferAddres 0x9d014088            0x8           8   
.text.layerBufferCohere 0x9d014090            0x8           8   
.text.layerBufferAlloca 0x9d014098            0x8           8   
.text.layerBufferFree   0x9d0140a0            0x8           8   
.text.layerVisibleSet   0x9d0140a8            0x8           8   
.text.layerAlphaEnableS 0x9d0140b0            0x8           8   
.text.pixelGet          0x9d0140b8            0x8           8   
.text._on_reset         0x9d0140c0            0x8           8   
.text._on_bootstrap     0x9d0140c8            0x8           8   
      Total kseg0_program_mem used  :     0x140d0       82128  15.7% of 0x80000

kseg0 Boot-Memory Usage
section                    address  length [bytes]      (dec)  Description
-------                 ----------  -------------------------  -----------
         Total kseg0_boot_mem used  :           0           0  <1% of 0x970

Exception-Memory Usage 
section                    address  length [bytes]      (dec)  Description
-------                 ----------  -------------------------  -----------
.app_excpt              0x9fc01180           0x10          16  General-Exception 
.vector_0               0x9fc01200            0x8           8  Interrupt Vector 0 
.vector_1               0x9fc01220            0x8           8  Interrupt Vector 1 
.vector_2               0x9fc01240            0x8           8  Interrupt Vector 2 
.vector_3               0x9fc01260            0x8           8  Interrupt Vector 3 
.vector_4               0x9fc01280            0x8           8  Interrupt Vector 4 
.vector_5               0x9fc012a0            0x8           8  Interrupt Vector 5 
.vector_6               0x9fc012c0            0x8           8  Interrupt Vector 6 
.vector_7               0x9fc012e0            0x8           8  Interrupt Vector 7 
.vector_8               0x9fc01300            0x8           8  Interrupt Vector 8 
.vector_9               0x9fc01320            0x8           8  Interrupt Vector 9 
.vector_10              0x9fc01340            0x8           8  Interrupt Vector 10 
.vector_11              0x9fc01360            0x8           8  Interrupt Vector 11 
.vector_12              0x9fc01380            0x8           8  Interrupt Vector 12 
.vector_13              0x9fc013a0            0x8           8  Interrupt Vector 13 
.vector_14              0x9fc013c0            0x8           8  Interrupt Vector 14 
.vector_15              0x9fc013e0            0x8           8  Interrupt Vector 15 
.vector_16              0x9fc01400            0x8           8  Interrupt Vector 16 
.vector_17              0x9fc01420            0x8           8  Interrupt Vector 17 
.vector_18              0x9fc01440            0x8           8  Interrupt Vector 18 
.vector_19              0x9fc01460            0x8           8  Interrupt Vector 19 
.vector_20              0x9fc01480            0x8           8  Interrupt Vector 20 
.vector_21              0x9fc014a0            0x8           8  Interrupt Vector 21 
.vector_22              0x9fc014c0            0x8           8  Interrupt Vector 22 
.vector_23              0x9fc014e0            0x8           8  Interrupt Vector 23 
.vector_24              0x9fc01500            0x8           8  Interrupt Vector 24 
.vector_25              0x9fc01520            0x8           8  Interrupt Vector 25 
.vector_26              0x9fc01540            0x8           8  Interrupt Vector 26 
.vector_27              0x9fc01560            0x8           8  Interrupt Vector 27 
.vector_28              0x9fc01580            0x8           8  Interrupt Vector 28 
.vector_29              0x9fc015a0            0x8           8  Interrupt Vector 29 
.vector_30              0x9fc015c0            0x8           8  Interrupt Vector 30 
.vector_31              0x9fc015e0            0x8           8  Interrupt Vector 31 
.vector_32              0x9fc01600            0x8           8  Interrupt Vector 32 
.vector_33              0x9fc01620            0x8           8  Interrupt Vector 33 
.vector_34              0x9fc01640            0x8           8  Interrupt Vector 34 
.vector_35              0x9fc01660            0x8           8  Interrupt Vector 35 
.vector_36              0x9fc01680            0x8           8  Interrupt Vector 36 
.vector_37              0x9fc016a0            0x8           8  Interrupt Vector 37 
.vector_38              0x9fc016c0            0x8           8  Interrupt Vector 38 
.vector_39              0x9fc016e0            0x8           8  Interrupt Vector 39 
.vector_40              0x9fc01700            0x8           8  Interrupt Vector 40 
.vector_41              0x9fc01720            0x8           8  Interrupt Vector 41 
.vector_42              0x9fc01740            0x8           8  Interrupt Vector 42 
.vector_43              0x9fc01760            0x8           8  Interrupt Vector 43 
.vector_44              0x9fc01780            0x8           8  Interrupt Vector 44 
.vector_45              0x9fc017a0            0x8           8  Interrupt Vector 45 
.vector_46              0x9fc017c0            0x8           8  Interrupt Vector 46 
.vector_47              0x9fc017e0            0x8           8  Interrupt Vector 47 
.vector_48              0x9fc01800            0x8           8  Interrupt Vector 48 
.vector_49              0x9fc01820            0x8           8  Interrupt Vector 49 
.vector_50              0x9fc01840            0x8           8  Interrupt Vector 50 
.vector_51              0x9fc01860            0x8           8  Interrupt Vector 51 
          Total exception_mem used  :       0x1b0         432  10.5% of 0x1000

kseg1 Boot-Memory Usage
section                    address  length [bytes]      (dec)  Description
-------                 ----------  -------------------------  -----------
.reset                  0xbfc00000          0x19c         412  Reset handler 
.bev_excpt              0xbfc00380           0x10          16  BEV-Exception 
         Total kseg1_boot_mem used  :       0x1ac         428  36.6% of 0x490
        --------------------------------------------------------------------------
         Total Program Memory used  :     0x1442c       82988  15.6% of 0x81e00
        --------------------------------------------------------------------------


kseg1 Data-Memory Usage
section                    address  length [bytes]      (dec)  Description
-------                 ----------  -------------------------  -----------
.sdata                  0xa0000000           0x20          32  Small init data 
.sbss                   0xa0000020           0x8c         140  Small uninit data 
.bss                    0xa00000ac           0x40          64  Uninitialized data 
.data                   0xa00000ec          0x35c         860  Initialized data 
.data                   0xa0000448          0x198         408  Initialized data 
.data                   0xa00005e0           0x5c          92  Initialized data 
.bss                    0xa000063c           0x44          68  Uninitialized data 
.bss.errno              0xa0000680            0x4           4   
         Total kseg1_data_mem used  :       0x684        1668  1.3% of 0x20000
        --------------------------------------------------------------------------
            Total Data Memory used  :       0x684        1668  1.3% of 0x20000
        --------------------------------------------------------------------------


Dynamic Data-Memory Reservation
section                    address  length [bytes]      (dec)  Description
-------                 ----------  -------------------------  -----------
heap                    0xa0000688        0x19000      102400  Reserved for heap 
stack                   0xa00196a0         0x6950       26960  Reserved for stack 

        --------------------------------------------------------------------------

Discarded input sections

 .text          0x00000000        0x0 c:/program files (x86)/microchip/xc32/v2.30/bin/bin/../../lib/gcc/pic32mx/4.8.3/../../../../pic32mx/lib\debug-exception-return.o
 .data          0x00000000        0x0 c:/program files (x86)/microchip/xc32/v2.30/bin/bin/../../lib/gcc/pic32mx/4.8.3/../../../../pic32mx/lib\debug-exception-return.o
 .bss           0x00000000        0x0 c:/program files (x86)/microchip/xc32/v2.30/bin/bin/../../lib/gcc/pic32mx/4.8.3/../../../../pic32mx/lib\debug-exception-return.o
 .text          0x00000000        0x0 build/default/production/_ext/1360937237/app.o
 .data          0x00000000        0x0 build/default/production/_ext/1360937237/app.o
 .bss           0x00000000        0x0 build/default/production/_ext/1360937237/app.o
 .reginfo       0x00000000       0x18 build/default/production/_ext/1360937237/app.o
 COMMON         0x00000000        0x0 build/default/production/_ext/1360937237/app.o
 .text          0x00000000        0x0 build/default/production/_ext/1360937237/main.o
 .data          0x00000000        0x0 build/default/production/_ext/1360937237/main.o
 .bss           0x00000000        0x0 build/default/production/_ext/1360937237/main.o
 .reginfo       0x00000000       0x18 build/default/production/_ext/1360937237/main.o
 .text          0x00000000        0x0 build/default/production/_ext/658260392/jidctint.o
 .data          0x00000000        0x0 build/default/production/_ext/658260392/jidctint.o
 .bss           0x00000000        0x0 build/default/production/_ext/658260392/jidctint.o
 .reginfo       0x00000000       0x18 build/default/production/_ext/658260392/jidctint.o
 .text.jpeg_idct_islow
                0x00000000      0x6b8 build/default/production/_ext/658260392/jidctint.o
 .text          0x00000000        0x0 build/default/production/_ext/1963452113/gfxu_image_jpg_common.o
 .data          0x00000000        0x0 build/default/production/_ext/1963452113/gfxu_image_jpg_common.o
 .bss           0x00000000        0x0 build/default/production/_ext/1963452113/gfxu_image_jpg_common.o
 .reginfo       0x00000000       0x18 build/default/production/_ext/1963452113/gfxu_image_jpg_common.o
 .text.JPEG_wReadWord
                0x00000000       0x68 build/default/production/_ext/1963452113/gfxu_image_jpg_common.o
 .text.JPEG_bReadByte
                0x00000000       0x30 build/default/production/_ext/1963452113/gfxu_image_jpg_common.o
 .text.JPEG_bGet1Bit
                0x00000000      0x144 build/default/production/_ext/1963452113/gfxu_image_jpg_common.o
 .text.JPEG_wGetBits
                0x00000000       0x6c build/default/production/_ext/1963452113/gfxu_image_jpg_common.o
 .text.JPEG_sGetBitsValue
                0x00000000       0x60 build/default/production/_ext/1963452113/gfxu_image_jpg_common.o
 .text.JPEG_bGetNextHuffByte
                0x00000000       0xc4 build/default/production/_ext/1963452113/gfxu_image_jpg_common.o
 .text.JPEG_vResetDecoder
                0x00000000       0x20 build/default/production/_ext/1963452113/gfxu_image_jpg_common.o
 .text.JPEG_bReadHeader
                0x00000000      0x894 build/default/production/_ext/1963452113/gfxu_image_jpg_common.o
 .text.JPEG_bGenerateHuffmanTables
                0x00000000       0x84 build/default/production/_ext/1963452113/gfxu_image_jpg_common.o
 .text.JPEG_bDecodeOneBlock
                0x00000000      0x2c4 build/default/production/_ext/1963452113/gfxu_image_jpg_common.o
 .text.JPEG_vInitDisplay
                0x00000000        0xc build/default/production/_ext/1963452113/gfxu_image_jpg_common.o
 .text.JPEG_bPaintOneBlock
                0x00000000      0x9b0 build/default/production/_ext/1963452113/gfxu_image_jpg_common.o
 .text.JPEG_bInterpretResourceHeader
                0x00000000       0x44 build/default/production/_ext/1963452113/gfxu_image_jpg_common.o
 .rodata        0x00000000       0x4c build/default/production/_ext/1963452113/gfxu_image_jpg_common.o
 .text          0x00000000        0x0 build/default/production/_ext/1963452113/gfxu_image_jpg_internal.o
 .data          0x00000000        0x0 build/default/production/_ext/1963452113/gfxu_image_jpg_internal.o
 .bss           0x00000000      0x9fc build/default/production/_ext/1963452113/gfxu_image_jpg_internal.o
 .reginfo       0x00000000       0x18 build/default/production/_ext/1963452113/gfxu_image_jpg_internal.o
 .text.internalMemoryRead
                0x00000000       0x44 build/default/production/_ext/1963452113/gfxu_image_jpg_internal.o
 .text.GFXU_DrawImageJpgInternal
                0x00000000      0x2d4 build/default/production/_ext/1963452113/gfxu_image_jpg_internal.o
 .text          0x00000000        0x0 build/default/production/_ext/1963452113/gfxu_image_jpg_external.o
 .data          0x00000000        0x0 build/default/production/_ext/1963452113/gfxu_image_jpg_external.o
 .bss           0x00000000      0x9fc build/default/production/_ext/1963452113/gfxu_image_jpg_external.o
 .reginfo       0x00000000       0x18 build/default/production/_ext/1963452113/gfxu_image_jpg_external.o
 .text.externalMemoryRead
                0x00000000       0x68 build/default/production/_ext/1963452113/gfxu_image_jpg_external.o
 .text.GFXU_DrawImageJpgExternal
                0x00000000      0x2a4 build/default/production/_ext/1963452113/gfxu_image_jpg_external.o
 .text          0x00000000        0x0 build/default/production/_ext/1963452113/gfxu_image_png_external.o
 .data          0x00000000        0x0 build/default/production/_ext/1963452113/gfxu_image_png_external.o
 .bss           0x00000000        0x0 build/default/production/_ext/1963452113/gfxu_image_png_external.o
 .reginfo       0x00000000       0x18 build/default/production/_ext/1963452113/gfxu_image_png_external.o
 .rodata        0x00000000       0x84 build/default/production/_ext/1963452113/gfxu_image_png_external.o
 .text.GFXU_DrawImagePngExternal
                0x00000000      0x2bc build/default/production/_ext/1963452113/gfxu_image_png_external.o
 .text          0x00000000        0x0 build/default/production/_ext/1963452113/gfxu_image_png_internal.o
 .data          0x00000000        0x0 build/default/production/_ext/1963452113/gfxu_image_png_internal.o
 .bss           0x00000000        0x0 build/default/production/_ext/1963452113/gfxu_image_png_internal.o
 .reginfo       0x00000000       0x18 build/default/production/_ext/1963452113/gfxu_image_png_internal.o
 .text.lodepng_malloc
                0x00000000       0x30 build/default/production/_ext/1963452113/gfxu_image_png_internal.o
 .text.lodepng_realloc
                0x00000000       0x40 build/default/production/_ext/1963452113/gfxu_image_png_internal.o
 .text.lodepng_free
                0x00000000       0x38 build/default/production/_ext/1963452113/gfxu_image_png_internal.o
 .rodata        0x00000000       0x84 build/default/production/_ext/1963452113/gfxu_image_png_internal.o
 .text.GFXU_DrawImagePngInternal
                0x00000000      0x21c build/default/production/_ext/1963452113/gfxu_image_png_internal.o
 .text          0x00000000        0x0 build/default/production/_ext/308360523/lodepng.o
 .data          0x00000000        0x0 build/default/production/_ext/308360523/lodepng.o
 .bss           0x00000000        0x0 build/default/production/_ext/308360523/lodepng.o
 .reginfo       0x00000000       0x18 build/default/production/_ext/308360523/lodepng.o
 .text.readBitsFromStream
                0x00000000       0x50 build/default/production/_ext/308360523/lodepng.o
 .text.bpmnode_create
                0x00000000      0x130 build/default/production/_ext/308360523/lodepng.o
 .text.boundaryPM
                0x00000000      0x19c build/default/production/_ext/308360523/lodepng.o
 .text.huffmanDecodeSymbol
                0x00000000       0x80 build/default/production/_ext/308360523/lodepng.o
 .text.searchCodeIndex
                0x00000000       0x70 build/default/production/_ext/308360523/lodepng.o
 .text.getHash  0x00000000       0x80 build/default/production/_ext/308360523/lodepng.o
 .text.updateHashChain
                0x00000000       0x8c build/default/production/_ext/308360523/lodepng.o
 .text.readBitFromReversedStream
                0x00000000       0x2c build/default/production/_ext/308360523/lodepng.o
 .text.readBitsFromReversedStream
                0x00000000       0x7c build/default/production/_ext/308360523/lodepng.o
 .text.setBitOfReversedStream
                0x00000000       0x68 build/default/production/_ext/308360523/lodepng.o
 .text.checkColorValidity
                0x00000000      0x12c build/default/production/_ext/308360523/lodepng.o
 .text.getNumColorChannels
                0x00000000       0x68 build/default/production/_ext/308360523/lodepng.o
 .text.lodepng_color_mode_equal
                0x00000000       0xe4 build/default/production/_ext/308360523/lodepng.o
 .text.addColorBits
                0x00000000       0x78 build/default/production/_ext/308360523/lodepng.o
 .text.color_tree_get
                0x00000000       0xd4 build/default/production/_ext/308360523/lodepng.o
 .text.getPixelColorRGBA8
                0x00000000      0x40c build/default/production/_ext/308360523/lodepng.o
 .text.getPixelColorsRGBA8
                0x00000000      0x544 build/default/production/_ext/308360523/lodepng.o
 .text.getPixelColorRGBA16
                0x00000000      0x224 build/default/production/_ext/308360523/lodepng.o
 .text.paethPredictor
                0x00000000       0x78 build/default/production/_ext/308360523/lodepng.o
 .text.Adam7_getpassvalues
                0x00000000      0x1ac build/default/production/_ext/308360523/lodepng.o
 .text.unfilter
                0x00000000      0x3f8 build/default/production/_ext/308360523/lodepng.o
 .text.removePaddingBits
                0x00000000       0xc0 build/default/production/_ext/308360523/lodepng.o
 .text.filterScanline
                0x00000000      0x37c build/default/production/_ext/308360523/lodepng.o
 .text.addPaddingBits
                0x00000000       0xe0 build/default/production/_ext/308360523/lodepng.o
 .text.color_tree_add
                0x00000000      0x100 build/default/production/_ext/308360523/lodepng.o
 .text.uivector_cleanup
                0x00000000       0x34 build/default/production/_ext/308360523/lodepng.o
 .text.HuffmanTree_cleanup
                0x00000000       0x38 build/default/production/_ext/308360523/lodepng.o
 .text.color_tree_cleanup
                0x00000000       0x60 build/default/production/_ext/308360523/lodepng.o
 .text.ucvector_cleanup
                0x00000000       0x34 build/default/production/_ext/308360523/lodepng.o
 .text.ucvector_reserve
                0x00000000       0x74 build/default/production/_ext/308360523/lodepng.o
 .text.ucvector_resize
                0x00000000       0x40 build/default/production/_ext/308360523/lodepng.o
 .text.ucvector_push_back
                0x00000000       0x54 build/default/production/_ext/308360523/lodepng.o
 .text.addBitsToStream
                0x00000000       0xb4 build/default/production/_ext/308360523/lodepng.o
 .text.addBitsToStreamReversed
                0x00000000       0xbc build/default/production/_ext/308360523/lodepng.o
 .text.lodepng_add32bitInt
                0x00000000       0x64 build/default/production/_ext/308360523/lodepng.o
 .text.uivector_resize
                0x00000000       0x84 build/default/production/_ext/308360523/lodepng.o
 .text.uivector_resizev
                0x00000000       0x80 build/default/production/_ext/308360523/lodepng.o
 .text.uivector_push_back
                0x00000000       0x64 build/default/production/_ext/308360523/lodepng.o
 .text.string_init
                0x00000000       0x40 build/default/production/_ext/308360523/lodepng.o
 .text.encodeLZ77
                0x00000000      0x6d8 build/default/production/_ext/308360523/lodepng.o
 .text.writeLZ77data
                0x00000000      0x16c build/default/production/_ext/308360523/lodepng.o
 .text.LodePNGIText_cleanup
                0x00000000       0xc8 build/default/production/_ext/308360523/lodepng.o
 .text.LodePNGText_cleanup
                0x00000000       0x90 build/default/production/_ext/308360523/lodepng.o
 .text.string_set
                0x00000000       0x84 build/default/production/_ext/308360523/lodepng.o
 .text.HuffmanTree_makeFromLengths2
                0x00000000      0x370 build/default/production/_ext/308360523/lodepng.o
 .text.HuffmanTree_makeFromLengths
                0x00000000       0xa4 build/default/production/_ext/308360523/lodepng.o
 .text.generateFixedLitLenTree
                0x00000000       0xd4 build/default/production/_ext/308360523/lodepng.o
 .text.generateFixedDistanceTree
                0x00000000       0x80 build/default/production/_ext/308360523/lodepng.o
 .text.lodepng_read32bitInt
                0x00000000       0x2c build/default/production/_ext/308360523/lodepng.o
 .text.lodepng_huffman_code_lengths
                0x00000000      0x4c0 build/default/production/_ext/308360523/lodepng.o
 .text.HuffmanTree_makeFromFrequencies
                0x00000000       0xf0 build/default/production/_ext/308360523/lodepng.o
 .text.lodepng_inflate
                0x00000000      0x9a0 build/default/production/_ext/308360523/lodepng.o
 .text.lodepng_deflate
                0x00000000      0xf90 build/default/production/_ext/308360523/lodepng.o
 .text.lodepng_zlib_decompress
                0x00000000      0x1dc build/default/production/_ext/308360523/lodepng.o
 .text.zlib_decompress
                0x00000000       0x3c build/default/production/_ext/308360523/lodepng.o
 .text.lodepng_zlib_compress
                0x00000000      0x1cc build/default/production/_ext/308360523/lodepng.o
 .text.zlib_compress
                0x00000000       0x3c build/default/production/_ext/308360523/lodepng.o
 .text.lodepng_compress_settings_init
                0x00000000       0x3c build/default/production/_ext/308360523/lodepng.o
 .text.lodepng_decompress_settings_init
                0x00000000       0x14 build/default/production/_ext/308360523/lodepng.o
 .text.lodepng_crc32
                0x00000000       0x58 build/default/production/_ext/308360523/lodepng.o
 .text.lodepng_chunk_length
                0x00000000       0x1c build/default/production/_ext/308360523/lodepng.o
 .text.lodepng_chunk_type
                0x00000000       0x28 build/default/production/_ext/308360523/lodepng.o
 .text.lodepng_chunk_type_equals
                0x00000000       0x88 build/default/production/_ext/308360523/lodepng.o
 .text.lodepng_chunk_ancillary
                0x00000000        0xc build/default/production/_ext/308360523/lodepng.o
 .text.lodepng_chunk_private
                0x00000000        0xc build/default/production/_ext/308360523/lodepng.o
 .text.lodepng_chunk_safetocopy
                0x00000000        0xc build/default/production/_ext/308360523/lodepng.o
 .text.lodepng_chunk_data
                0x00000000        0x8 build/default/production/_ext/308360523/lodepng.o
 .text.lodepng_chunk_data_const
                0x00000000        0x8 build/default/production/_ext/308360523/lodepng.o
 .text.lodepng_chunk_check_crc
                0x00000000       0x5c build/default/production/_ext/308360523/lodepng.o
 .text.lodepng_chunk_generate_crc
                0x00000000       0x64 build/default/production/_ext/308360523/lodepng.o
 .text.lodepng_chunk_next
                0x00000000       0x2c build/default/production/_ext/308360523/lodepng.o
 .text.lodepng_chunk_next_const
                0x00000000       0x2c build/default/production/_ext/308360523/lodepng.o
 .text.lodepng_chunk_append
                0x00000000       0xcc build/default/production/_ext/308360523/lodepng.o
 .text.addUnknownChunks
                0x00000000       0x9c build/default/production/_ext/308360523/lodepng.o
 .text.lodepng_chunk_create
                0x00000000      0x10c build/default/production/_ext/308360523/lodepng.o
 .text.addChunk
                0x00000000       0x48 build/default/production/_ext/308360523/lodepng.o
 .text.addChunk_PLTE
                0x00000000       0xa8 build/default/production/_ext/308360523/lodepng.o
 .text.addChunk_tRNS
                0x00000000      0x170 build/default/production/_ext/308360523/lodepng.o
 .text.addChunk_tEXt
                0x00000000       0xec build/default/production/_ext/308360523/lodepng.o
 .text.lodepng_color_mode_init
                0x00000000       0x2c build/default/production/_ext/308360523/lodepng.o
 .text.lodepng_palette_clear
                0x00000000       0x3c build/default/production/_ext/308360523/lodepng.o
 .text.lodepng_color_mode_cleanup
                0x00000000       0x1c build/default/production/_ext/308360523/lodepng.o
 .text.lodepng_color_mode_copy
                0x00000000       0xe8 build/default/production/_ext/308360523/lodepng.o
 .text.lodepng_palette_add
                0x00000000       0xc8 build/default/production/_ext/308360523/lodepng.o
 .text.lodepng_get_bpp
                0x00000000       0x30 build/default/production/_ext/308360523/lodepng.o
 .text.lodepng_get_raw_size_idat
                0x00000000       0x54 build/default/production/_ext/308360523/lodepng.o
 .text.filter   0x00000000      0xa28 build/default/production/_ext/308360523/lodepng.o
 .text.preProcessScanlines
                0x00000000      0x630 build/default/production/_ext/308360523/lodepng.o
 .text.lodepng_get_channels
                0x00000000       0x1c build/default/production/_ext/308360523/lodepng.o
 .text.lodepng_is_greyscale_type
                0x00000000       0x10 build/default/production/_ext/308360523/lodepng.o
 .text.lodepng_is_alpha_type
                0x00000000        0xc build/default/production/_ext/308360523/lodepng.o
 .text.lodepng_is_palette_type
                0x00000000       0x10 build/default/production/_ext/308360523/lodepng.o
 .text.lodepng_has_palette_alpha
                0x00000000       0x64 build/default/production/_ext/308360523/lodepng.o
 .text.lodepng_can_have_alpha
                0x00000000       0x40 build/default/production/_ext/308360523/lodepng.o
 .text.lodepng_get_raw_size
                0x00000000       0x54 build/default/production/_ext/308360523/lodepng.o
 .text.lodepng_get_raw_size_lct
                0x00000000       0x64 build/default/production/_ext/308360523/lodepng.o
 .text.lodepng_clear_text
                0x00000000       0x1c build/default/production/_ext/308360523/lodepng.o
 .text.lodepng_add_text
                0x00000000      0x114 build/default/production/_ext/308360523/lodepng.o
 .text.lodepng_clear_itext
                0x00000000       0x1c build/default/production/_ext/308360523/lodepng.o
 .text.lodepng_add_itext
                0x00000000      0x1f0 build/default/production/_ext/308360523/lodepng.o
 .text.lodepng_info_init
                0x00000000       0x84 build/default/production/_ext/308360523/lodepng.o
 .text.lodepng_info_cleanup
                0x00000000       0x50 build/default/production/_ext/308360523/lodepng.o
 .text.lodepng_info_copy
                0x00000000      0x240 build/default/production/_ext/308360523/lodepng.o
 .text.lodepng_info_swap
                0x00000000       0xac build/default/production/_ext/308360523/lodepng.o
 .text.lodepng_convert
                0x00000000      0x53c build/default/production/_ext/308360523/lodepng.o
 .text.lodepng_color_profile_init
                0x00000000       0x28 build/default/production/_ext/308360523/lodepng.o
 .text.lodepng_get_color_profile
                0x00000000      0x798 build/default/production/_ext/308360523/lodepng.o
 .text.lodepng_auto_choose_color
                0x00000000      0x260 build/default/production/_ext/308360523/lodepng.o
 .text.lodepng_inspect
                0x00000000      0x24c build/default/production/_ext/308360523/lodepng.o
 .text.lodepng_decode
                0x00000000     0x15f0 build/default/production/_ext/308360523/lodepng.o
 .text.lodepng_decoder_settings_init
                0x00000000       0x28 build/default/production/_ext/308360523/lodepng.o
 .text.lodepng_state_cleanup
                0x00000000       0x30 build/default/production/_ext/308360523/lodepng.o
 .text.lodepng_state_copy
                0x00000000       0xbc build/default/production/_ext/308360523/lodepng.o
 .text.lodepng_encode
                0x00000000      0xb88 build/default/production/_ext/308360523/lodepng.o
 .text.lodepng_encoder_settings_init
                0x00000000       0x44 build/default/production/_ext/308360523/lodepng.o
 .text.lodepng_state_init
                0x00000000       0x44 build/default/production/_ext/308360523/lodepng.o
 .text.lodepng_decode_memory
                0x00000000       0x8c build/default/production/_ext/308360523/lodepng.o
 .text.lodepng_decode32
                0x00000000       0x30 build/default/production/_ext/308360523/lodepng.o
 .text.lodepng_decode24
                0x00000000       0x30 build/default/production/_ext/308360523/lodepng.o
 .text.lodepng_encode_memory
                0x00000000       0xb0 build/default/production/_ext/308360523/lodepng.o
 .text.lodepng_encode32
                0x00000000       0x30 build/default/production/_ext/308360523/lodepng.o
 .text.lodepng_encode24
                0x00000000       0x30 build/default/production/_ext/308360523/lodepng.o
 .text.lodepng_error_text
                0x00000000      0x578 build/default/production/_ext/308360523/lodepng.o
 .text          0x00000000        0x0 build/default/production/_ext/1963452113/gfxu_image.o
 .data          0x00000000        0x0 build/default/production/_ext/1963452113/gfxu_image.o
 .bss           0x00000000        0x0 build/default/production/_ext/1963452113/gfxu_image.o
 .reginfo       0x00000000       0x18 build/default/production/_ext/1963452113/gfxu_image.o
 .text.GFXU_DrawImage
                0x00000000      0x330 build/default/production/_ext/1963452113/gfxu_image.o
 .text.GFXU_PreprocessImage
                0x00000000      0x1ec build/default/production/_ext/1963452113/gfxu_image.o
 .text          0x00000000        0x0 build/default/production/_ext/1963452113/gfxu_image_raw_external.o
 .data          0x00000000        0x0 build/default/production/_ext/1963452113/gfxu_image_raw_external.o
 .bss           0x00000000        0x0 build/default/production/_ext/1963452113/gfxu_image_raw_external.o
 .reginfo       0x00000000       0x18 build/default/production/_ext/1963452113/gfxu_image_raw_external.o
 .text.imageReadRequestCompleted
                0x00000000       0xa0 build/default/production/_ext/1963452113/gfxu_image_raw_external.o
 .text.paletteReadRequestCompleted
                0x00000000       0x14 build/default/production/_ext/1963452113/gfxu_image_raw_external.o
 .text.run      0x00000000      0x454 build/default/production/_ext/1963452113/gfxu_image_raw_external.o
 .text.GFXU_DrawImageRawExternal
                0x00000000      0x130 build/default/production/_ext/1963452113/gfxu_image_raw_external.o
 .text          0x00000000        0x0 build/default/production/_ext/1963452113/gfxu_image_raw_internal.o
 .data          0x00000000        0x0 build/default/production/_ext/1963452113/gfxu_image_raw_internal.o
 .bss           0x00000000        0x0 build/default/production/_ext/1963452113/gfxu_image_raw_internal.o
 .reginfo       0x00000000       0x18 build/default/production/_ext/1963452113/gfxu_image_raw_internal.o
 .text.GFXU_DrawImageRawInternal
                0x00000000      0x234 build/default/production/_ext/1963452113/gfxu_image_raw_internal.o
 .text          0x00000000        0x0 build/default/production/_ext/1963452113/gfxu_image_rle_external.o
 .data          0x00000000        0x0 build/default/production/_ext/1963452113/gfxu_image_rle_external.o
 .bss           0x00000000        0x0 build/default/production/_ext/1963452113/gfxu_image_rle_external.o
 .reginfo       0x00000000       0x18 build/default/production/_ext/1963452113/gfxu_image_rle_external.o
 .text.headerReadRequestCompleted
                0x00000000       0x28 build/default/production/_ext/1963452113/gfxu_image_rle_external.o
 .text.paletteReadRequestCompleted
                0x00000000       0x14 build/default/production/_ext/1963452113/gfxu_image_rle_external.o
 .text.rleReadRequestCompleted
                0x00000000      0x158 build/default/production/_ext/1963452113/gfxu_image_rle_external.o
 .text.drawPaletteData
                0x00000000      0x110 build/default/production/_ext/1963452113/gfxu_image_rle_external.o
 .text.run      0x00000000      0x418 build/default/production/_ext/1963452113/gfxu_image_rle_external.o
 .text.GFXU_DrawImageRLEExternal
                0x00000000      0x130 build/default/production/_ext/1963452113/gfxu_image_rle_external.o
 .text          0x00000000        0x0 build/default/production/_ext/1963452113/gfxu_image_rle_internal.o
 .data          0x00000000        0x0 build/default/production/_ext/1963452113/gfxu_image_rle_internal.o
 .bss           0x00000000        0x0 build/default/production/_ext/1963452113/gfxu_image_rle_internal.o
 .reginfo       0x00000000       0x18 build/default/production/_ext/1963452113/gfxu_image_rle_internal.o
 .text.GFXU_DrawImageRLEInternal
                0x00000000      0x42c build/default/production/_ext/1963452113/gfxu_image_rle_internal.o
 .text          0x00000000        0x0 build/default/production/_ext/1963452113/gfxu_image_utils.o
 .data          0x00000000       0x44 build/default/production/_ext/1963452113/gfxu_image_utils.o
 .bss           0x00000000        0x0 build/default/production/_ext/1963452113/gfxu_image_utils.o
 .reginfo       0x00000000       0x18 build/default/production/_ext/1963452113/gfxu_image_utils.o
 .text.getDiscreteValueAtIndex1
                0x00000000       0x20 build/default/production/_ext/1963452113/gfxu_image_utils.o
 .text.getDiscreteValueAtIndex4
                0x00000000       0x18 build/default/production/_ext/1963452113/gfxu_image_utils.o
 .text.getDiscreteValueAtIndex8
                0x00000000        0x8 build/default/production/_ext/1963452113/gfxu_image_utils.o
 .text.calcOffset1bpp
                0x00000000        0x8 build/default/production/_ext/1963452113/gfxu_image_utils.o
 .text.calcOffset4bpp
                0x00000000        0x8 build/default/production/_ext/1963452113/gfxu_image_utils.o
 .text.calcOffset8bpp
                0x00000000        0x8 build/default/production/_ext/1963452113/gfxu_image_utils.o
 .text.calcOffset16bpp
                0x00000000        0x8 build/default/production/_ext/1963452113/gfxu_image_utils.o
 .text.calcOffset24bpp
                0x00000000        0xc build/default/production/_ext/1963452113/gfxu_image_utils.o
 .text.calcOffset32bpp
                0x00000000        0x8 build/default/production/_ext/1963452113/gfxu_image_utils.o
 .text.getRLEDataAtIndex
                0x00000000       0xe4 build/default/production/_ext/1963452113/gfxu_image_utils.o
 .text.getDiscreteValueAtIndex
                0x00000000       0x30 build/default/production/_ext/1963452113/gfxu_image_utils.o
 .text.getOffsetFromIndexAndBPP
                0x00000000       0x30 build/default/production/_ext/1963452113/gfxu_image_utils.o
 .text.convertColorAndSetDraw
                0x00000000       0x68 build/default/production/_ext/1963452113/gfxu_image_utils.o
 .text.createDefaultMemIntf
                0x00000000       0x58 build/default/production/_ext/1963452113/gfxu_image_utils.o
 .text          0x00000000        0x0 build/default/production/_ext/1963452113/gfxu_palette.o
 .data          0x00000000        0x0 build/default/production/_ext/1963452113/gfxu_palette.o
 .bss           0x00000000        0x0 build/default/production/_ext/1963452113/gfxu_palette.o
 .reginfo       0x00000000       0x18 build/default/production/_ext/1963452113/gfxu_palette.o
 .text.GFXU_PaletteGetColor
                0x00000000        0x8 build/default/production/_ext/1963452113/gfxu_palette.o
 .text          0x00000000        0x0 build/default/production/_ext/1963452113/gfxu_string.o
 .data          0x00000000        0x0 build/default/production/_ext/1963452113/gfxu_string.o
 .bss           0x00000000        0x0 build/default/production/_ext/1963452113/gfxu_string.o
 .reginfo       0x00000000       0x18 build/default/production/_ext/1963452113/gfxu_string.o
 .text.GFXU_DrawString
                0x00000000      0x13c build/default/production/_ext/1963452113/gfxu_string.o
 .text.GFXU_DrawStringClipped
                0x00000000      0x124 build/default/production/_ext/1963452113/gfxu_string.o
 .text.GFXU_DrawSubStringClipped
                0x00000000      0x138 build/default/production/_ext/1963452113/gfxu_string.o
 .text.GFXU_DrawCharString
                0x00000000       0x8c build/default/production/_ext/1963452113/gfxu_string.o
 .text.GFXU_DrawCharStringClipped
                0x00000000       0xa4 build/default/production/_ext/1963452113/gfxu_string.o
 .text.GFXU_DrawCharSubStringClipped
                0x00000000       0xbc build/default/production/_ext/1963452113/gfxu_string.o
 .text          0x00000000        0x0 build/default/production/_ext/1963452113/gfxu_string_external.o
 .data          0x00000000        0x0 build/default/production/_ext/1963452113/gfxu_string_external.o
 .bss           0x00000000        0x0 build/default/production/_ext/1963452113/gfxu_string_external.o
 .reginfo       0x00000000       0x18 build/default/production/_ext/1963452113/gfxu_string_external.o
 .text.done     0x00000000       0x5c build/default/production/_ext/1963452113/gfxu_string_external.o
 .text.fontDataRequestCompleted
                0x00000000       0x14 build/default/production/_ext/1963452113/gfxu_string_external.o
 .text.run      0x00000000      0x34c build/default/production/_ext/1963452113/gfxu_string_external.o
 .text.GFXU_DrawStringExternal
                0x00000000      0x110 build/default/production/_ext/1963452113/gfxu_string_external.o
 .text          0x00000000        0x0 build/default/production/_ext/1963452113/gfxu_stringbuffer_external.o
 .data          0x00000000        0x0 build/default/production/_ext/1963452113/gfxu_stringbuffer_external.o
 .bss           0x00000000        0x0 build/default/production/_ext/1963452113/gfxu_stringbuffer_external.o
 .reginfo       0x00000000       0x18 build/default/production/_ext/1963452113/gfxu_stringbuffer_external.o
 .text.done     0x00000000       0x5c build/default/production/_ext/1963452113/gfxu_stringbuffer_external.o
 .text.fontDataRequestCompleted
                0x00000000       0x14 build/default/production/_ext/1963452113/gfxu_stringbuffer_external.o
 .text.run      0x00000000      0x304 build/default/production/_ext/1963452113/gfxu_stringbuffer_external.o
 .text.GFXU_DrawStringBufferExternal
                0x00000000      0x120 build/default/production/_ext/1963452113/gfxu_stringbuffer_external.o
 .text          0x00000000        0x0 build/default/production/_ext/1963452113/gfxu_string_internal.o
 .data          0x00000000        0x0 build/default/production/_ext/1963452113/gfxu_string_internal.o
 .bss           0x00000000        0x0 build/default/production/_ext/1963452113/gfxu_string_internal.o
 .reginfo       0x00000000       0x18 build/default/production/_ext/1963452113/gfxu_string_internal.o
 .text.GFXU_DrawStringInternal
                0x00000000       0xa0 build/default/production/_ext/1963452113/gfxu_string_internal.o
 .text.GFXU_DrawStringBufferInternal
                0x00000000       0xdc build/default/production/_ext/1963452113/gfxu_string_internal.o
 .text.GFXU_DrawSubStringBufferInternal
                0x00000000       0xf4 build/default/production/_ext/1963452113/gfxu_string_internal.o
 .text.GFXU_DrawSubStringInternal
                0x00000000       0xb0 build/default/production/_ext/1963452113/gfxu_string_internal.o
 .text          0x00000000        0x0 build/default/production/_ext/1963452113/gfxu_string_query.o
 .data          0x00000000        0x0 build/default/production/_ext/1963452113/gfxu_string_query.o
 .bss           0x00000000        0x0 build/default/production/_ext/1963452113/gfxu_string_query.o
 .reginfo       0x00000000       0x18 build/default/production/_ext/1963452113/gfxu_string_query.o
 .text.GFXU_GetCharAt
                0x00000000      0x108 build/default/production/_ext/1963452113/gfxu_string_query.o
 .text.GFXU_GetStringLength
                0x00000000       0xc0 build/default/production/_ext/1963452113/gfxu_string_query.o
 .text.GFXU_GetStringSizeInBytes
                0x00000000       0x48 build/default/production/_ext/1963452113/gfxu_string_query.o
 .text.GFXU_GetStringLineRect
                0x00000000      0x190 build/default/production/_ext/1963452113/gfxu_string_query.o
 .text.GFXU_GetCharStringLineRect
                0x00000000      0x14c build/default/production/_ext/1963452113/gfxu_string_query.o
 .text.GFXU_GetStringHeight
                0x00000000       0x60 build/default/production/_ext/1963452113/gfxu_string_query.o
 .text.GFXU_GetStringAscent
                0x00000000       0x60 build/default/production/_ext/1963452113/gfxu_string_query.o
 .text.GFXU_GetCharWidth
                0x00000000       0x44 build/default/production/_ext/1963452113/gfxu_string_query.o
 .text.GFXU_CalculateStringWidth
                0x00000000      0x118 build/default/production/_ext/1963452113/gfxu_string_query.o
 .text.GFXU_GetStringRect
                0x00000000       0xac build/default/production/_ext/1963452113/gfxu_string_query.o
 .text.GFXU_CalculatePartialStringWidth
                0x00000000      0x150 build/default/production/_ext/1963452113/gfxu_string_query.o
 .text.GFXU_CalculateCharStringWidth
                0x00000000       0xc8 build/default/production/_ext/1963452113/gfxu_string_query.o
 .text.GFXU_CalculatePartialCharStringWidth
                0x00000000       0xe0 build/default/production/_ext/1963452113/gfxu_string_query.o
 .text          0x00000000        0x0 build/default/production/_ext/1963452113/gfxu_string_utils.o
 .data          0x00000000        0xc build/default/production/_ext/1963452113/gfxu_string_utils.o
 .bss           0x00000000        0x0 build/default/production/_ext/1963452113/gfxu_string_utils.o
 .reginfo       0x00000000       0x18 build/default/production/_ext/1963452113/gfxu_string_utils.o
 .text.GFXU_DecodeASCII
                0x00000000       0x18 build/default/production/_ext/1963452113/gfxu_string_utils.o
 .text.GFXU_DecodeUTF8
                0x00000000      0x1f8 build/default/production/_ext/1963452113/gfxu_string_utils.o
 .text.GFXU_DecodeUTF16
                0x00000000       0xa0 build/default/production/_ext/1963452113/gfxu_string_utils.o
 .text.GFXU_StringIndexLookup
                0x00000000       0x7c build/default/production/_ext/1963452113/gfxu_string_utils.o
 .text.GFXU_StringLookup
                0x00000000       0x8c build/default/production/_ext/1963452113/gfxu_string_utils.o
 .text.GFXU_StringFontIndexLookup
                0x00000000       0x80 build/default/production/_ext/1963452113/gfxu_string_utils.o
 .text.GFXU_FontGetLookupTableEntry
                0x00000000       0xb8 build/default/production/_ext/1963452113/gfxu_string_utils.o
 .text.GFXU_FontGetGlyphInfo
                0x00000000       0x94 build/default/production/_ext/1963452113/gfxu_string_utils.o
 .text.GFXU_DecodeCodePoint
                0x00000000       0x3c build/default/production/_ext/1963452113/gfxu_string_utils.o
 .text.GFXU_ExtractString
                0x00000000      0x14c build/default/production/_ext/1963452113/gfxu_string_utils.o
 .text.GFXU_CompareString
                0x00000000      0x16c build/default/production/_ext/1963452113/gfxu_string_utils.o
 .text.GFXU_GetGlyphRowDataSize
                0x00000000       0x2c build/default/production/_ext/1963452113/gfxu_string_utils.o
 .text.GFXU_DrawGlyphRow
                0x00000000       0x48 build/default/production/_ext/1963452113/gfxu_string_utils.o
 .text.GFXU_DrawUnknownGlyph
                0x00000000      0x1f4 build/default/production/_ext/1963452113/gfxu_string_utils.o
 .text.GFXU_DrawGlyph
                0x00000000      0x1c8 build/default/production/_ext/1963452113/gfxu_string_utils.o
 .text.GFXU_DecodeAndDrawString
                0x00000000       0xf8 build/default/production/_ext/1963452113/gfxu_string_utils.o
 .text.GFXU_DecodeAndDrawSubString
                0x00000000      0x10c build/default/production/_ext/1963452113/gfxu_string_utils.o
 .text          0x00000000        0x0 build/default/production/_ext/1071800814/libaria.o
 .data          0x00000000        0x0 build/default/production/_ext/1071800814/libaria.o
 .bss           0x00000000        0x0 build/default/production/_ext/1071800814/libaria.o
 .reginfo       0x00000000       0x18 build/default/production/_ext/1071800814/libaria.o
 .text.laShutdown
                0x00000000       0x44 build/default/production/_ext/1071800814/libaria.o
 .text          0x00000000        0x0 build/default/production/_ext/1071800814/libaria_array.o
 .data          0x00000000        0x0 build/default/production/_ext/1071800814/libaria_array.o
 .bss           0x00000000        0x0 build/default/production/_ext/1071800814/libaria_array.o
 .reginfo       0x00000000       0x18 build/default/production/_ext/1071800814/libaria_array.o
 .text._shuffleRight
                0x00000000       0x70 build/default/production/_ext/1071800814/libaria_array.o
 .text._shuffleLeft
                0x00000000       0x70 build/default/production/_ext/1071800814/libaria_array.o
 .text.laArray_PushFront
                0x00000000       0x90 build/default/production/_ext/1071800814/libaria_array.o
 .text.laArray_PopFront
                0x00000000       0x48 build/default/production/_ext/1071800814/libaria_array.o
 .text.laArray_PopBack
                0x00000000       0x34 build/default/production/_ext/1071800814/libaria_array.o
 .text.laArray_InsertAt
                0x00000000       0xc0 build/default/production/_ext/1071800814/libaria_array.o
 .text.laArray_RemoveAt
                0x00000000       0x6c build/default/production/_ext/1071800814/libaria_array.o
 .text.laArray_Get
                0x00000000       0x28 build/default/production/_ext/1071800814/libaria_array.o
 .text.laArray_Remove
                0x00000000       0x68 build/default/production/_ext/1071800814/libaria_array.o
 .text.laArray_Copy
                0x00000000       0xa4 build/default/production/_ext/1071800814/libaria_array.o
 .text.laArray_Clear
                0x00000000       0x1c build/default/production/_ext/1071800814/libaria_array.o
 .text          0x00000000        0x0 build/default/production/_ext/1071800814/libaria_context.o
 .data          0x00000000        0x0 build/default/production/_ext/1071800814/libaria_context.o
 .bss           0x00000000        0x0 build/default/production/_ext/1071800814/libaria_context.o
 .reginfo       0x00000000       0x18 build/default/production/_ext/1071800814/libaria_context.o
 .text.signalLanguageChanging
                0x00000000       0x64 build/default/production/_ext/1071800814/libaria_context.o
 .text.laContext_Destroy
                0x00000000       0xa0 build/default/production/_ext/1071800814/libaria_context.o
 .text.laContext_GetColorMode
                0x00000000       0x1c build/default/production/_ext/1071800814/libaria_context.o
 .text.laContext_RemoveScreen
                0x00000000       0x44 build/default/production/_ext/1071800814/libaria_context.o
 .text.laContext_GetActiveScreen
                0x00000000       0x1c build/default/production/_ext/1071800814/libaria_context.o
 .text.laContext_HideActiveScreen
                0x00000000       0x3c build/default/production/_ext/1071800814/libaria_context.o
 .text.laContext_GetPreemptionLevel
                0x00000000       0x1c build/default/production/_ext/1071800814/libaria_context.o
 .text.laContext_SetPreemptionLevel
                0x00000000       0x20 build/default/production/_ext/1071800814/libaria_context.o
 .text.laContext_GetStringTable
                0x00000000       0x1c build/default/production/_ext/1071800814/libaria_context.o
 .text.laContext_GetStringLanguage
                0x00000000       0x1c build/default/production/_ext/1071800814/libaria_context.o
 .text.laContext_SetStringLanguage
                0x00000000       0xe4 build/default/production/_ext/1071800814/libaria_context.o
 .text.laContext_RedrawAll
                0x00000000       0x90 build/default/production/_ext/1071800814/libaria_context.o
 .text.laContext_SetStringTable
                0x00000000       0x28 build/default/production/_ext/1071800814/libaria_context.o
 .text.laContext_GetFocusWidget
                0x00000000       0x1c build/default/production/_ext/1071800814/libaria_context.o
 .text.laContext_IsDrawing
                0x00000000       0x4c build/default/production/_ext/1071800814/libaria_context.o
 .text.laContext_IsLayerDrawing
                0x00000000       0x44 build/default/production/_ext/1071800814/libaria_context.o
 .text          0x00000000        0x0 build/default/production/_ext/1071800814/libaria_context_paint.o
 .data          0x00000000        0x0 build/default/production/_ext/1071800814/libaria_context_paint.o
 .bss           0x00000000        0x0 build/default/production/_ext/1071800814/libaria_context_paint.o
 .reginfo       0x00000000       0x18 build/default/production/_ext/1071800814/libaria_context_paint.o
 .text          0x00000000        0x0 build/default/production/_ext/1071800814/libaria_draw.o
 .data          0x00000000        0x0 build/default/production/_ext/1071800814/libaria_draw.o
 .bss           0x00000000        0x0 build/default/production/_ext/1071800814/libaria_draw.o
 .reginfo       0x00000000       0x18 build/default/production/_ext/1071800814/libaria_draw.o
 .text.laDraw_LineBorder
                0x00000000       0x58 build/default/production/_ext/1071800814/libaria_draw.o
 .text.laDraw_2x1BevelBorder
                0x00000000      0x14c build/default/production/_ext/1071800814/libaria_draw.o
 .text.laDraw_1x2BevelBorder
                0x00000000      0x158 build/default/production/_ext/1071800814/libaria_draw.o
 .text.laDraw_2x2BevelBorder
                0x00000000      0x1ac build/default/production/_ext/1071800814/libaria_draw.o
 .text          0x00000000        0x0 build/default/production/_ext/1071800814/libaria_editwidget.o
 .data          0x00000000        0x0 build/default/production/_ext/1071800814/libaria_editwidget.o
 .bss           0x00000000        0x0 build/default/production/_ext/1071800814/libaria_editwidget.o
 .reginfo       0x00000000       0x18 build/default/production/_ext/1071800814/libaria_editwidget.o
 .text.startEdit
                0x00000000        0x8 build/default/production/_ext/1071800814/libaria_editwidget.o
 .text.endEdit  0x00000000        0x8 build/default/production/_ext/1071800814/libaria_editwidget.o
 .text.clear    0x00000000        0x8 build/default/production/_ext/1071800814/libaria_editwidget.o
 .text.accept   0x00000000        0x8 build/default/production/_ext/1071800814/libaria_editwidget.o
 .text.set      0x00000000       0x10 build/default/production/_ext/1071800814/libaria_editwidget.o
 .text.append   0x00000000       0x10 build/default/production/_ext/1071800814/libaria_editwidget.o
 .text.backspace
                0x00000000        0x8 build/default/production/_ext/1071800814/libaria_editwidget.o
 .text._laEditWidget_Constructor
                0x00000000       0x80 build/default/production/_ext/1071800814/libaria_editwidget.o
 .text._laEditWidget_Destructor
                0x00000000       0x28 build/default/production/_ext/1071800814/libaria_editwidget.o
 .text.laEditWidget_Clear
                0x00000000       0x30 build/default/production/_ext/1071800814/libaria_editwidget.o
 .text.laEditWidget_Accept
                0x00000000       0x30 build/default/production/_ext/1071800814/libaria_editwidget.o
 .text.laEditWidget_Set
                0x00000000       0x54 build/default/production/_ext/1071800814/libaria_editwidget.o
 .text.laEditWidget_Append
                0x00000000       0x54 build/default/production/_ext/1071800814/libaria_editwidget.o
 .text.laEditWidget_Backspace
                0x00000000       0x30 build/default/production/_ext/1071800814/libaria_editwidget.o
 .text          0x00000000        0x0 build/default/production/_ext/1071800814/libaria_event.o
 .data          0x00000000        0x0 build/default/production/_ext/1071800814/libaria_event.o
 .bss           0x00000000        0x0 build/default/production/_ext/1071800814/libaria_event.o
 .reginfo       0x00000000       0x18 build/default/production/_ext/1071800814/libaria_event.o
 .text.laEvent_GetCount
                0x00000000       0x28 build/default/production/_ext/1071800814/libaria_event.o
 .text.laEvent_SetFilter
                0x00000000       0x34 build/default/production/_ext/1071800814/libaria_event.o
 .text.laEvent_ClearList
                0x00000000       0x30 build/default/production/_ext/1071800814/libaria_event.o
 .text          0x00000000        0x0 build/default/production/_ext/1071800814/libaria_input.o
 .data          0x00000000        0x0 build/default/production/_ext/1071800814/libaria_input.o
 .bss           0x00000000        0x0 build/default/production/_ext/1071800814/libaria_input.o
 .reginfo       0x00000000       0x18 build/default/production/_ext/1071800814/libaria_input.o
 .text.laInput_GetEnabled
                0x00000000       0x28 build/default/production/_ext/1071800814/libaria_input.o
 .text.transformCoordinate
                0x00000000       0xd4 build/default/production/_ext/1071800814/libaria_input.o
 .text.laInput_InjectTouchDown
                0x00000000      0x134 build/default/production/_ext/1071800814/libaria_input.o
 .text.laInput_InjectTouchUp
                0x00000000      0x108 build/default/production/_ext/1071800814/libaria_input.o
 .text.laInput_InjectTouchMoved
                0x00000000      0x194 build/default/production/_ext/1071800814/libaria_input.o
 .text          0x00000000        0x0 build/default/production/_ext/1071800814/libaria_layer.o
 .data          0x00000000        0x0 build/default/production/_ext/1071800814/libaria_layer.o
 .bss           0x00000000        0x0 build/default/production/_ext/1071800814/libaria_layer.o
 .reginfo       0x00000000       0x18 build/default/production/_ext/1071800814/libaria_layer.o
 .text.laLayer_GetEnabled
                0x00000000       0x18 build/default/production/_ext/1071800814/libaria_layer.o
 .text.laLayer_SetEnabled
                0x00000000       0x78 build/default/production/_ext/1071800814/libaria_layer.o
 .text.laLayer_GetAlphaEnable
                0x00000000       0x18 build/default/production/_ext/1071800814/libaria_layer.o
 .text.laLayer_SetAlphaEnable
                0x00000000       0x7c build/default/production/_ext/1071800814/libaria_layer.o
 .text.laLayer_SetAlphaAmount
                0x00000000       0x7c build/default/production/_ext/1071800814/libaria_layer.o
 .text.laLayer_GetMaskEnable
                0x00000000       0x18 build/default/production/_ext/1071800814/libaria_layer.o
 .text.laLayer_SetMaskEnable
                0x00000000       0x88 build/default/production/_ext/1071800814/libaria_layer.o
 .text.laLayer_GetMaskColor
                0x00000000       0x18 build/default/production/_ext/1071800814/libaria_layer.o
 .text.laLayer_SetMaskColor
                0x00000000       0x88 build/default/production/_ext/1071800814/libaria_layer.o
 .text.laLayer_GetBufferCount
                0x00000000       0x18 build/default/production/_ext/1071800814/libaria_layer.o
 .text.laLayer_GetVSync
                0x00000000       0x18 build/default/production/_ext/1071800814/libaria_layer.o
 .text.laLayer_SetVSync
                0x00000000       0x74 build/default/production/_ext/1071800814/libaria_layer.o
 .text.laLayer_GetInputRect
                0x00000000       0x40 build/default/production/_ext/1071800814/libaria_layer.o
 .text.laLayer_SetInputRect
                0x00000000       0x44 build/default/production/_ext/1071800814/libaria_layer.o
 .text.laLayer_GetInputRectLocked
                0x00000000       0x18 build/default/production/_ext/1071800814/libaria_layer.o
 .text.laLayer_SetInputRectLocked
                0x00000000       0x48 build/default/production/_ext/1071800814/libaria_layer.o
 .text.laLayer_GetAllowInputPassThrough
                0x00000000       0x18 build/default/production/_ext/1071800814/libaria_layer.o
 .text.laLayer_SetAllowInputPassthrough
                0x00000000       0x1c build/default/production/_ext/1071800814/libaria_layer.o
 .text.laLayer_IsDrawing
                0x00000000       0x20 build/default/production/_ext/1071800814/libaria_layer.o
 .text          0x00000000        0x0 build/default/production/_ext/1071800814/libaria_list.o
 .data          0x00000000        0x0 build/default/production/_ext/1071800814/libaria_list.o
 .bss           0x00000000        0x0 build/default/production/_ext/1071800814/libaria_list.o
 .reginfo       0x00000000       0x18 build/default/production/_ext/1071800814/libaria_list.o
 .text.laList_Create
                0x00000000       0x24 build/default/production/_ext/1071800814/libaria_list.o
 .text.laList_Assign
                0x00000000       0x5c build/default/production/_ext/1071800814/libaria_list.o
 .text.laList_PushFront
                0x00000000       0x9c build/default/production/_ext/1071800814/libaria_list.o
 .text.laList_PopFront
                0x00000000       0x98 build/default/production/_ext/1071800814/libaria_list.o
 .text.laList_Get
                0x00000000       0x48 build/default/production/_ext/1071800814/libaria_list.o
 .text.laList_Find
                0x00000000       0x70 build/default/production/_ext/1071800814/libaria_list.o
 .text.laList_InsertAt
                0x00000000      0x114 build/default/production/_ext/1071800814/libaria_list.o
 .text.laList_RemoveAt
                0x00000000       0xdc build/default/production/_ext/1071800814/libaria_list.o
 .text.laList_Clear
                0x00000000       0x78 build/default/production/_ext/1071800814/libaria_list.o
 .text.laList_Copy
                0x00000000       0xc4 build/default/production/_ext/1071800814/libaria_list.o
 .text          0x00000000        0x0 build/default/production/_ext/1071800814/libaria_rectarray.o
 .data          0x00000000        0x0 build/default/production/_ext/1071800814/libaria_rectarray.o
 .bss           0x00000000        0x0 build/default/production/_ext/1071800814/libaria_rectarray.o
 .reginfo       0x00000000       0x18 build/default/production/_ext/1071800814/libaria_rectarray.o
 .text._shuffleRight
                0x00000000       0xb4 build/default/production/_ext/1071800814/libaria_rectarray.o
 .text.laRectArray_PushFront
                0x00000000       0xac build/default/production/_ext/1071800814/libaria_rectarray.o
 .text.laRectArray_PopFront
                0x00000000       0x48 build/default/production/_ext/1071800814/libaria_rectarray.o
 .text.laRectArray_PopBack
                0x00000000       0x34 build/default/production/_ext/1071800814/libaria_rectarray.o
 .text.laRectArray_InsertAt
                0x00000000       0xdc build/default/production/_ext/1071800814/libaria_rectarray.o
 .text          0x00000000        0x0 build/default/production/_ext/1071800814/libaria_scheme.o
 .data          0x00000000        0x0 build/default/production/_ext/1071800814/libaria_scheme.o
 .bss           0x00000000        0x0 build/default/production/_ext/1071800814/libaria_scheme.o
 .reginfo       0x00000000       0x18 build/default/production/_ext/1071800814/libaria_scheme.o
 .text          0x00000000        0x0 build/default/production/_ext/1071800814/libaria_screen.o
 .data          0x00000000        0x0 build/default/production/_ext/1071800814/libaria_screen.o
 .bss           0x00000000        0x0 build/default/production/_ext/1071800814/libaria_screen.o
 .reginfo       0x00000000       0x18 build/default/production/_ext/1071800814/libaria_screen.o
 .text.laScreen_Delete
                0x00000000       0xa4 build/default/production/_ext/1071800814/libaria_screen.o
 .text.laScreen_Show
                0x00000000      0x108 build/default/production/_ext/1071800814/libaria_screen.o
 .text.laScreen_Hide
                0x00000000       0xe4 build/default/production/_ext/1071800814/libaria_screen.o
 .text.laScreen_GetOrientation
                0x00000000       0x18 build/default/production/_ext/1071800814/libaria_screen.o
 .text.laScreen_SetOrientation
                0x00000000       0x1c build/default/production/_ext/1071800814/libaria_screen.o
 .text.laScreen_GetMirrored
                0x00000000       0x18 build/default/production/_ext/1071800814/libaria_screen.o
 .text.laScreen_SetMirrored
                0x00000000       0x1c build/default/production/_ext/1071800814/libaria_screen.o
 .text.laScreen_GetLayerSwapSync
                0x00000000       0x18 build/default/production/_ext/1071800814/libaria_screen.o
 .text.laScreen_SetLayerSwapSync
                0x00000000       0x1c build/default/production/_ext/1071800814/libaria_screen.o
 .text.laScreen_GetShowEventCallback
                0x00000000       0x18 build/default/production/_ext/1071800814/libaria_screen.o
 .text.laScreen_SetShowEventCallback
                0x00000000       0x1c build/default/production/_ext/1071800814/libaria_screen.o
 .text.laScreen_GetHideEventCallback
                0x00000000       0x18 build/default/production/_ext/1071800814/libaria_screen.o
 .text.laScreen_SetHideEventCallback
                0x00000000       0x1c build/default/production/_ext/1071800814/libaria_screen.o
 .text          0x00000000        0x0 build/default/production/_ext/1071800814/libaria_string.o
 .data          0x00000000        0x0 build/default/production/_ext/1071800814/libaria_string.o
 .bss           0x00000000        0x0 build/default/production/_ext/1071800814/libaria_string.o
 .reginfo       0x00000000       0x18 build/default/production/_ext/1071800814/libaria_string.o
 .text.la_strlen
                0x00000000       0x34 build/default/production/_ext/1071800814/libaria_string.o
 .text.la_strcpy
                0x00000000       0x48 build/default/production/_ext/1071800814/libaria_string.o
 .text.la_strcmp
                0x00000000       0xf4 build/default/production/_ext/1071800814/libaria_string.o
 .text.laString_Delete
                0x00000000       0x7c build/default/production/_ext/1071800814/libaria_string.o
 .text.laString_CreateFromID
                0x00000000       0x70 build/default/production/_ext/1071800814/libaria_string.o
 .text.laString_Allocate
                0x00000000       0xb4 build/default/production/_ext/1071800814/libaria_string.o
 .text.laString_CreateFromCharBuffer
                0x00000000      0x178 build/default/production/_ext/1071800814/libaria_string.o
 .text.laString_Set
                0x00000000       0xc8 build/default/production/_ext/1071800814/libaria_string.o
 .text.laString_CreateFromBuffer
                0x00000000       0xc4 build/default/production/_ext/1071800814/libaria_string.o
 .text.laString_Destroy
                0x00000000       0x6c build/default/production/_ext/1071800814/libaria_string.o
 .text.laString_Copy
                0x00000000       0xf0 build/default/production/_ext/1071800814/libaria_string.o
 .text.laString_New
                0x00000000       0x6c build/default/production/_ext/1071800814/libaria_string.o
 .text.laString_ExtractFromTable
                0x00000000       0xe0 build/default/production/_ext/1071800814/libaria_string.o
 .text.laString_CharAt
                0x00000000       0x8c build/default/production/_ext/1071800814/libaria_string.o
 .text.laString_Length
                0x00000000       0x6c build/default/production/_ext/1071800814/libaria_string.o
 .text.laString_ReduceLength
                0x00000000       0x3c build/default/production/_ext/1071800814/libaria_string.o
 .text.laString_Capacity
                0x00000000       0x18 build/default/production/_ext/1071800814/libaria_string.o
 .text.laString_SetCapacity
                0x00000000      0x124 build/default/production/_ext/1071800814/libaria_string.o
 .text.laString_Compare
                0x00000000       0xfc build/default/production/_ext/1071800814/libaria_string.o
 .text.laString_CompareBuffer
                0x00000000       0x40 build/default/production/_ext/1071800814/libaria_string.o
 .text.laString_Append
                0x00000000      0x1fc build/default/production/_ext/1071800814/libaria_string.o
 .text.laString_Insert
                0x00000000      0x198 build/default/production/_ext/1071800814/libaria_string.o
 .text.laString_Remove
                0x00000000       0x6c build/default/production/_ext/1071800814/libaria_string.o
 .text.laString_Clear
                0x00000000       0x2c build/default/production/_ext/1071800814/libaria_string.o
 .text.laString_ToCharBuffer
                0x00000000       0x74 build/default/production/_ext/1071800814/libaria_string.o
 .text.laString_GetRect
                0x00000000       0xac build/default/production/_ext/1071800814/libaria_string.o
 .text.laString_GetLineRect
                0x00000000       0xc0 build/default/production/_ext/1071800814/libaria_string.o
 .text.laString_GetHeight
                0x00000000       0x7c build/default/production/_ext/1071800814/libaria_string.o
 .text.laString_GetAscent
                0x00000000       0x7c build/default/production/_ext/1071800814/libaria_string.o
 .text.laString_GetMultiLineRect
                0x00000000       0xbc build/default/production/_ext/1071800814/libaria_string.o
 .text.laString_GetCharOffset
                0x00000000       0x90 build/default/production/_ext/1071800814/libaria_string.o
 .text.laString_GetCharWidth
                0x00000000       0xc0 build/default/production/_ext/1071800814/libaria_string.o
 .text.laString_GetCharIndexAtPoint
                0x00000000       0xcc build/default/production/_ext/1071800814/libaria_string.o
 .text.laString_Draw
                0x00000000       0xe4 build/default/production/_ext/1071800814/libaria_string.o
 .text.laString_DrawClipped
                0x00000000      0x124 build/default/production/_ext/1071800814/libaria_string.o
 .text.laString_DrawSubStringClipped
                0x00000000      0x144 build/default/production/_ext/1071800814/libaria_string.o
 .text.laString_IsEmpty
                0x00000000       0x2c build/default/production/_ext/1071800814/libaria_string.o
 .text          0x00000000        0x0 build/default/production/_ext/1071800814/libaria_utils.o
 .data          0x00000000        0x0 build/default/production/_ext/1071800814/libaria_utils.o
 .bss           0x00000000        0x0 build/default/production/_ext/1071800814/libaria_utils.o
 .reginfo       0x00000000       0x18 build/default/production/_ext/1071800814/libaria_utils.o
 .text.orient_0
                0x00000000       0x18 build/default/production/_ext/1071800814/libaria_utils.o
 .text.orient_90
                0x00000000       0x24 build/default/production/_ext/1071800814/libaria_utils.o
 .text.orient_180
                0x00000000       0x30 build/default/production/_ext/1071800814/libaria_utils.o
 .text.orient_270
                0x00000000       0x24 build/default/production/_ext/1071800814/libaria_utils.o
 .text.mirror_0
                0x00000000       0x24 build/default/production/_ext/1071800814/libaria_utils.o
 .text.mirror_90
                0x00000000       0x24 build/default/production/_ext/1071800814/libaria_utils.o
 .text.mirror_180
                0x00000000       0x24 build/default/production/_ext/1071800814/libaria_utils.o
 .text.mirror_270
                0x00000000       0x24 build/default/production/_ext/1071800814/libaria_utils.o
 .text.laUtils_Pick
                0x00000000       0xe4 build/default/production/_ext/1071800814/libaria_utils.o
 .text.laUtils_PointToLayerSpace
                0x00000000       0x5c build/default/production/_ext/1071800814/libaria_utils.o
 .text.laUtils_PointScreenToLocalSpace
                0x00000000       0x70 build/default/production/_ext/1071800814/libaria_utils.o
 .text.laUtils_ClipRectToParent
                0x00000000       0x94 build/default/production/_ext/1071800814/libaria_utils.o
 .text.laUtils_RectToParentSpace
                0x00000000       0x48 build/default/production/_ext/1071800814/libaria_utils.o
 .text.laUtils_RectFromParentSpace
                0x00000000       0x48 build/default/production/_ext/1071800814/libaria_utils.o
 .text.laUtils_RectFromLayerSpace
                0x00000000       0x70 build/default/production/_ext/1071800814/libaria_utils.o
 .text.laUtils_RectToScreenSpace
                0x00000000       0x44 build/default/production/_ext/1071800814/libaria_utils.o
 .text.laUtils_ArrangeRectangle
                0x00000000      0x1fc build/default/production/_ext/1071800814/libaria_utils.o
 .text.laUtils_ArrangeRectangleRelative
                0x00000000      0x28c build/default/production/_ext/1071800814/libaria_utils.o
 .text._occlusionCullTestAscending
                0x00000000      0x10c build/default/production/_ext/1071800814/libaria_utils.o
 .text.laUtils_OcclusionCullTest
                0x00000000       0xe4 build/default/production/_ext/1071800814/libaria_utils.o
 .text.laUtils_ListOcclusionCullTest
                0x00000000      0x174 build/default/production/_ext/1071800814/libaria_utils.o
 .text.laUtils_ScreenToOrientedSpace
                0x00000000       0x3c build/default/production/_ext/1071800814/libaria_utils.o
 .text.laUtils_ScreenToMirroredSpace
                0x00000000       0x3c build/default/production/_ext/1071800814/libaria_utils.o
 .rodata        0x00000000       0x20 build/default/production/_ext/1071800814/libaria_utils.o
 .text          0x00000000        0x0 build/default/production/_ext/1071800814/libaria_widget.o
 .data          0x00000000        0x0 build/default/production/_ext/1071800814/libaria_widget.o
 .bss           0x00000000        0x0 build/default/production/_ext/1071800814/libaria_widget.o
 .reginfo       0x00000000       0x18 build/default/production/_ext/1071800814/libaria_widget.o
 .text.isAncestorOf
                0x00000000       0x64 build/default/production/_ext/1071800814/libaria_widget.o
 .text.laWidget_New
                0x00000000       0x58 build/default/production/_ext/1071800814/libaria_widget.o
 .text.laWidget_Delete
                0x00000000       0x54 build/default/production/_ext/1071800814/libaria_widget.o
 .text._laWidget_Update
                0x00000000        0x8 build/default/production/_ext/1071800814/libaria_widget.o
 .text.laWidget_GetEnabled
                0x00000000       0x18 build/default/production/_ext/1071800814/libaria_widget.o
 .text.laWidget_GetVisible
                0x00000000       0x18 build/default/production/_ext/1071800814/libaria_widget.o
 .text.laWidget_GetX
                0x00000000       0x18 build/default/production/_ext/1071800814/libaria_widget.o
 .text.laWidget_GetY
                0x00000000       0x18 build/default/production/_ext/1071800814/libaria_widget.o
 .text.laWidget_GetWidth
                0x00000000       0x18 build/default/production/_ext/1071800814/libaria_widget.o
 .text.laWidget_GetHeight
                0x00000000       0x18 build/default/production/_ext/1071800814/libaria_widget.o
 .text.laWidget_GetAlphaEnable
                0x00000000       0x18 build/default/production/_ext/1071800814/libaria_widget.o
 .text.laWidget_GetAlphaAmount
                0x00000000       0x18 build/default/production/_ext/1071800814/libaria_widget.o
 .text.laWidget_isOpaque
                0x00000000       0x58 build/default/production/_ext/1071800814/libaria_widget.o
 .text.laWidget_RectToParentSpace
                0x00000000       0x6c build/default/production/_ext/1071800814/libaria_widget.o
 .text.laWidget_SetX
                0x00000000       0xd8 build/default/production/_ext/1071800814/libaria_widget.o
 .text.laWidget_SetY
                0x00000000       0xd8 build/default/production/_ext/1071800814/libaria_widget.o
 .text.laWidget_Translate
                0x00000000      0x108 build/default/production/_ext/1071800814/libaria_widget.o
 .text.laWidget_SetWidth
                0x00000000       0xd8 build/default/production/_ext/1071800814/libaria_widget.o
 .text.laWidget_SetHeight
                0x00000000       0xd8 build/default/production/_ext/1071800814/libaria_widget.o
 .text.laWidget_RectToScreenSpace
                0x00000000       0x8c build/default/production/_ext/1071800814/libaria_widget.o
 .text.laWidget_Resize
                0x00000000      0x124 build/default/production/_ext/1071800814/libaria_widget.o
 .text.laWidget_GetBorderType
                0x00000000       0x18 build/default/production/_ext/1071800814/libaria_widget.o
 .text.laWidget_SetBorderType
                0x00000000       0x4c build/default/production/_ext/1071800814/libaria_widget.o
 .text.laWidget_GetBackgroundType
                0x00000000       0x18 build/default/production/_ext/1071800814/libaria_widget.o
 .text.laWidget_GetOptimizationFlags
                0x00000000       0x18 build/default/production/_ext/1071800814/libaria_widget.o
 .text.laWidget_SetOptimizationFlags
                0x00000000       0x1c build/default/production/_ext/1071800814/libaria_widget.o
 .text.laWidget_GetMargins
                0x00000000       0x24 build/default/production/_ext/1071800814/libaria_widget.o
 .text.laWidget_GetCornerRadius
                0x00000000       0x18 build/default/production/_ext/1071800814/libaria_widget.o
 .text.laWidget_HasFocus
                0x00000000       0x40 build/default/production/_ext/1071800814/libaria_widget.o
 .text.laWidget_SetFocus
                0x00000000       0x1c build/default/production/_ext/1071800814/libaria_widget.o
 .text.laWidget_OverrideTouchDownEvent
                0x00000000       0x2c build/default/production/_ext/1071800814/libaria_widget.o
 .text.laWidget_OverrideTouchUpEvent
                0x00000000       0x2c build/default/production/_ext/1071800814/libaria_widget.o
 .text.laWidget_OverrideTouchMovedEvent
                0x00000000       0x2c build/default/production/_ext/1071800814/libaria_widget.o
 .text.laWidget_GetChildCount
                0x00000000       0x18 build/default/production/_ext/1071800814/libaria_widget.o
 .text.laWidget_GetScheme
                0x00000000       0x18 build/default/production/_ext/1071800814/libaria_widget.o
 .text.laWidget_SetEnabled
                0x00000000       0x60 build/default/production/_ext/1071800814/libaria_widget.o
 .text.laWidget_SetVisible
                0x00000000       0x48 build/default/production/_ext/1071800814/libaria_widget.o
 .text.laWidget_SetAlphaEnable
                0x00000000       0x60 build/default/production/_ext/1071800814/libaria_widget.o
 .text.laWidget_SetAlphaAmount
                0x00000000       0x68 build/default/production/_ext/1071800814/libaria_widget.o
 .text.laWidget_SetMargins
                0x00000000       0x6c build/default/production/_ext/1071800814/libaria_widget.o
 .text.laWidget_SetCornerRadius
                0x00000000       0x60 build/default/production/_ext/1071800814/libaria_widget.o
 .text.laWidget_RemoveChild
                0x00000000       0x64 build/default/production/_ext/1071800814/libaria_widget.o
 .text.laWidget_AddChild
                0x00000000       0xa0 build/default/production/_ext/1071800814/libaria_widget.o
 .text.laWidget_SetParent
                0x00000000       0x68 build/default/production/_ext/1071800814/libaria_widget.o
 .text.laWidget_SetScheme
                0x00000000       0x48 build/default/production/_ext/1071800814/libaria_widget.o
 .text          0x00000000        0x0 build/default/production/_ext/1071800814/libaria_widget_skin_classic.o
 .data          0x00000000        0x0 build/default/production/_ext/1071800814/libaria_widget_skin_classic.o
 .bss           0x00000000        0x0 build/default/production/_ext/1071800814/libaria_widget_skin_classic.o
 .reginfo       0x00000000       0x18 build/default/production/_ext/1071800814/libaria_widget_skin_classic.o
 .text          0x00000000        0x0 build/default/production/_ext/1071800814/libaria_widget_skin_classic_common.o
 .data          0x00000000        0x0 build/default/production/_ext/1071800814/libaria_widget_skin_classic_common.o
 .bss           0x00000000        0x0 build/default/production/_ext/1071800814/libaria_widget_skin_classic_common.o
 .reginfo       0x00000000       0x18 build/default/production/_ext/1071800814/libaria_widget_skin_classic_common.o
 .text.laWidget_SkinClassic_Draw1x2BeveledBorder
                0x00000000       0x90 build/default/production/_ext/1071800814/libaria_widget_skin_classic_common.o
 .text.laWidget_SkinClassic_DrawStandardBackground
                0x00000000       0x54 build/default/production/_ext/1071800814/libaria_widget_skin_classic_common.o
 .text.laWidget_SkinClassic_DrawStandardRoundCornerLineBorder
                0x00000000       0x64 build/default/production/_ext/1071800814/libaria_widget_skin_classic_common.o
 .text.laWidget_SkinClassic_DrawStandardLoweredBorder
                0x00000000       0x70 build/default/production/_ext/1071800814/libaria_widget_skin_classic_common.o
 .text.laWidget_SkinClassic_DrawStandardHybridBorder
                0x00000000       0x6c build/default/production/_ext/1071800814/libaria_widget_skin_classic_common.o
 .text          0x00000000        0x0 build/default/production/_ext/1071800814/libaria_widget_arc.o
 .data          0x00000000        0x0 build/default/production/_ext/1071800814/libaria_widget_arc.o
 .bss           0x00000000        0x0 build/default/production/_ext/1071800814/libaria_widget_arc.o
 .reginfo       0x00000000       0x18 build/default/production/_ext/1071800814/libaria_widget_arc.o
 .text._laArcWidget_Destructor
                0x00000000       0x1c build/default/production/_ext/1071800814/libaria_widget_arc.o
 .text._laArcWidget_Constructor
                0x00000000       0x7c build/default/production/_ext/1071800814/libaria_widget_arc.o
 .text.laArcWidget_New
                0x00000000       0x58 build/default/production/_ext/1071800814/libaria_widget_arc.o
 .text.laArcWidget_GetRadius
                0x00000000       0x18 build/default/production/_ext/1071800814/libaria_widget_arc.o
 .text.laArcWidget_SetRadius
                0x00000000       0x44 build/default/production/_ext/1071800814/libaria_widget_arc.o
 .text.laArcWidget_GetStartAngle
                0x00000000       0x18 build/default/production/_ext/1071800814/libaria_widget_arc.o
 .text.laArcWidget_SetStartAngle
                0x00000000       0x44 build/default/production/_ext/1071800814/libaria_widget_arc.o
 .text.laArcWidget_GetThickness
                0x00000000       0x18 build/default/production/_ext/1071800814/libaria_widget_arc.o
 .text.laArcWidget_SetThickness
                0x00000000       0x5c build/default/production/_ext/1071800814/libaria_widget_arc.o
 .text.laArcWidget_GetCenterAngle
                0x00000000       0x18 build/default/production/_ext/1071800814/libaria_widget_arc.o
 .text.laArcWidget_SetCenterAngle
                0x00000000       0x44 build/default/production/_ext/1071800814/libaria_widget_arc.o
 .text.laArcWidget_GetRoundEdge
                0x00000000       0x18 build/default/production/_ext/1071800814/libaria_widget_arc.o
 .text.laArcWidget_SetRoundEdge
                0x00000000       0x1c build/default/production/_ext/1071800814/libaria_widget_arc.o
 .text          0x00000000        0x0 build/default/production/_ext/1071800814/libaria_widget_arc_skin_classic.o
 .data          0x00000000        0x0 build/default/production/_ext/1071800814/libaria_widget_arc_skin_classic.o
 .bss           0x00000000        0x0 build/default/production/_ext/1071800814/libaria_widget_arc_skin_classic.o
 .reginfo       0x00000000       0x18 build/default/production/_ext/1071800814/libaria_widget_arc_skin_classic.o
 .text.nextState
                0x00000000       0xa8 build/default/production/_ext/1071800814/libaria_widget_arc_skin_classic.o
 .text.drawBorder
                0x00000000       0x58 build/default/production/_ext/1071800814/libaria_widget_arc_skin_classic.o
 .text._laArcWidget_GetMidPointAtAngle
                0x00000000       0xd8 build/default/production/_ext/1071800814/libaria_widget_arc_skin_classic.o
 .text.drawArc  0x00000000      0x1cc build/default/production/_ext/1071800814/libaria_widget_arc_skin_classic.o
 .text.drawBackground
                0x00000000       0x2c build/default/production/_ext/1071800814/libaria_widget_arc_skin_classic.o
 .text._laArcWidget_Paint
                0x00000000       0x9c build/default/production/_ext/1071800814/libaria_widget_arc_skin_classic.o
 .text          0x00000000        0x0 build/default/production/_ext/1071800814/libaria_widget_bar_graph.o
 .data          0x00000000        0x0 build/default/production/_ext/1071800814/libaria_widget_bar_graph.o
 .bss           0x00000000        0x0 build/default/production/_ext/1071800814/libaria_widget_bar_graph.o
 .reginfo       0x00000000       0x18 build/default/production/_ext/1071800814/libaria_widget_bar_graph.o
 .text._laBarGraphWidget_Constructor
                0x00000000       0xb8 build/default/production/_ext/1071800814/libaria_widget_bar_graph.o
 .text.laBarGraphWidget_New
                0x00000000       0x58 build/default/production/_ext/1071800814/libaria_widget_bar_graph.o
 .text.laBarGraphWidget_GetTickLength
                0x00000000       0x18 build/default/production/_ext/1071800814/libaria_widget_bar_graph.o
 .text.laBarGraphWidget_SetTickLength
                0x00000000       0x44 build/default/production/_ext/1071800814/libaria_widget_bar_graph.o
 .text.laBarGraphWidget_GetStacked
                0x00000000       0x18 build/default/production/_ext/1071800814/libaria_widget_bar_graph.o
 .text.laBarGraphWidget_SetStacked
                0x00000000       0x44 build/default/production/_ext/1071800814/libaria_widget_bar_graph.o
 .text.laBarGraphWidget_GetMaxValue
                0x00000000       0x18 build/default/production/_ext/1071800814/libaria_widget_bar_graph.o
 .text.laBarGraphWidget_SetMaxValue
                0x00000000       0x5c build/default/production/_ext/1071800814/libaria_widget_bar_graph.o
 .text.laBarGraphWidget_GetMinValue
                0x00000000       0x18 build/default/production/_ext/1071800814/libaria_widget_bar_graph.o
 .text.laBarGraphWidget_SetMinValue
                0x00000000       0x5c build/default/production/_ext/1071800814/libaria_widget_bar_graph.o
 .text.laBarGraphWidget_GetValueAxisLabelsVisible
                0x00000000       0x18 build/default/production/_ext/1071800814/libaria_widget_bar_graph.o
 .text.laBarGraphWidget_SetValueAxisLabelsVisible
                0x00000000       0x44 build/default/production/_ext/1071800814/libaria_widget_bar_graph.o
 .text.laBarGraphWidget_GetFillGraphArea
                0x00000000       0x18 build/default/production/_ext/1071800814/libaria_widget_bar_graph.o
 .text.laBarGraphWidget_SetFillGraphArea
                0x00000000       0x44 build/default/production/_ext/1071800814/libaria_widget_bar_graph.o
 .text.laBarGraphWidget_GetGridlinesVisible
                0x00000000       0x18 build/default/production/_ext/1071800814/libaria_widget_bar_graph.o
 .text.laBarGraphWidget_SetGridlinesVisible
                0x00000000       0x44 build/default/production/_ext/1071800814/libaria_widget_bar_graph.o
 .text.laBarGraphWidget_GetValueAxisTicksVisible
                0x00000000       0x18 build/default/production/_ext/1071800814/libaria_widget_bar_graph.o
 .text.laBarGraphWidget_SetValueAxisTicksVisible
                0x00000000       0x44 build/default/production/_ext/1071800814/libaria_widget_bar_graph.o
 .text.laBarGraphWidget_GetValueAxisTickInterval
                0x00000000       0x18 build/default/production/_ext/1071800814/libaria_widget_bar_graph.o
 .text.laBarGraphWidget_SetValueAxisTickInterval
                0x00000000       0x44 build/default/production/_ext/1071800814/libaria_widget_bar_graph.o
 .text.laBarGraphWidget_GetValueAxisSubtickInterval
                0x00000000       0x18 build/default/production/_ext/1071800814/libaria_widget_bar_graph.o
 .text.laBarGraphWidget_SetValueAxisSubtickInterval
                0x00000000       0x44 build/default/production/_ext/1071800814/libaria_widget_bar_graph.o
 .text.laBarGraphWidget_GetValueAxisSubticksVisible
                0x00000000       0x18 build/default/production/_ext/1071800814/libaria_widget_bar_graph.o
 .text.laBarGraphWidget_SetValueAxisSubticksVisible
                0x00000000       0x44 build/default/production/_ext/1071800814/libaria_widget_bar_graph.o
 .text.laBarGraphWidget_GetCategoryAxisTicksVisible
                0x00000000       0x18 build/default/production/_ext/1071800814/libaria_widget_bar_graph.o
 .text.laBarGraphWidget_SetCategoryAxisTicksVisible
                0x00000000       0x44 build/default/production/_ext/1071800814/libaria_widget_bar_graph.o
 .text.laBarGraphWidget_AddCategory
                0x00000000       0x90 build/default/production/_ext/1071800814/libaria_widget_bar_graph.o
 .text.laBarGraphWidget_GetCategoryText
                0x00000000       0x6c build/default/production/_ext/1071800814/libaria_widget_bar_graph.o
 .text.laBarGraphWidget_SetCategoryText
                0x00000000       0x8c build/default/production/_ext/1071800814/libaria_widget_bar_graph.o
 .text.laBarGraphWidget_AddSeries
                0x00000000       0x9c build/default/production/_ext/1071800814/libaria_widget_bar_graph.o
 .text.laBarGraphWidget_AddDataToSeries
                0x00000000       0xc8 build/default/production/_ext/1071800814/libaria_widget_bar_graph.o
 .text.laBarGraphWidget_SetDataInSeries
                0x00000000       0xa0 build/default/production/_ext/1071800814/libaria_widget_bar_graph.o
 .text.laBarGraphWidget_GetSeriesScheme
                0x00000000       0x54 build/default/production/_ext/1071800814/libaria_widget_bar_graph.o
 .text.laBarGraphWidget_SetSeriesScheme
                0x00000000       0x84 build/default/production/_ext/1071800814/libaria_widget_bar_graph.o
 .text.laBarGraphWidget_DestroyAll
                0x00000000       0xe4 build/default/production/_ext/1071800814/libaria_widget_bar_graph.o
 .text._laBarGraphWidget_Destructor
                0x00000000       0x2c build/default/production/_ext/1071800814/libaria_widget_bar_graph.o
 .text.laBarGraphWidget_SetStringTable
                0x00000000       0x48 build/default/production/_ext/1071800814/libaria_widget_bar_graph.o
 .text.laBarGraphWidget_SetTicksLabelsStringID
                0x00000000       0x44 build/default/production/_ext/1071800814/libaria_widget_bar_graph.o
 .text.laBarGraphWidget_GetCategoryAxisLabelsVisible
                0x00000000       0x18 build/default/production/_ext/1071800814/libaria_widget_bar_graph.o
 .text.laBarGraphWidget_SetCategoryAxisLabelsVisible
                0x00000000       0x44 build/default/production/_ext/1071800814/libaria_widget_bar_graph.o
 .text.laBarGraphWidget_GetValueAxisTicksPosition
                0x00000000       0x18 build/default/production/_ext/1071800814/libaria_widget_bar_graph.o
 .text.laBarGraphWidget_SetValueAxisTicksPosition
                0x00000000       0x44 build/default/production/_ext/1071800814/libaria_widget_bar_graph.o
 .text.laBarGraphWidget_GetValueAxisSubticksPosition
                0x00000000       0x18 build/default/production/_ext/1071800814/libaria_widget_bar_graph.o
 .text.laBarGraphWidget_SetValueAxisSubticksPosition
                0x00000000       0x44 build/default/production/_ext/1071800814/libaria_widget_bar_graph.o
 .text.laBarGraphWidget_GetCategoryAxisTicksPosition
                0x00000000       0x18 build/default/production/_ext/1071800814/libaria_widget_bar_graph.o
 .text.laBarGraphWidget_SetCategoryAxisTicksPosition
                0x00000000       0x44 build/default/production/_ext/1071800814/libaria_widget_bar_graph.o
 .text          0x00000000        0x0 build/default/production/_ext/1071800814/libaria_widget_bar_graph_skin_classic.o
 .data          0x00000000        0x0 build/default/production/_ext/1071800814/libaria_widget_bar_graph_skin_classic.o
 .bss           0x00000000        0x0 build/default/production/_ext/1071800814/libaria_widget_bar_graph_skin_classic.o
 .reginfo       0x00000000       0x18 build/default/production/_ext/1071800814/libaria_widget_bar_graph_skin_classic.o
 .text.nextState
                0x00000000       0xd4 build/default/production/_ext/1071800814/libaria_widget_bar_graph_skin_classic.o
 .text.waitString
                0x00000000       0x68 build/default/production/_ext/1071800814/libaria_widget_bar_graph_skin_classic.o
 .text.drawBorder
                0x00000000       0x58 build/default/production/_ext/1071800814/libaria_widget_bar_graph_skin_classic.o
 .rodata        0x00000000        0x4 build/default/production/_ext/1071800814/libaria_widget_bar_graph_skin_classic.o
 .text._laBarGraphWidget_GetGraphRect
                0x00000000      0x458 build/default/production/_ext/1071800814/libaria_widget_bar_graph_skin_classic.o
 .text.drawString
                0x00000000      0x27c build/default/production/_ext/1071800814/libaria_widget_bar_graph_skin_classic.o
 .text.drawTickLabelWithValue
                0x00000000      0x208 build/default/production/_ext/1071800814/libaria_widget_bar_graph_skin_classic.o
 .text.drawBarGraph
                0x00000000      0xdc0 build/default/production/_ext/1071800814/libaria_widget_bar_graph_skin_classic.o
 .text.drawBackground
                0x00000000       0x2c build/default/production/_ext/1071800814/libaria_widget_bar_graph_skin_classic.o
 .text._laBarGraphWidget_Paint
                0x00000000       0x9c build/default/production/_ext/1071800814/libaria_widget_bar_graph_skin_classic.o
 .text          0x00000000        0x0 build/default/production/_ext/1071800814/libaria_widget_button.o
 .data          0x00000000        0x0 build/default/production/_ext/1071800814/libaria_widget_button.o
 .bss           0x00000000        0x0 build/default/production/_ext/1071800814/libaria_widget_button.o
 .reginfo       0x00000000       0x18 build/default/production/_ext/1071800814/libaria_widget_button.o
 .text.touchMoved
                0x00000000      0x1b4 build/default/production/_ext/1071800814/libaria_widget_button.o
 .text.touchUp  0x00000000      0x178 build/default/production/_ext/1071800814/libaria_widget_button.o
 .text.touchDown
                0x00000000       0xdc build/default/production/_ext/1071800814/libaria_widget_button.o
 .text.invalidateContents
                0x00000000       0xa4 build/default/production/_ext/1071800814/libaria_widget_button.o
 .text.languageChanging
                0x00000000       0x38 build/default/production/_ext/1071800814/libaria_widget_button.o
 .text._laButtonWidget_Destructor
                0x00000000       0x54 build/default/production/_ext/1071800814/libaria_widget_button.o
 .text._laButtonWidget_Constructor
                0x00000000       0xc8 build/default/production/_ext/1071800814/libaria_widget_button.o
 .text.laButtonWidget_New
                0x00000000       0x50 build/default/production/_ext/1071800814/libaria_widget_button.o
 .text.laButtonWidget_GetToggleable
                0x00000000       0x18 build/default/production/_ext/1071800814/libaria_widget_button.o
 .text.laButtonWidget_SetToggleable
                0x00000000       0x1c build/default/production/_ext/1071800814/libaria_widget_button.o
 .text.laButtonWidget_GetPressed
                0x00000000       0x20 build/default/production/_ext/1071800814/libaria_widget_button.o
 .text.laButtonWidget_SetPressed
                0x00000000      0x10c build/default/production/_ext/1071800814/libaria_widget_button.o
 .text.laButtonWidget_GetHAlignment
                0x00000000       0x18 build/default/production/_ext/1071800814/libaria_widget_button.o
 .text.laButtonWidget_SetHAlignment
                0x00000000       0x5c build/default/production/_ext/1071800814/libaria_widget_button.o
 .text.laButtonWidget_GetVAlignment
                0x00000000       0x18 build/default/production/_ext/1071800814/libaria_widget_button.o
 .text.laButtonWidget_SetVAlignment
                0x00000000       0x5c build/default/production/_ext/1071800814/libaria_widget_button.o
 .text.laButtonWidget_GetText
                0x00000000       0x34 build/default/production/_ext/1071800814/libaria_widget_button.o
 .text.laButtonWidget_SetText
                0x00000000       0x84 build/default/production/_ext/1071800814/libaria_widget_button.o
 .text.laButtonWidget_GetPressedImage
                0x00000000       0x18 build/default/production/_ext/1071800814/libaria_widget_button.o
 .text.laButtonWidget_SetPressedImage
                0x00000000       0x60 build/default/production/_ext/1071800814/libaria_widget_button.o
 .text.laButtonWidget_GetReleasedImage
                0x00000000       0x18 build/default/production/_ext/1071800814/libaria_widget_button.o
 .text.laButtonWidget_SetReleasedImage
                0x00000000       0x60 build/default/production/_ext/1071800814/libaria_widget_button.o
 .text.laButtonWidget_GetImagePosition
                0x00000000       0x18 build/default/production/_ext/1071800814/libaria_widget_button.o
 .text.laButtonWidget_SetImagePosition
                0x00000000       0x60 build/default/production/_ext/1071800814/libaria_widget_button.o
 .text.laButtonWidget_GetImageMargin
                0x00000000       0x18 build/default/production/_ext/1071800814/libaria_widget_button.o
 .text.laButtonWidget_SetImageMargin
                0x00000000       0x5c build/default/production/_ext/1071800814/libaria_widget_button.o
 .text.laButtonWidget_GetPressedOffset
                0x00000000       0x18 build/default/production/_ext/1071800814/libaria_widget_button.o
 .text.laButtonWidget_SetPressedOffset
                0x00000000       0x78 build/default/production/_ext/1071800814/libaria_widget_button.o
 .text.laButtonWidget_GetPressedEventCallback
                0x00000000       0x18 build/default/production/_ext/1071800814/libaria_widget_button.o
 .text.laButtonWidget_SetPressedEventCallback
                0x00000000       0x30 build/default/production/_ext/1071800814/libaria_widget_button.o
 .text.laButtonWidget_GetReleasedEventCallback
                0x00000000       0x18 build/default/production/_ext/1071800814/libaria_widget_button.o
 .text.laButtonWidget_SetReleasedEventCallback
                0x00000000       0x30 build/default/production/_ext/1071800814/libaria_widget_button.o
 .text          0x00000000        0x0 build/default/production/_ext/1071800814/libaria_widget_button_skin_classic.o
 .data          0x00000000        0x0 build/default/production/_ext/1071800814/libaria_widget_button_skin_classic.o
 .bss           0x00000000        0x0 build/default/production/_ext/1071800814/libaria_widget_button_skin_classic.o
 .reginfo       0x00000000       0x18 build/default/production/_ext/1071800814/libaria_widget_button_skin_classic.o
 .text.nextState
                0x00000000      0x124 build/default/production/_ext/1071800814/libaria_widget_button_skin_classic.o
 .text.waitString
                0x00000000       0x68 build/default/production/_ext/1071800814/libaria_widget_button_skin_classic.o
 .text.waitImage
                0x00000000       0x68 build/default/production/_ext/1071800814/libaria_widget_button_skin_classic.o
 .text.drawBorder
                0x00000000       0x74 build/default/production/_ext/1071800814/libaria_widget_button_skin_classic.o
 .text.drawBackground
                0x00000000       0x74 build/default/production/_ext/1071800814/libaria_widget_button_skin_classic.o
 .text._laButtonWidget_GetImageRect
                0x00000000      0x1a8 build/default/production/_ext/1071800814/libaria_widget_button_skin_classic.o
 .text.drawImage
                0x00000000      0x120 build/default/production/_ext/1071800814/libaria_widget_button_skin_classic.o
 .text._laButtonWidget_GetTextRect
                0x00000000      0x190 build/default/production/_ext/1071800814/libaria_widget_button_skin_classic.o
 .text.drawMultiLineString
                0x00000000      0x3fc build/default/production/_ext/1071800814/libaria_widget_button_skin_classic.o
 .text._laButtonWidget_InvalidateBorderAreas
                0x00000000      0x1d8 build/default/production/_ext/1071800814/libaria_widget_button_skin_classic.o
 .text._laButtonWidget_Paint
                0x00000000       0xb8 build/default/production/_ext/1071800814/libaria_widget_button_skin_classic.o
 .text          0x00000000        0x0 build/default/production/_ext/1071800814/libaria_widget_checkbox.o
 .data          0x00000000        0x0 build/default/production/_ext/1071800814/libaria_widget_checkbox.o
 .bss           0x00000000        0x0 build/default/production/_ext/1071800814/libaria_widget_checkbox.o
 .reginfo       0x00000000       0x18 build/default/production/_ext/1071800814/libaria_widget_checkbox.o
 .text._laCheckBoxWidget_TouchMovedEvent
                0x00000000        0xc build/default/production/_ext/1071800814/libaria_widget_checkbox.o
 .text.invalidateTextRect
                0x00000000       0x44 build/default/production/_ext/1071800814/libaria_widget_checkbox.o
 .text.languageChanging
                0x00000000       0x38 build/default/production/_ext/1071800814/libaria_widget_checkbox.o
 .text._laCheckBoxWidget_Destructor
                0x00000000       0x54 build/default/production/_ext/1071800814/libaria_widget_checkbox.o
 .text.invalidateImageRect
                0x00000000       0x44 build/default/production/_ext/1071800814/libaria_widget_checkbox.o
 .text.invalidateContents
                0x00000000       0x40 build/default/production/_ext/1071800814/libaria_widget_checkbox.o
 .text._laCheckBoxWidget_TouchDownEvent
                0x00000000       0x5c build/default/production/_ext/1071800814/libaria_widget_checkbox.o
 .text._laCheckBoxWidget_TouchUpEvent
                0x00000000       0xc0 build/default/production/_ext/1071800814/libaria_widget_checkbox.o
 .text._laCheckBoxWidget_Constructor
                0x00000000       0xb0 build/default/production/_ext/1071800814/libaria_widget_checkbox.o
 .text.laCheckBoxWidget_New
                0x00000000       0x58 build/default/production/_ext/1071800814/libaria_widget_checkbox.o
 .text.laButtonWidget_GetChecked
                0x00000000       0x18 build/default/production/_ext/1071800814/libaria_widget_checkbox.o
 .text.laCheckBoxWidget_SetChecked
                0x00000000       0x8c build/default/production/_ext/1071800814/libaria_widget_checkbox.o
 .text.laCheckBoxWidget_GetHAlignment
                0x00000000       0x18 build/default/production/_ext/1071800814/libaria_widget_checkbox.o
 .text.laCheckBoxWidget_SetHAlignment
                0x00000000       0x5c build/default/production/_ext/1071800814/libaria_widget_checkbox.o
 .text.laCheckBoxWidget_GetVAlignment
                0x00000000       0x18 build/default/production/_ext/1071800814/libaria_widget_checkbox.o
 .text.laCheckBoxWidget_SetVAlignment
                0x00000000       0x60 build/default/production/_ext/1071800814/libaria_widget_checkbox.o
 .text.laCheckBoxWidget_GetText
                0x00000000       0x34 build/default/production/_ext/1071800814/libaria_widget_checkbox.o
 .text.laCheckBoxWidget_SetText
                0x00000000       0x7c build/default/production/_ext/1071800814/libaria_widget_checkbox.o
 .text.laCheckBoxWidget_GetCheckedImage
                0x00000000       0x18 build/default/production/_ext/1071800814/libaria_widget_checkbox.o
 .text.laCheckBoxWidget_SetCheckedImage
                0x00000000       0x60 build/default/production/_ext/1071800814/libaria_widget_checkbox.o
 .text.laCheckBoxWidget_GetUncheckedImage
                0x00000000       0x18 build/default/production/_ext/1071800814/libaria_widget_checkbox.o
 .text.laCheckBoxWidget_SetUncheckedImage
                0x00000000       0x60 build/default/production/_ext/1071800814/libaria_widget_checkbox.o
 .text.laCheckBoxWidget_GetImagePosition
                0x00000000       0x18 build/default/production/_ext/1071800814/libaria_widget_checkbox.o
 .text.laCheckBoxWidget_SetImagePosition
                0x00000000       0x60 build/default/production/_ext/1071800814/libaria_widget_checkbox.o
 .text.laCheckBoxWidget_GetImageMargin
                0x00000000       0x18 build/default/production/_ext/1071800814/libaria_widget_checkbox.o
 .text.laCheckBoxWidget_SetImageMargin
                0x00000000       0x60 build/default/production/_ext/1071800814/libaria_widget_checkbox.o
 .text.laCheckBoxWidget_GetCheckedEventCallback
                0x00000000       0x18 build/default/production/_ext/1071800814/libaria_widget_checkbox.o
 .text.laCheckBoxWidget_SetCheckedEventCallback
                0x00000000       0x1c build/default/production/_ext/1071800814/libaria_widget_checkbox.o
 .text.laCheckBoxWidget_GetUncheckedEventCallback
                0x00000000       0x18 build/default/production/_ext/1071800814/libaria_widget_checkbox.o
 .text.laCheckBoxWidget_SetUncheckedEventCallback
                0x00000000       0x1c build/default/production/_ext/1071800814/libaria_widget_checkbox.o
 .text          0x00000000        0x0 build/default/production/_ext/1071800814/libaria_widget_checkbox_skin_classic.o
 .data          0x00000000        0x0 build/default/production/_ext/1071800814/libaria_widget_checkbox_skin_classic.o
 .bss           0x00000000        0x0 build/default/production/_ext/1071800814/libaria_widget_checkbox_skin_classic.o
 .reginfo       0x00000000       0x18 build/default/production/_ext/1071800814/libaria_widget_checkbox_skin_classic.o
 .text.nextState
                0x00000000      0x100 build/default/production/_ext/1071800814/libaria_widget_checkbox_skin_classic.o
 .text.waitString
                0x00000000       0x68 build/default/production/_ext/1071800814/libaria_widget_checkbox_skin_classic.o
 .text.waitImage
                0x00000000       0x68 build/default/production/_ext/1071800814/libaria_widget_checkbox_skin_classic.o
 .text.drawBorder
                0x00000000       0x58 build/default/production/_ext/1071800814/libaria_widget_checkbox_skin_classic.o
 .text.drawBackground
                0x00000000       0x2c build/default/production/_ext/1071800814/libaria_widget_checkbox_skin_classic.o
 .text._laCheckBoxWidget_GetImageRect
                0x00000000      0x198 build/default/production/_ext/1071800814/libaria_widget_checkbox_skin_classic.o
 .text.drawImage
                0x00000000      0x2ac build/default/production/_ext/1071800814/libaria_widget_checkbox_skin_classic.o
 .text._laCheckBoxWidget_GetTextRect
                0x00000000      0x184 build/default/production/_ext/1071800814/libaria_widget_checkbox_skin_classic.o
 .text.drawString
                0x00000000       0xe0 build/default/production/_ext/1071800814/libaria_widget_checkbox_skin_classic.o
 .text._laCheckBoxWidget_Paint
                0x00000000       0xb8 build/default/production/_ext/1071800814/libaria_widget_checkbox_skin_classic.o
 .text          0x00000000        0x0 build/default/production/_ext/1071800814/libaria_widget_circle.o
 .data          0x00000000        0x0 build/default/production/_ext/1071800814/libaria_widget_circle.o
 .bss           0x00000000        0x0 build/default/production/_ext/1071800814/libaria_widget_circle.o
 .reginfo       0x00000000       0x18 build/default/production/_ext/1071800814/libaria_widget_circle.o
 .text._laCircleWidget_Destructor
                0x00000000       0x1c build/default/production/_ext/1071800814/libaria_widget_circle.o
 .text._laCircleWidget_Constructor
                0x00000000       0x68 build/default/production/_ext/1071800814/libaria_widget_circle.o
 .text.laCircleWidget_New
                0x00000000       0x58 build/default/production/_ext/1071800814/libaria_widget_circle.o
 .text.laCircleWidget_GetOrigin
                0x00000000       0x48 build/default/production/_ext/1071800814/libaria_widget_circle.o
 .text.laCircleWidget_SetOrigin
                0x00000000       0x48 build/default/production/_ext/1071800814/libaria_widget_circle.o
 .text.laCircleWidget_GetRadius
                0x00000000       0x18 build/default/production/_ext/1071800814/libaria_widget_circle.o
 .text.laCircleWidget_SetRadius
                0x00000000       0x44 build/default/production/_ext/1071800814/libaria_widget_circle.o
 .text          0x00000000        0x0 build/default/production/_ext/1071800814/libaria_widget_circle_skin_classic.o
 .data          0x00000000        0x0 build/default/production/_ext/1071800814/libaria_widget_circle_skin_classic.o
 .bss           0x00000000        0x0 build/default/production/_ext/1071800814/libaria_widget_circle_skin_classic.o
 .reginfo       0x00000000       0x18 build/default/production/_ext/1071800814/libaria_widget_circle_skin_classic.o
 .text.nextState
                0x00000000       0xa8 build/default/production/_ext/1071800814/libaria_widget_circle_skin_classic.o
 .text.drawBorder
                0x00000000       0x58 build/default/production/_ext/1071800814/libaria_widget_circle_skin_classic.o
 .text.drawCircle
                0x00000000       0xe8 build/default/production/_ext/1071800814/libaria_widget_circle_skin_classic.o
 .text.drawBackground
                0x00000000       0x2c build/default/production/_ext/1071800814/libaria_widget_circle_skin_classic.o
 .text._laCircleWidget_Paint
                0x00000000       0x9c build/default/production/_ext/1071800814/libaria_widget_circle_skin_classic.o
 .text          0x00000000        0x0 build/default/production/_ext/1071800814/libaria_widget_circular_gauge.o
 .data          0x00000000        0x0 build/default/production/_ext/1071800814/libaria_widget_circular_gauge.o
 .bss           0x00000000        0x0 build/default/production/_ext/1071800814/libaria_widget_circular_gauge.o
 .reginfo       0x00000000       0x18 build/default/production/_ext/1071800814/libaria_widget_circular_gauge.o
 .text._laCircularGaugeWidget_Destructor
                0x00000000       0x40 build/default/production/_ext/1071800814/libaria_widget_circular_gauge.o
 .text._laCircularGaugeWidget_Constructor
                0x00000000       0xd0 build/default/production/_ext/1071800814/libaria_widget_circular_gauge.o
 .text.laCircularGaugeWidget_New
                0x00000000       0x58 build/default/production/_ext/1071800814/libaria_widget_circular_gauge.o
 .text.laCircularGaugeWidget_GetRadius
                0x00000000       0x18 build/default/production/_ext/1071800814/libaria_widget_circular_gauge.o
 .text.laCircularGaugeWidget_SetRadius
                0x00000000       0x44 build/default/production/_ext/1071800814/libaria_widget_circular_gauge.o
 .text.laCircularGaugeWidget_GetStartAngle
                0x00000000       0x18 build/default/production/_ext/1071800814/libaria_widget_circular_gauge.o
 .text.laCircularGaugeWidget_SetStartAngle
                0x00000000       0x44 build/default/production/_ext/1071800814/libaria_widget_circular_gauge.o
 .text.laCircularGaugeWidget_GetCenterAngle
                0x00000000       0x18 build/default/production/_ext/1071800814/libaria_widget_circular_gauge.o
 .text.laCircularGaugeWidget_SetCenterAngle
                0x00000000       0x70 build/default/production/_ext/1071800814/libaria_widget_circular_gauge.o
 .text.laCircularGaugeWidget_GetDirection
                0x00000000       0x18 build/default/production/_ext/1071800814/libaria_widget_circular_gauge.o
 .text.laCircularGaugeWidget_SetDirection
                0x00000000       0x44 build/default/production/_ext/1071800814/libaria_widget_circular_gauge.o
 .text.laCircularGaugeWidget_AddValueArc
                0x00000000       0xfc build/default/production/_ext/1071800814/libaria_widget_circular_gauge.o
 .text.laCircularGaugeWidget_AddAngularArc
                0x00000000       0xe8 build/default/production/_ext/1071800814/libaria_widget_circular_gauge.o
 .text.laCircularGaugeWidget_DeleteArcs
                0x00000000       0x34 build/default/production/_ext/1071800814/libaria_widget_circular_gauge.o
 .text.laCircularGaugeWidget_AddMinorTicks
                0x00000000      0x114 build/default/production/_ext/1071800814/libaria_widget_circular_gauge.o
 .text.laCircularGaugeWidget_DeleteMinorTicks
                0x00000000       0x34 build/default/production/_ext/1071800814/libaria_widget_circular_gauge.o
 .text.laCircularGaugeWidget_AddMinorTickLabels
                0x00000000      0x114 build/default/production/_ext/1071800814/libaria_widget_circular_gauge.o
 .text.laCircularGaugeWidget_DeleteMinorTickLabels
                0x00000000       0x34 build/default/production/_ext/1071800814/libaria_widget_circular_gauge.o
 .text.laCircularGaugeWidget_GetValue
                0x00000000       0x18 build/default/production/_ext/1071800814/libaria_widget_circular_gauge.o
 .text.laCircularGaugeWidget_SetValue
                0x00000000       0x78 build/default/production/_ext/1071800814/libaria_widget_circular_gauge.o
 .text.laCircularGaugeWidget_GetStartValue
                0x00000000       0x18 build/default/production/_ext/1071800814/libaria_widget_circular_gauge.o
 .text.laCircularGaugeWidget_SetStartValue
                0x00000000       0x44 build/default/production/_ext/1071800814/libaria_widget_circular_gauge.o
 .text.laCircularGaugeWidget_GetEndValue
                0x00000000       0x18 build/default/production/_ext/1071800814/libaria_widget_circular_gauge.o
 .text.laCircularGaugeWidget_SetEndValue
                0x00000000       0x44 build/default/production/_ext/1071800814/libaria_widget_circular_gauge.o
 .text.laCircularGaugeWidget_GetTicksVisible
                0x00000000       0x18 build/default/production/_ext/1071800814/libaria_widget_circular_gauge.o
 .text.laCircularGaugeWidget_SetTicksVisible
                0x00000000       0x44 build/default/production/_ext/1071800814/libaria_widget_circular_gauge.o
 .text.laCircularGaugeWidget_GetTickValue
                0x00000000       0x18 build/default/production/_ext/1071800814/libaria_widget_circular_gauge.o
 .text.laCircularGaugeWidget_SetTickValue
                0x00000000       0x44 build/default/production/_ext/1071800814/libaria_widget_circular_gauge.o
 .text.laCircularGaugeWidget_GetTickLength
                0x00000000       0x18 build/default/production/_ext/1071800814/libaria_widget_circular_gauge.o
 .text.laCircularGaugeWidget_SetTickLength
                0x00000000       0x60 build/default/production/_ext/1071800814/libaria_widget_circular_gauge.o
 .text.laCircularGaugeWidget_GetTickLabelsVisible
                0x00000000       0x18 build/default/production/_ext/1071800814/libaria_widget_circular_gauge.o
 .text.laCircularGaugeWidget_SetTickLabelsVisible
                0x00000000       0x44 build/default/production/_ext/1071800814/libaria_widget_circular_gauge.o
 .text.laCircularGaugeWidget_GetHandVisible
                0x00000000       0x18 build/default/production/_ext/1071800814/libaria_widget_circular_gauge.o
 .text.laCircularGaugeWidget_SetHandVisible
                0x00000000       0x44 build/default/production/_ext/1071800814/libaria_widget_circular_gauge.o
 .text.laCircularGaugeWidget_GetHandRadius
                0x00000000       0x18 build/default/production/_ext/1071800814/libaria_widget_circular_gauge.o
 .text.laCircularGaugeWidget_SetHandRadius
                0x00000000       0x60 build/default/production/_ext/1071800814/libaria_widget_circular_gauge.o
 .text.laCircularGaugeWidget_GetCenterCircleVisible
                0x00000000       0x18 build/default/production/_ext/1071800814/libaria_widget_circular_gauge.o
 .text.laCircularGaugeWidget_SetCenterCircleVisible
                0x00000000       0x44 build/default/production/_ext/1071800814/libaria_widget_circular_gauge.o
 .text.laCircularGaugeWidget_GetCenterCircleRadius
                0x00000000       0x18 build/default/production/_ext/1071800814/libaria_widget_circular_gauge.o
 .text.laCircularGaugeWidget_SetCenterCircleRadius
                0x00000000       0x60 build/default/production/_ext/1071800814/libaria_widget_circular_gauge.o
 .text.laCircularGaugeWidget_GetCenterCircleThickness
                0x00000000       0x18 build/default/production/_ext/1071800814/libaria_widget_circular_gauge.o
 .text.laCircularGaugeWidget_SetCenterCircleThickness
                0x00000000       0x5c build/default/production/_ext/1071800814/libaria_widget_circular_gauge.o
 .text.laCircularGaugeWidget_SetStringTable
                0x00000000       0x48 build/default/production/_ext/1071800814/libaria_widget_circular_gauge.o
 .text.laCircularGaugeWidget_SetTicksLabelsStringID
                0x00000000       0x44 build/default/production/_ext/1071800814/libaria_widget_circular_gauge.o
 .text.laCircularGaugeWidget_SetValueChangedEventCallback
                0x00000000       0x30 build/default/production/_ext/1071800814/libaria_widget_circular_gauge.o
 .text          0x00000000        0x0 build/default/production/_ext/1071800814/libaria_widget_circular_gauge_skin_classic.o
 .data          0x00000000        0x0 build/default/production/_ext/1071800814/libaria_widget_circular_gauge_skin_classic.o
 .bss           0x00000000        0x0 build/default/production/_ext/1071800814/libaria_widget_circular_gauge_skin_classic.o
 .reginfo       0x00000000       0x18 build/default/production/_ext/1071800814/libaria_widget_circular_gauge_skin_classic.o
 .text.nextState
                0x00000000       0xa8 build/default/production/_ext/1071800814/libaria_widget_circular_gauge_skin_classic.o
 .text.drawBorder
                0x00000000       0x58 build/default/production/_ext/1071800814/libaria_widget_circular_gauge_skin_classic.o
 .text.drawTicksAtAngle
                0x00000000      0x11c build/default/production/_ext/1071800814/libaria_widget_circular_gauge_skin_classic.o
 .text.drawBackground
                0x00000000       0x2c build/default/production/_ext/1071800814/libaria_widget_circular_gauge_skin_classic.o
 .rodata        0x00000000        0x4 build/default/production/_ext/1071800814/libaria_widget_circular_gauge_skin_classic.o
 .text.drawTickLabelsAtAngleWithValue
                0x00000000      0x62c build/default/production/_ext/1071800814/libaria_widget_circular_gauge_skin_classic.o
 .text.drawCircularGauge
                0x00000000      0x898 build/default/production/_ext/1071800814/libaria_widget_circular_gauge_skin_classic.o
 .text._laCircularGaugeWidget_Paint
                0x00000000       0x9c build/default/production/_ext/1071800814/libaria_widget_circular_gauge_skin_classic.o
 .text          0x00000000        0x0 build/default/production/_ext/1071800814/libaria_widget_circular_slider.o
 .data          0x00000000        0x0 build/default/production/_ext/1071800814/libaria_widget_circular_slider.o
 .bss           0x00000000        0x0 build/default/production/_ext/1071800814/libaria_widget_circular_slider.o
 .reginfo       0x00000000       0x18 build/default/production/_ext/1071800814/libaria_widget_circular_slider.o
 .text.touchUp  0x00000000       0x48 build/default/production/_ext/1071800814/libaria_widget_circular_slider.o
 .text.getSliderValueAtPoint
                0x00000000      0x308 build/default/production/_ext/1071800814/libaria_widget_circular_slider.o
 .text._laCircularSliderWidget_Destructor
                0x00000000       0x1c build/default/production/_ext/1071800814/libaria_widget_circular_slider.o
 .text._laCircularSliderWidget_GetCircleCenterPointAtValue
                0x00000000      0x188 build/default/production/_ext/1071800814/libaria_widget_circular_slider.o
 .text._laCircularSliderWidget_Constructor
                0x00000000      0x14c build/default/production/_ext/1071800814/libaria_widget_circular_slider.o
 .text.laCircularSliderWidget_New
                0x00000000       0x58 build/default/production/_ext/1071800814/libaria_widget_circular_slider.o
 .text.laCircularSliderWidget_GetRadius
                0x00000000       0x18 build/default/production/_ext/1071800814/libaria_widget_circular_slider.o
 .text.laCircularSliderWidget_SetRadius
                0x00000000       0x70 build/default/production/_ext/1071800814/libaria_widget_circular_slider.o
 .text.laCircularSliderWidget_GetStartAngle
                0x00000000       0x18 build/default/production/_ext/1071800814/libaria_widget_circular_slider.o
 .text.laCircularSliderWidget_SetStartAngle
                0x00000000       0x80 build/default/production/_ext/1071800814/libaria_widget_circular_slider.o
 .text.laCircularSliderWidget_GetStartValue
                0x00000000       0x18 build/default/production/_ext/1071800814/libaria_widget_circular_slider.o
 .text.laCircularSliderWidget_SetStartValue
                0x00000000       0x90 build/default/production/_ext/1071800814/libaria_widget_circular_slider.o
 .text.laCircularSliderWidget_GetEndValue
                0x00000000       0x18 build/default/production/_ext/1071800814/libaria_widget_circular_slider.o
 .text.laCircularSliderWidget_SetEndValue
                0x00000000       0x90 build/default/production/_ext/1071800814/libaria_widget_circular_slider.o
 .text.laCircularSliderWidget_GetValue
                0x00000000       0x18 build/default/production/_ext/1071800814/libaria_widget_circular_slider.o
 .text.laCircularSliderWidget_SetValue
                0x00000000       0x80 build/default/production/_ext/1071800814/libaria_widget_circular_slider.o
 .text.touchMoved
                0x00000000      0x138 build/default/production/_ext/1071800814/libaria_widget_circular_slider.o
 .text.touchDown
                0x00000000      0x1b0 build/default/production/_ext/1071800814/libaria_widget_circular_slider.o
 .text.laCircularSliderWidget_GetRoundEdges
                0x00000000       0x18 build/default/production/_ext/1071800814/libaria_widget_circular_slider.o
 .text.laCircularSliderWidget_SetRoundEdges
                0x00000000       0x44 build/default/production/_ext/1071800814/libaria_widget_circular_slider.o
 .text.laCircularSliderWidget_GetStickyButton
                0x00000000       0x18 build/default/production/_ext/1071800814/libaria_widget_circular_slider.o
 .text.laCircularSliderWidget_SetStickyButton
                0x00000000       0x30 build/default/production/_ext/1071800814/libaria_widget_circular_slider.o
 .text.laCircularSliderWidget_GetTouchOnButtonOnly
                0x00000000       0x18 build/default/production/_ext/1071800814/libaria_widget_circular_slider.o
 .text.laCircularSliderWidget_SetTouchOnButtonOnly
                0x00000000       0x30 build/default/production/_ext/1071800814/libaria_widget_circular_slider.o
 .text.laCircularSliderWidget_GetArcThickness
                0x00000000       0x78 build/default/production/_ext/1071800814/libaria_widget_circular_slider.o
 .text.laCircularSliderWidget_SetArcThickness
                0x00000000      0x110 build/default/production/_ext/1071800814/libaria_widget_circular_slider.o
 .text.laCircularSliderWidget_GetArcRadius
                0x00000000       0x2c build/default/production/_ext/1071800814/libaria_widget_circular_slider.o
 .text.laCircularSliderWidget_SetArcRadius
                0x00000000       0x74 build/default/production/_ext/1071800814/libaria_widget_circular_slider.o
 .text.laCircularSliderWidget_GetArcScheme
                0x00000000       0x2c build/default/production/_ext/1071800814/libaria_widget_circular_slider.o
 .text.laCircularSliderWidget_SetArcScheme
                0x00000000       0x48 build/default/production/_ext/1071800814/libaria_widget_circular_slider.o
 .text.laCircularSliderWidget_GetArcVisible
                0x00000000       0x78 build/default/production/_ext/1071800814/libaria_widget_circular_slider.o
 .text.laCircularSliderWidget_SetArcVisible
                0x00000000       0xcc build/default/production/_ext/1071800814/libaria_widget_circular_slider.o
 .text.laCircularSliderWidget_GetDirection
                0x00000000       0x18 build/default/production/_ext/1071800814/libaria_widget_circular_slider.o
 .text.laCircularSliderWidget_SetDirection
                0x00000000       0x44 build/default/production/_ext/1071800814/libaria_widget_circular_slider.o
 .text.laCircularSliderWidget_SetPressedEventCallback
                0x00000000       0x1c build/default/production/_ext/1071800814/libaria_widget_circular_slider.o
 .text.laCircularSliderWidget_SetValueChangedEventCallback
                0x00000000       0x1c build/default/production/_ext/1071800814/libaria_widget_circular_slider.o
 .text.laCircularSliderWidget_SetReleasedEventCallback
                0x00000000       0x1c build/default/production/_ext/1071800814/libaria_widget_circular_slider.o
 .rodata        0x00000000        0xc build/default/production/_ext/1071800814/libaria_widget_circular_slider.o
 .text          0x00000000        0x0 build/default/production/_ext/1071800814/libaria_widget_circular_slider_skin_classic.o
 .data          0x00000000        0x0 build/default/production/_ext/1071800814/libaria_widget_circular_slider_skin_classic.o
 .bss           0x00000000        0x0 build/default/production/_ext/1071800814/libaria_widget_circular_slider_skin_classic.o
 .reginfo       0x00000000       0x18 build/default/production/_ext/1071800814/libaria_widget_circular_slider_skin_classic.o
 .text.nextState
                0x00000000       0xa8 build/default/production/_ext/1071800814/libaria_widget_circular_slider_skin_classic.o
 .text.drawBorder
                0x00000000       0x58 build/default/production/_ext/1071800814/libaria_widget_circular_slider_skin_classic.o
 .text.drawCircularSlider
                0x00000000      0x584 build/default/production/_ext/1071800814/libaria_widget_circular_slider_skin_classic.o
 .text.drawBackground
                0x00000000       0x50 build/default/production/_ext/1071800814/libaria_widget_circular_slider_skin_classic.o
 .text._laCircularSliderWidget_Paint
                0x00000000       0x9c build/default/production/_ext/1071800814/libaria_widget_circular_slider_skin_classic.o
 .text          0x00000000        0x0 build/default/production/_ext/1071800814/libaria_widget_drawsurface.o
 .data          0x00000000        0x0 build/default/production/_ext/1071800814/libaria_widget_drawsurface.o
 .bss           0x00000000        0x0 build/default/production/_ext/1071800814/libaria_widget_drawsurface.o
 .reginfo       0x00000000       0x18 build/default/production/_ext/1071800814/libaria_widget_drawsurface.o
 .text._laDrawSurfaceWidget_Destructor
                0x00000000       0x1c build/default/production/_ext/1071800814/libaria_widget_drawsurface.o
 .text._laDrawSurfaceWidget_Constructor
                0x00000000       0x60 build/default/production/_ext/1071800814/libaria_widget_drawsurface.o
 .text.laDrawSurfaceWidget_New
                0x00000000       0x58 build/default/production/_ext/1071800814/libaria_widget_drawsurface.o
 .text.laDrawSurfaceWidget_GetDrawCallback
                0x00000000       0x18 build/default/production/_ext/1071800814/libaria_widget_drawsurface.o
 .text.laDrawSurfaceWidget_SetDrawCallback
                0x00000000       0x48 build/default/production/_ext/1071800814/libaria_widget_drawsurface.o
 .text          0x00000000        0x0 build/default/production/_ext/1071800814/libaria_widget_drawsurface_skin_classic.o
 .data          0x00000000        0x0 build/default/production/_ext/1071800814/libaria_widget_drawsurface_skin_classic.o
 .bss           0x00000000        0x0 build/default/production/_ext/1071800814/libaria_widget_drawsurface_skin_classic.o
 .reginfo       0x00000000       0x18 build/default/production/_ext/1071800814/libaria_widget_drawsurface_skin_classic.o
 .text.nextState
                0x00000000       0xa8 build/default/production/_ext/1071800814/libaria_widget_drawsurface_skin_classic.o
 .text.drawBorder
                0x00000000       0x58 build/default/production/_ext/1071800814/libaria_widget_drawsurface_skin_classic.o
 .text.drawCallback
                0x00000000       0x74 build/default/production/_ext/1071800814/libaria_widget_drawsurface_skin_classic.o
 .text.drawBackground
                0x00000000       0x2c build/default/production/_ext/1071800814/libaria_widget_drawsurface_skin_classic.o
 .text._laDrawSurfaceWidget_Paint
                0x00000000       0x9c build/default/production/_ext/1071800814/libaria_widget_drawsurface_skin_classic.o
 .text          0x00000000        0x0 build/default/production/_ext/1071800814/libaria_widget_gradient.o
 .data          0x00000000        0x0 build/default/production/_ext/1071800814/libaria_widget_gradient.o
 .bss           0x00000000        0x0 build/default/production/_ext/1071800814/libaria_widget_gradient.o
 .reginfo       0x00000000       0x18 build/default/production/_ext/1071800814/libaria_widget_gradient.o
 .text._laGradientWidget_Destructor
                0x00000000       0x1c build/default/production/_ext/1071800814/libaria_widget_gradient.o
 .text._laGradientWidget_Constructor
                0x00000000       0x60 build/default/production/_ext/1071800814/libaria_widget_gradient.o
 .text.laGradientWidget_New
                0x00000000       0x58 build/default/production/_ext/1071800814/libaria_widget_gradient.o
 .text.laGradientWidget_GetDirection
                0x00000000       0x18 build/default/production/_ext/1071800814/libaria_widget_gradient.o
 .text.laGradientWidget_SetDirection
                0x00000000       0x44 build/default/production/_ext/1071800814/libaria_widget_gradient.o
 .text          0x00000000        0x0 build/default/production/_ext/1071800814/libaria_widget_gradient_skin_classic.o
 .data          0x00000000        0x0 build/default/production/_ext/1071800814/libaria_widget_gradient_skin_classic.o
 .bss           0x00000000        0x0 build/default/production/_ext/1071800814/libaria_widget_gradient_skin_classic.o
 .reginfo       0x00000000       0x18 build/default/production/_ext/1071800814/libaria_widget_gradient_skin_classic.o
 .text.nextState
                0x00000000       0x78 build/default/production/_ext/1071800814/libaria_widget_gradient_skin_classic.o
 .text.drawBorder
                0x00000000       0x58 build/default/production/_ext/1071800814/libaria_widget_gradient_skin_classic.o
 .text.drawBackground
                0x00000000      0x158 build/default/production/_ext/1071800814/libaria_widget_gradient_skin_classic.o
 .text._laGradientWidget_Paint
                0x00000000       0x9c build/default/production/_ext/1071800814/libaria_widget_gradient_skin_classic.o
 .text          0x00000000        0x0 build/default/production/_ext/1071800814/libaria_widget_groupbox.o
 .data          0x00000000        0x0 build/default/production/_ext/1071800814/libaria_widget_groupbox.o
 .bss           0x00000000        0x0 build/default/production/_ext/1071800814/libaria_widget_groupbox.o
 .reginfo       0x00000000       0x18 build/default/production/_ext/1071800814/libaria_widget_groupbox.o
 .text.languageChanging
                0x00000000       0x58 build/default/production/_ext/1071800814/libaria_widget_groupbox.o
 .text._laGroupBoxWidget_Destructor
                0x00000000       0x30 build/default/production/_ext/1071800814/libaria_widget_groupbox.o
 .text._laGroupBoxWidget_Constructor
                0x00000000       0x6c build/default/production/_ext/1071800814/libaria_widget_groupbox.o
 .text.laGroupBoxWidget_New
                0x00000000       0x50 build/default/production/_ext/1071800814/libaria_widget_groupbox.o
 .text.laGroupBoxWidget_GetAlignment
                0x00000000       0x18 build/default/production/_ext/1071800814/libaria_widget_groupbox.o
 .text.laGroupBoxWidget_SetAlignment
                0x00000000       0x44 build/default/production/_ext/1071800814/libaria_widget_groupbox.o
 .text.laGroupBoxWidget_GetText
                0x00000000       0x34 build/default/production/_ext/1071800814/libaria_widget_groupbox.o
 .text.laGroupBoxWidget_SetText
                0x00000000       0x84 build/default/production/_ext/1071800814/libaria_widget_groupbox.o
 .text          0x00000000        0x0 build/default/production/_ext/1071800814/libaria_widget_groupbox_skin_classic.o
 .data          0x00000000        0x0 build/default/production/_ext/1071800814/libaria_widget_groupbox_skin_classic.o
 .bss           0x00000000        0x0 build/default/production/_ext/1071800814/libaria_widget_groupbox_skin_classic.o
 .reginfo       0x00000000       0x18 build/default/production/_ext/1071800814/libaria_widget_groupbox_skin_classic.o
 .text.nextState
                0x00000000       0xfc build/default/production/_ext/1071800814/libaria_widget_groupbox_skin_classic.o
 .text.waitString
                0x00000000       0x68 build/default/production/_ext/1071800814/libaria_widget_groupbox_skin_classic.o
 .text.drawBorder
                0x00000000       0x58 build/default/production/_ext/1071800814/libaria_widget_groupbox_skin_classic.o
 .text.drawLine
                0x00000000       0x84 build/default/production/_ext/1071800814/libaria_widget_groupbox_skin_classic.o
 .text.drawOutline
                0x00000000      0x2e0 build/default/production/_ext/1071800814/libaria_widget_groupbox_skin_classic.o
 .text.drawBackground
                0x00000000       0x2c build/default/production/_ext/1071800814/libaria_widget_groupbox_skin_classic.o
 .text._laGroupBoxWidget_GetTextRect
                0x00000000      0x100 build/default/production/_ext/1071800814/libaria_widget_groupbox_skin_classic.o
 .text.drawString
                0x00000000       0xe0 build/default/production/_ext/1071800814/libaria_widget_groupbox_skin_classic.o
 .text._laGroupBoxWidget_Paint
                0x00000000       0xb4 build/default/production/_ext/1071800814/libaria_widget_groupbox_skin_classic.o
 .rodata        0x00000000       0x10 build/default/production/_ext/1071800814/libaria_widget_groupbox_skin_classic.o
 .text          0x00000000        0x0 build/default/production/_ext/1071800814/libaria_widget_image.o
 .data          0x00000000        0x0 build/default/production/_ext/1071800814/libaria_widget_image.o
 .bss           0x00000000        0x0 build/default/production/_ext/1071800814/libaria_widget_image.o
 .reginfo       0x00000000       0x18 build/default/production/_ext/1071800814/libaria_widget_image.o
 .text._laImageWidget_Destructor
                0x00000000       0x48 build/default/production/_ext/1071800814/libaria_widget_image.o
 .text.invalidateImageRect
                0x00000000       0x44 build/default/production/_ext/1071800814/libaria_widget_image.o
 .text._laImageWidget_Constructor
                0x00000000       0x68 build/default/production/_ext/1071800814/libaria_widget_image.o
 .text.laImageWidget_New
                0x00000000       0x58 build/default/production/_ext/1071800814/libaria_widget_image.o
 .text.laImageWidget_GetHAlignment
                0x00000000       0x18 build/default/production/_ext/1071800814/libaria_widget_image.o
 .text.laImageWidget_SetHAlignment
                0x00000000       0x5c build/default/production/_ext/1071800814/libaria_widget_image.o
 .text.laImageWidget_GetVAlignment
                0x00000000       0x18 build/default/production/_ext/1071800814/libaria_widget_image.o
 .text.laImageWidget_SetVAlignment
                0x00000000       0x5c build/default/production/_ext/1071800814/libaria_widget_image.o
 .text.laImageWidget_GetImage
                0x00000000       0x18 build/default/production/_ext/1071800814/libaria_widget_image.o
 .text.laImageWidget_SetImage
                0x00000000       0x74 build/default/production/_ext/1071800814/libaria_widget_image.o
 .text.laImageWidget_SetCallBackStart
                0x00000000        0x8 build/default/production/_ext/1071800814/libaria_widget_image.o
 .text.laImageWidget_SetCallBackEnd
                0x00000000        0x8 build/default/production/_ext/1071800814/libaria_widget_image.o
 .text          0x00000000        0x0 build/default/production/_ext/1071800814/libaria_widget_image_skin_classic.o
 .data          0x00000000        0x0 build/default/production/_ext/1071800814/libaria_widget_image_skin_classic.o
 .bss           0x00000000        0x0 build/default/production/_ext/1071800814/libaria_widget_image_skin_classic.o
 .reginfo       0x00000000       0x18 build/default/production/_ext/1071800814/libaria_widget_image_skin_classic.o
 .text.nextState
                0x00000000       0xb0 build/default/production/_ext/1071800814/libaria_widget_image_skin_classic.o
 .text.waitImage
                0x00000000       0x88 build/default/production/_ext/1071800814/libaria_widget_image_skin_classic.o
 .text.drawBorder
                0x00000000       0x58 build/default/production/_ext/1071800814/libaria_widget_image_skin_classic.o
 .text.drawBackground
                0x00000000       0x2c build/default/production/_ext/1071800814/libaria_widget_image_skin_classic.o
 .text._laImageWidget_GetImageRect
                0x00000000      0x150 build/default/production/_ext/1071800814/libaria_widget_image_skin_classic.o
 .text.drawImage
                0x00000000      0x15c build/default/production/_ext/1071800814/libaria_widget_image_skin_classic.o
 .text._laImageWidget_Paint
                0x00000000       0xb4 build/default/production/_ext/1071800814/libaria_widget_image_skin_classic.o
 .rodata        0x00000000       0x10 build/default/production/_ext/1071800814/libaria_widget_image_skin_classic.o
 .text          0x00000000        0x0 build/default/production/_ext/1071800814/libaria_widget_imageplus.o
 .data          0x00000000        0x0 build/default/production/_ext/1071800814/libaria_widget_imageplus.o
 .bss           0x00000000        0x0 build/default/production/_ext/1071800814/libaria_widget_imageplus.o
 .reginfo       0x00000000       0x18 build/default/production/_ext/1071800814/libaria_widget_imageplus.o
 .text.touchDown
                0x00000000       0x60 build/default/production/_ext/1071800814/libaria_widget_imageplus.o
 .text.touchUp  0x00000000       0x38 build/default/production/_ext/1071800814/libaria_widget_imageplus.o
 .text.invalidateImageRect
                0x00000000       0x44 build/default/production/_ext/1071800814/libaria_widget_imageplus.o
 .text.touchMoved
                0x00000000      0x138 build/default/production/_ext/1071800814/libaria_widget_imageplus.o
 .text._laImagePlusWidget_Destructor
                0x00000000       0x1c build/default/production/_ext/1071800814/libaria_widget_imageplus.o
 .text._laImagePlusWidget_Constructor
                0x00000000       0xb8 build/default/production/_ext/1071800814/libaria_widget_imageplus.o
 .text.laImagePlusWidget_New
                0x00000000       0x58 build/default/production/_ext/1071800814/libaria_widget_imageplus.o
 .text.laImagePlusWidget_GetImage
                0x00000000       0x18 build/default/production/_ext/1071800814/libaria_widget_imageplus.o
 .text.laImagePlusWidget_SetImage
                0x00000000       0xa8 build/default/production/_ext/1071800814/libaria_widget_imageplus.o
 .text.laImagePlusWidget_GetTransformX
                0x00000000       0x18 build/default/production/_ext/1071800814/libaria_widget_imageplus.o
 .text.laImagePlusWidget_SetTransformX
                0x00000000       0x78 build/default/production/_ext/1071800814/libaria_widget_imageplus.o
 .text.laImagePlusWidget_GetTransformY
                0x00000000       0x18 build/default/production/_ext/1071800814/libaria_widget_imageplus.o
 .text.laImagePlusWidget_SetTransformY
                0x00000000       0x78 build/default/production/_ext/1071800814/libaria_widget_imageplus.o
 .text.laImagePlusWidget_GetTransformWidth
                0x00000000       0x18 build/default/production/_ext/1071800814/libaria_widget_imageplus.o
 .text.laImagePlusWidget_SetTransformWidth
                0x00000000       0x78 build/default/production/_ext/1071800814/libaria_widget_imageplus.o
 .text.laImagePlusWidget_GetTransformHeight
                0x00000000       0x18 build/default/production/_ext/1071800814/libaria_widget_imageplus.o
 .text.laImagePlusWidget_SetTransformHeight
                0x00000000       0x78 build/default/production/_ext/1071800814/libaria_widget_imageplus.o
 .text.laImagePlusWidget_ResetTransform
                0x00000000       0x68 build/default/production/_ext/1071800814/libaria_widget_imageplus.o
 .text.laImagePlusWidget_GetStretchEnabled
                0x00000000       0x18 build/default/production/_ext/1071800814/libaria_widget_imageplus.o
 .text.laImagePlusWidget_SetStretchEnabled
                0x00000000       0x78 build/default/production/_ext/1071800814/libaria_widget_imageplus.o
 .text.laImagePlusWidget_GetPreserveAspectEnabled
                0x00000000       0x18 build/default/production/_ext/1071800814/libaria_widget_imageplus.o
 .text.laImagePlusWidget_SetPreserveAspectEnabled
                0x00000000       0x78 build/default/production/_ext/1071800814/libaria_widget_imageplus.o
 .text.laImagePlusWidget_GetResizeFilter
                0x00000000       0x18 build/default/production/_ext/1071800814/libaria_widget_imageplus.o
 .text.laImagePlusWidget_SetResizeFilter
                0x00000000       0x78 build/default/production/_ext/1071800814/libaria_widget_imageplus.o
 .text.laImagePlusWidget_GetInteractive
                0x00000000       0x18 build/default/production/_ext/1071800814/libaria_widget_imageplus.o
 .text.laImagePlusWidget_SetInteractive
                0x00000000       0x30 build/default/production/_ext/1071800814/libaria_widget_imageplus.o
 .text          0x00000000        0x0 build/default/production/_ext/1071800814/libaria_widget_imageplus_skin_classic.o
 .data          0x00000000        0x0 build/default/production/_ext/1071800814/libaria_widget_imageplus_skin_classic.o
 .bss           0x00000000        0x0 build/default/production/_ext/1071800814/libaria_widget_imageplus_skin_classic.o
 .reginfo       0x00000000       0x18 build/default/production/_ext/1071800814/libaria_widget_imageplus_skin_classic.o
 .text.nextState
                0x00000000       0xb0 build/default/production/_ext/1071800814/libaria_widget_imageplus_skin_classic.o
 .text.drawBorder
                0x00000000       0x58 build/default/production/_ext/1071800814/libaria_widget_imageplus_skin_classic.o
 .text.drawBackground
                0x00000000       0x2c build/default/production/_ext/1071800814/libaria_widget_imageplus_skin_classic.o
 .text._laImagePlusWidget_GetImageRect
                0x00000000      0x390 build/default/production/_ext/1071800814/libaria_widget_imageplus_skin_classic.o
 .text.drawImage
                0x00000000       0x7c build/default/production/_ext/1071800814/libaria_widget_imageplus_skin_classic.o
 .text._laImagePlusWidget_Paint
                0x00000000       0x9c build/default/production/_ext/1071800814/libaria_widget_imageplus_skin_classic.o
 .text          0x00000000        0x0 build/default/production/_ext/1071800814/libaria_widget_imagesequence.o
 .data          0x00000000        0x0 build/default/production/_ext/1071800814/libaria_widget_imagesequence.o
 .bss           0x00000000        0x0 build/default/production/_ext/1071800814/libaria_widget_imagesequence.o
 .reginfo       0x00000000       0x18 build/default/production/_ext/1071800814/libaria_widget_imagesequence.o
 .text._laImageSequenceWidget_Destructor
                0x00000000       0x48 build/default/production/_ext/1071800814/libaria_widget_imagesequence.o
 .text._laImageSequenceWidget_Update
                0x00000000       0xec build/default/production/_ext/1071800814/libaria_widget_imagesequence.o
 .text._laImageSequenceWidget_Constructor
                0x00000000       0x80 build/default/production/_ext/1071800814/libaria_widget_imagesequence.o
 .text.laImageSequenceWidget_New
                0x00000000       0x44 build/default/production/_ext/1071800814/libaria_widget_imagesequence.o
 .text.laImageSequenceWidget_GetImageCount
                0x00000000       0x18 build/default/production/_ext/1071800814/libaria_widget_imagesequence.o
 .text.laImageSequenceWidget_SetImageCount
                0x00000000       0xc4 build/default/production/_ext/1071800814/libaria_widget_imagesequence.o
 .text.laImageSequenceWidget_GetImage
                0x00000000       0x38 build/default/production/_ext/1071800814/libaria_widget_imagesequence.o
 .text.laImageSequenceWidget_SetImage
                0x00000000       0x80 build/default/production/_ext/1071800814/libaria_widget_imagesequence.o
 .text.laImageSequenceWidget_GetImageDelay
                0x00000000       0x30 build/default/production/_ext/1071800814/libaria_widget_imagesequence.o
 .text.laImageSequenceWidget_SetImageDelay
                0x00000000       0x3c build/default/production/_ext/1071800814/libaria_widget_imagesequence.o
 .text.laImageSequenceWidget_GetImageHAlignment
                0x00000000       0x30 build/default/production/_ext/1071800814/libaria_widget_imagesequence.o
 .text.laImageSequenceWidget_SetImageHAlignment
                0x00000000       0x80 build/default/production/_ext/1071800814/libaria_widget_imagesequence.o
 .text.laImageSequenceWidget_GetImageVAlignment
                0x00000000       0x30 build/default/production/_ext/1071800814/libaria_widget_imagesequence.o
 .text.laImageSequenceWidget_SetImageVAlignment
                0x00000000       0x80 build/default/production/_ext/1071800814/libaria_widget_imagesequence.o
 .text.laImageSequenceWidget_Stop
                0x00000000       0x1c build/default/production/_ext/1071800814/libaria_widget_imagesequence.o
 .text.laImageSequenceWidget_Play
                0x00000000       0x20 build/default/production/_ext/1071800814/libaria_widget_imagesequence.o
 .text.laImageSequenceWidget_Rewind
                0x00000000       0x24 build/default/production/_ext/1071800814/libaria_widget_imagesequence.o
 .text.laImageSequenceWidget_IsPlaying
                0x00000000       0x18 build/default/production/_ext/1071800814/libaria_widget_imagesequence.o
 .text.laImageSequenceWidget_GetRepeat
                0x00000000       0x18 build/default/production/_ext/1071800814/libaria_widget_imagesequence.o
 .text.laImageSequenceWidget_SetRepeat
                0x00000000       0x1c build/default/production/_ext/1071800814/libaria_widget_imagesequence.o
 .text.laImageSequenceWidget_ShowImage
                0x00000000       0x64 build/default/production/_ext/1071800814/libaria_widget_imagesequence.o
 .text.laImageSequenceWidget_ShowNextImage
                0x00000000       0x5c build/default/production/_ext/1071800814/libaria_widget_imagesequence.o
 .text.laImageSequenceWidget_ShowPreviousImage
                0x00000000       0x58 build/default/production/_ext/1071800814/libaria_widget_imagesequence.o
 .text.laImageSequenceWidget_GetImageChangedEventCallback
                0x00000000       0x18 build/default/production/_ext/1071800814/libaria_widget_imagesequence.o
 .text.laImageSequenceWidget_SetImageChangedEventCallback
                0x00000000       0x1c build/default/production/_ext/1071800814/libaria_widget_imagesequence.o
 .text          0x00000000        0x0 build/default/production/_ext/1071800814/libaria_widget_imagesequence_skin_classic.o
 .data          0x00000000        0x0 build/default/production/_ext/1071800814/libaria_widget_imagesequence_skin_classic.o
 .bss           0x00000000        0x0 build/default/production/_ext/1071800814/libaria_widget_imagesequence_skin_classic.o
 .reginfo       0x00000000       0x18 build/default/production/_ext/1071800814/libaria_widget_imagesequence_skin_classic.o
 .text.nextState
                0x00000000       0xd8 build/default/production/_ext/1071800814/libaria_widget_imagesequence_skin_classic.o
 .text.waitImage
                0x00000000       0x68 build/default/production/_ext/1071800814/libaria_widget_imagesequence_skin_classic.o
 .text.drawBorder
                0x00000000       0x58 build/default/production/_ext/1071800814/libaria_widget_imagesequence_skin_classic.o
 .text.drawBackground
                0x00000000       0x2c build/default/production/_ext/1071800814/libaria_widget_imagesequence_skin_classic.o
 .text._laImageSequenceWidget_GetImageRect
                0x00000000      0x180 build/default/production/_ext/1071800814/libaria_widget_imagesequence_skin_classic.o
 .text.drawImage
                0x00000000      0x124 build/default/production/_ext/1071800814/libaria_widget_imagesequence_skin_classic.o
 .text._laImageSequenceWidget_Paint
                0x00000000       0xb4 build/default/production/_ext/1071800814/libaria_widget_imagesequence_skin_classic.o
 .rodata        0x00000000       0x10 build/default/production/_ext/1071800814/libaria_widget_imagesequence_skin_classic.o
 .text          0x00000000        0x0 build/default/production/_ext/1071800814/libaria_widget_keypad.o
 .data          0x00000000        0x0 build/default/production/_ext/1071800814/libaria_widget_keypad.o
 .bss           0x00000000        0x0 build/default/production/_ext/1071800814/libaria_widget_keypad.o
 .reginfo       0x00000000       0x18 build/default/production/_ext/1071800814/libaria_widget_keypad.o
 .text._buttonClicked
                0x00000000      0x158 build/default/production/_ext/1071800814/libaria_widget_keypad.o
 .text.languageChanging
                0x00000000       0x84 build/default/production/_ext/1071800814/libaria_widget_keypad.o
 .text._getButton
                0x00000000       0x60 build/default/production/_ext/1071800814/libaria_widget_keypad.o
 .text._resizeCells
                0x00000000      0x154 build/default/production/_ext/1071800814/libaria_widget_keypad.o
 .text._resized
                0x00000000       0x1c build/default/production/_ext/1071800814/libaria_widget_keypad.o
 .text._laKeyPadWidget_Destructor
                0x00000000       0xa0 build/default/production/_ext/1071800814/libaria_widget_keypad.o
 .text._laKeyPadWidget_Constructor
                0x00000000      0x138 build/default/production/_ext/1071800814/libaria_widget_keypad.o
 .text.laKeyPadWidget_New
                0x00000000       0x70 build/default/production/_ext/1071800814/libaria_widget_keypad.o
 .text.laKeyPadWidget_GetKeyPadActionTrigger
                0x00000000       0x18 build/default/production/_ext/1071800814/libaria_widget_keypad.o
 .text.laKeyPadWidget_SetKeyPadActionTrigger
                0x00000000       0x1c build/default/production/_ext/1071800814/libaria_widget_keypad.o
 .text.laKeyPadWidget_GetKeyClickEventCallback
                0x00000000       0x18 build/default/production/_ext/1071800814/libaria_widget_keypad.o
 .text.laKeyPadWidget_SetKeyClickEventCallback
                0x00000000       0x1c build/default/production/_ext/1071800814/libaria_widget_keypad.o
 .text.laKeyPadWidget_GetKeyEnabled
                0x00000000       0x5c build/default/production/_ext/1071800814/libaria_widget_keypad.o
 .text.laKeyPadWidget_SetKeyEnabled
                0x00000000       0x70 build/default/production/_ext/1071800814/libaria_widget_keypad.o
 .text.laKeyPadWidget_GetKeyText
                0x00000000       0x70 build/default/production/_ext/1071800814/libaria_widget_keypad.o
 .text.laKeyPadWidget_SetKeyText
                0x00000000       0x74 build/default/production/_ext/1071800814/libaria_widget_keypad.o
 .text.laKeyPadWidget_GetKeyPressedImage
                0x00000000       0x60 build/default/production/_ext/1071800814/libaria_widget_keypad.o
 .text.laKeyPadWidget_SetKeyPressedImage
                0x00000000       0x70 build/default/production/_ext/1071800814/libaria_widget_keypad.o
 .text.laKeyPadWidget_GetKeyReleasedImage
                0x00000000       0x60 build/default/production/_ext/1071800814/libaria_widget_keypad.o
 .text.laKeyPadWidget_SetKeyReleasedImage
                0x00000000       0x70 build/default/production/_ext/1071800814/libaria_widget_keypad.o
 .text.laKeyPadWidget_GetKeyImagePosition
                0x00000000       0x5c build/default/production/_ext/1071800814/libaria_widget_keypad.o
 .text.laKeyPadWidget_SetKeyImagePosition
                0x00000000       0x70 build/default/production/_ext/1071800814/libaria_widget_keypad.o
 .text.laKeyPadWidget_GetKeyImageMargin
                0x00000000       0x5c build/default/production/_ext/1071800814/libaria_widget_keypad.o
 .text.laKeyPadWidget_SetKeyImageMargin
                0x00000000       0x70 build/default/production/_ext/1071800814/libaria_widget_keypad.o
 .text.laKeyPadWidget_GetKeyBackgroundType
                0x00000000       0x5c build/default/production/_ext/1071800814/libaria_widget_keypad.o
 .text.laKeyPadWidget_SetKeyBackgroundType
                0x00000000       0x6c build/default/production/_ext/1071800814/libaria_widget_keypad.o
 .text.laKeyPadWidget_GetKeyAction
                0x00000000       0x44 build/default/production/_ext/1071800814/libaria_widget_keypad.o
 .text.laKeyPadWidget_SetKeyAction
                0x00000000       0x4c build/default/production/_ext/1071800814/libaria_widget_keypad.o
 .text.laKeyPadWidget_GetKeyValue
                0x00000000       0x60 build/default/production/_ext/1071800814/libaria_widget_keypad.o
 .text.laKeyPadWidget_SetKeyValue
                0x00000000       0xbc build/default/production/_ext/1071800814/libaria_widget_keypad.o
 .text          0x00000000        0x0 build/default/production/_ext/1071800814/libaria_widget_keypad_skin_classic.o
 .data          0x00000000        0x0 build/default/production/_ext/1071800814/libaria_widget_keypad_skin_classic.o
 .bss           0x00000000        0x0 build/default/production/_ext/1071800814/libaria_widget_keypad_skin_classic.o
 .reginfo       0x00000000       0x18 build/default/production/_ext/1071800814/libaria_widget_keypad_skin_classic.o
 .text.nextState
                0x00000000       0x78 build/default/production/_ext/1071800814/libaria_widget_keypad_skin_classic.o
 .text.drawBorder
                0x00000000       0x58 build/default/production/_ext/1071800814/libaria_widget_keypad_skin_classic.o
 .text.drawBackground
                0x00000000       0x2c build/default/production/_ext/1071800814/libaria_widget_keypad_skin_classic.o
 .text._laKeyPadWidget_InvalidateBorderAreas
                0x00000000       0x1c build/default/production/_ext/1071800814/libaria_widget_keypad_skin_classic.o
 .text._laKeyPadWidget_Paint
                0x00000000       0xe0 build/default/production/_ext/1071800814/libaria_widget_keypad_skin_classic.o
 .text          0x00000000        0x0 build/default/production/_ext/1071800814/libaria_widget_label.o
 .data          0x00000000        0x0 build/default/production/_ext/1071800814/libaria_widget_label.o
 .bss           0x00000000        0x0 build/default/production/_ext/1071800814/libaria_widget_label.o
 .reginfo       0x00000000       0x18 build/default/production/_ext/1071800814/libaria_widget_label.o
 .text.languageChanging
                0x00000000       0x38 build/default/production/_ext/1071800814/libaria_widget_label.o
 .text._laLabelWidget_Destructor
                0x00000000       0x54 build/default/production/_ext/1071800814/libaria_widget_label.o
 .text.invalidateTextRect
                0x00000000       0x44 build/default/production/_ext/1071800814/libaria_widget_label.o
 .text._laLabelWidget_Constructor
                0x00000000       0x78 build/default/production/_ext/1071800814/libaria_widget_label.o
 .text.laLabelWidget_New
                0x00000000       0x50 build/default/production/_ext/1071800814/libaria_widget_label.o
 .text.laLabelWidget_GetHAlignment
                0x00000000       0x18 build/default/production/_ext/1071800814/libaria_widget_label.o
 .text.laLabelWidget_SetHAlignment
                0x00000000       0x5c build/default/production/_ext/1071800814/libaria_widget_label.o
 .text.laLabelWidget_GetVAlignment
                0x00000000       0x18 build/default/production/_ext/1071800814/libaria_widget_label.o
 .text.laLabelWidget_SetVAlignment
                0x00000000       0x60 build/default/production/_ext/1071800814/libaria_widget_label.o
 .text.laLabelWidget_GetText
                0x00000000       0x34 build/default/production/_ext/1071800814/libaria_widget_label.o
 .text.laLabelWidget_SetText
                0x00000000       0x7c build/default/production/_ext/1071800814/libaria_widget_label.o
 .text          0x00000000        0x0 build/default/production/_ext/1071800814/libaria_widget_label_skin_classic.o
 .data          0x00000000        0x0 build/default/production/_ext/1071800814/libaria_widget_label_skin_classic.o
 .bss           0x00000000        0x0 build/default/production/_ext/1071800814/libaria_widget_label_skin_classic.o
 .reginfo       0x00000000       0x18 build/default/production/_ext/1071800814/libaria_widget_label_skin_classic.o
 .text.nextState
                0x00000000       0xd0 build/default/production/_ext/1071800814/libaria_widget_label_skin_classic.o
 .text.waitString
                0x00000000       0x68 build/default/production/_ext/1071800814/libaria_widget_label_skin_classic.o
 .text.drawBorder
                0x00000000       0x58 build/default/production/_ext/1071800814/libaria_widget_label_skin_classic.o
 .text.drawMultiLineString
                0x00000000      0x550 build/default/production/_ext/1071800814/libaria_widget_label_skin_classic.o
 .text.drawBackground
                0x00000000       0x2c build/default/production/_ext/1071800814/libaria_widget_label_skin_classic.o
 .text._laLabelWidget_GetTextRect
                0x00000000      0x114 build/default/production/_ext/1071800814/libaria_widget_label_skin_classic.o
 .text._laLabelWidget_Paint
                0x00000000       0xb4 build/default/production/_ext/1071800814/libaria_widget_label_skin_classic.o
 .rodata        0x00000000       0x10 build/default/production/_ext/1071800814/libaria_widget_label_skin_classic.o
 .text          0x00000000        0x0 build/default/production/_ext/1071800814/libaria_widget_line.o
 .data          0x00000000        0x0 build/default/production/_ext/1071800814/libaria_widget_line.o
 .bss           0x00000000        0x0 build/default/production/_ext/1071800814/libaria_widget_line.o
 .reginfo       0x00000000       0x18 build/default/production/_ext/1071800814/libaria_widget_line.o
 .text._laLineWidget_Destructor
                0x00000000       0x1c build/default/production/_ext/1071800814/libaria_widget_line.o
 .text._laLineWidget_Constructor
                0x00000000       0x6c build/default/production/_ext/1071800814/libaria_widget_line.o
 .text.laLineWidget_New
                0x00000000       0x58 build/default/production/_ext/1071800814/libaria_widget_line.o
 .text.laLineWidget_GetStartPoint
                0x00000000       0x48 build/default/production/_ext/1071800814/libaria_widget_line.o
 .text.laLineWidget_SetStartPoint
                0x00000000       0x48 build/default/production/_ext/1071800814/libaria_widget_line.o
 .text.laLineWidget_GetEndPoint
                0x00000000       0x48 build/default/production/_ext/1071800814/libaria_widget_line.o
 .text.laLineWidget_SetEndPoint
                0x00000000       0x48 build/default/production/_ext/1071800814/libaria_widget_line.o
 .text          0x00000000        0x0 build/default/production/_ext/1071800814/libaria_widget_line_skin_classic.o
 .data          0x00000000        0x0 build/default/production/_ext/1071800814/libaria_widget_line_skin_classic.o
 .bss           0x00000000        0x0 build/default/production/_ext/1071800814/libaria_widget_line_skin_classic.o
 .reginfo       0x00000000       0x18 build/default/production/_ext/1071800814/libaria_widget_line_skin_classic.o
 .text.nextState
                0x00000000       0xa8 build/default/production/_ext/1071800814/libaria_widget_line_skin_classic.o
 .text.drawBorder
                0x00000000       0x58 build/default/production/_ext/1071800814/libaria_widget_line_skin_classic.o
 .text.drawLine
                0x00000000      0x138 build/default/production/_ext/1071800814/libaria_widget_line_skin_classic.o
 .text.drawBackground
                0x00000000       0x2c build/default/production/_ext/1071800814/libaria_widget_line_skin_classic.o
 .text._laLineWidget_Paint
                0x00000000       0x9c build/default/production/_ext/1071800814/libaria_widget_line_skin_classic.o
 .text          0x00000000        0x0 build/default/production/_ext/1071800814/libaria_widget_line_graph.o
 .data          0x00000000        0x0 build/default/production/_ext/1071800814/libaria_widget_line_graph.o
 .bss           0x00000000        0x0 build/default/production/_ext/1071800814/libaria_widget_line_graph.o
 .reginfo       0x00000000       0x18 build/default/production/_ext/1071800814/libaria_widget_line_graph.o
 .text._laLineGraphWidget_Constructor
                0x00000000       0xbc build/default/production/_ext/1071800814/libaria_widget_line_graph.o
 .text.laLineGraphWidget_New
                0x00000000       0x58 build/default/production/_ext/1071800814/libaria_widget_line_graph.o
 .text.laLineGraphWidget_GetTickLength
                0x00000000       0x18 build/default/production/_ext/1071800814/libaria_widget_line_graph.o
 .text.laLineGraphWidget_SetTickLength
                0x00000000       0x44 build/default/production/_ext/1071800814/libaria_widget_line_graph.o
 .text.laLineGraphWidget_GetStacked
                0x00000000       0x18 build/default/production/_ext/1071800814/libaria_widget_line_graph.o
 .text.laLineGraphWidget_SetStacked
                0x00000000       0x44 build/default/production/_ext/1071800814/libaria_widget_line_graph.o
 .text.laLineGraphWidget_GetMaxValue
                0x00000000       0x18 build/default/production/_ext/1071800814/libaria_widget_line_graph.o
 .text.laLineGraphWidget_SetMaxValue
                0x00000000       0x5c build/default/production/_ext/1071800814/libaria_widget_line_graph.o
 .text.laLineGraphWidget_GetMinValue
                0x00000000       0x18 build/default/production/_ext/1071800814/libaria_widget_line_graph.o
 .text.laLineGraphWidget_SetMinValue
                0x00000000       0x5c build/default/production/_ext/1071800814/libaria_widget_line_graph.o
 .text.laLineGraphWidget_GetValueAxisLabelsVisible
                0x00000000       0x18 build/default/production/_ext/1071800814/libaria_widget_line_graph.o
 .text.laLineGraphWidget_SetValueAxisLabelsVisible
                0x00000000       0x44 build/default/production/_ext/1071800814/libaria_widget_line_graph.o
 .text.laLineGraphWidget_GetFillGraphArea
                0x00000000       0x18 build/default/production/_ext/1071800814/libaria_widget_line_graph.o
 .text.laLineGraphWidget_SetFillGraphArea
                0x00000000       0x44 build/default/production/_ext/1071800814/libaria_widget_line_graph.o
 .text.laLineGraphWidget_GetFillSeriesArea
                0x00000000       0x18 build/default/production/_ext/1071800814/libaria_widget_line_graph.o
 .text.laLineGraphWidget_SetFillSeriesArea
                0x00000000       0x44 build/default/production/_ext/1071800814/libaria_widget_line_graph.o
 .text.laLineGraphWidget_GetGridlinesVisible
                0x00000000       0x18 build/default/production/_ext/1071800814/libaria_widget_line_graph.o
 .text.laLineGraphWidget_SetGridlinesVisible
                0x00000000       0x44 build/default/production/_ext/1071800814/libaria_widget_line_graph.o
 .text.laLineGraphWidget_GetValueAxisTicksVisible
                0x00000000       0x18 build/default/production/_ext/1071800814/libaria_widget_line_graph.o
 .text.laLineGraphWidget_SetValueAxisTicksVisible
                0x00000000       0x44 build/default/production/_ext/1071800814/libaria_widget_line_graph.o
 .text.laLineGraphWidget_GetValueAxisTickInterval
                0x00000000       0x18 build/default/production/_ext/1071800814/libaria_widget_line_graph.o
 .text.laLineGraphWidget_SetValueAxisTickInterval
                0x00000000       0x44 build/default/production/_ext/1071800814/libaria_widget_line_graph.o
 .text.laLineGraphWidget_GetValueAxisSubtickInterval
                0x00000000       0x18 build/default/production/_ext/1071800814/libaria_widget_line_graph.o
 .text.laLineGraphWidget_SetValueAxisSubtickInterval
                0x00000000       0x44 build/default/production/_ext/1071800814/libaria_widget_line_graph.o
 .text.laLineGraphWidget_GetValueAxisSubticksVisible
                0x00000000       0x18 build/default/production/_ext/1071800814/libaria_widget_line_graph.o
 .text.laLineGraphWidget_SetValueAxisSubticksVisible
                0x00000000       0x44 build/default/production/_ext/1071800814/libaria_widget_line_graph.o
 .text.laLineGraphWidget_GetCategoryAxisTicksVisible
                0x00000000       0x18 build/default/production/_ext/1071800814/libaria_widget_line_graph.o
 .text.laLineGraphWidget_SetCategoryAxisTicksVisible
                0x00000000       0x44 build/default/production/_ext/1071800814/libaria_widget_line_graph.o
 .text.laLineGraphWidget_AddCategory
                0x00000000       0x90 build/default/production/_ext/1071800814/libaria_widget_line_graph.o
 .text.laLineGraphWidget_GetCategoryText
                0x00000000       0x6c build/default/production/_ext/1071800814/libaria_widget_line_graph.o
 .text.laLineGraphWidget_SetCategoryText
                0x00000000       0x8c build/default/production/_ext/1071800814/libaria_widget_line_graph.o
 .text.laLineGraphWidget_AddSeries
                0x00000000       0xb4 build/default/production/_ext/1071800814/libaria_widget_line_graph.o
 .text.laLineGraphWidget_AddDataToSeries
                0x00000000       0xc0 build/default/production/_ext/1071800814/libaria_widget_line_graph.o
 .text.laLineGraphWidget_SetDataInSeries
                0x00000000       0x90 build/default/production/_ext/1071800814/libaria_widget_line_graph.o
 .text.laLineGraphWidget_GetSeriesScheme
                0x00000000       0x54 build/default/production/_ext/1071800814/libaria_widget_line_graph.o
 .text.laLineGraphWidget_SetSeriesScheme
                0x00000000       0x84 build/default/production/_ext/1071800814/libaria_widget_line_graph.o
 .text.laLineGraphWidget_GetSeriesFillPoints
                0x00000000       0x50 build/default/production/_ext/1071800814/libaria_widget_line_graph.o
 .text.laLineGraphWidget_SetSeriesFillPoints
                0x00000000       0x78 build/default/production/_ext/1071800814/libaria_widget_line_graph.o
 .text.laLineGraphWidget_GetSeriesLinesVisible
                0x00000000       0x50 build/default/production/_ext/1071800814/libaria_widget_line_graph.o
 .text.laLineGraphWidget_SetSeriesLinesVisible
                0x00000000       0x78 build/default/production/_ext/1071800814/libaria_widget_line_graph.o
 .text.laLineGraphWidget_GetSeriesPointType
                0x00000000       0x50 build/default/production/_ext/1071800814/libaria_widget_line_graph.o
 .text.laLineGraphWidget_SetSeriesPointType
                0x00000000       0x78 build/default/production/_ext/1071800814/libaria_widget_line_graph.o
 .text.laLineGraphWidget_GetSeriesPointSize
                0x00000000       0x50 build/default/production/_ext/1071800814/libaria_widget_line_graph.o
 .text.laLineGraphWidget_SetSeriesPointSize
                0x00000000       0x78 build/default/production/_ext/1071800814/libaria_widget_line_graph.o
 .text.laLineGraphWidget_DestroyAll
                0x00000000       0xe4 build/default/production/_ext/1071800814/libaria_widget_line_graph.o
 .text._laLineGraphWidget_Destructor
                0x00000000       0x2c build/default/production/_ext/1071800814/libaria_widget_line_graph.o
 .text.laLineGraphWidget_SetStringTable
                0x00000000       0x48 build/default/production/_ext/1071800814/libaria_widget_line_graph.o
 .text.laLineGraphWidget_SetTicksLabelsStringID
                0x00000000       0x44 build/default/production/_ext/1071800814/libaria_widget_line_graph.o
 .text.laLineGraphWidget_GetCategoryAxisLabelsVisible
                0x00000000       0x18 build/default/production/_ext/1071800814/libaria_widget_line_graph.o
 .text.laLineGraphWidget_SetCategoryAxisLabelsVisible
                0x00000000       0x44 build/default/production/_ext/1071800814/libaria_widget_line_graph.o
 .text.laLineGraphWidget_GetValueAxisTicksPosition
                0x00000000       0x18 build/default/production/_ext/1071800814/libaria_widget_line_graph.o
 .text.laLineGraphWidget_SetValueAxisTicksPosition
                0x00000000       0x44 build/default/production/_ext/1071800814/libaria_widget_line_graph.o
 .text.laLineGraphWidget_GetValueAxisSubticksPosition
                0x00000000       0x18 build/default/production/_ext/1071800814/libaria_widget_line_graph.o
 .text.laLineGraphWidget_SetValueAxisSubticksPosition
                0x00000000       0x44 build/default/production/_ext/1071800814/libaria_widget_line_graph.o
 .text.laLineGraphWidget_GetCategoryAxisTicksPosition
                0x00000000       0x18 build/default/production/_ext/1071800814/libaria_widget_line_graph.o
 .text.laLineGraphWidget_SetCategoryAxisTicksPosition
                0x00000000       0x44 build/default/production/_ext/1071800814/libaria_widget_line_graph.o
 .text          0x00000000        0x0 build/default/production/_ext/1071800814/libaria_widget_line_graph_skin_classic.o
 .data          0x00000000        0x0 build/default/production/_ext/1071800814/libaria_widget_line_graph_skin_classic.o
 .bss           0x00000000        0x0 build/default/production/_ext/1071800814/libaria_widget_line_graph_skin_classic.o
 .reginfo       0x00000000       0x18 build/default/production/_ext/1071800814/libaria_widget_line_graph_skin_classic.o
 .text.nextState
                0x00000000       0xd4 build/default/production/_ext/1071800814/libaria_widget_line_graph_skin_classic.o
 .text.waitString
                0x00000000       0x68 build/default/production/_ext/1071800814/libaria_widget_line_graph_skin_classic.o
 .text.drawBorder
                0x00000000       0x58 build/default/production/_ext/1071800814/libaria_widget_line_graph_skin_classic.o
 .rodata        0x00000000        0x4 build/default/production/_ext/1071800814/libaria_widget_line_graph_skin_classic.o
 .text._laLineGraphWidget_GetGraphRect
                0x00000000      0x530 build/default/production/_ext/1071800814/libaria_widget_line_graph_skin_classic.o
 .text.drawString
                0x00000000      0x2cc build/default/production/_ext/1071800814/libaria_widget_line_graph_skin_classic.o
 .text.drawTickLabelWithValue
                0x00000000      0x208 build/default/production/_ext/1071800814/libaria_widget_line_graph_skin_classic.o
 .text.drawSeriesPoint
                0x00000000      0x100 build/default/production/_ext/1071800814/libaria_widget_line_graph_skin_classic.o
 .text.drawLineGraph
                0x00000000     0x1680 build/default/production/_ext/1071800814/libaria_widget_line_graph_skin_classic.o
 .text.drawBackground
                0x00000000       0x2c build/default/production/_ext/1071800814/libaria_widget_line_graph_skin_classic.o
 .text._laLineGraphWidget_Paint
                0x00000000       0x9c build/default/production/_ext/1071800814/libaria_widget_line_graph_skin_classic.o
 .text          0x00000000        0x0 build/default/production/_ext/1071800814/libaria_widget_list.o
 .data          0x00000000        0x0 build/default/production/_ext/1071800814/libaria_widget_list.o
 .bss           0x00000000        0x0 build/default/production/_ext/1071800814/libaria_widget_list.o
 .reginfo       0x00000000       0x18 build/default/production/_ext/1071800814/libaria_widget_list.o
 .text.resized  0x00000000       0x4c build/default/production/_ext/1071800814/libaria_widget_list.o
 .text.invalidateListArea
                0x00000000       0x40 build/default/production/_ext/1071800814/libaria_widget_list.o
 .text.scrollBarMoved
                0x00000000       0x1c build/default/production/_ext/1071800814/libaria_widget_list.o
 .text.getRowAtPoint
                0x00000000       0x90 build/default/production/_ext/1071800814/libaria_widget_list.o
 .text.invalidateRow
                0x00000000       0x74 build/default/production/_ext/1071800814/libaria_widget_list.o
 .text.touchMoved
                0x00000000       0xb4 build/default/production/_ext/1071800814/libaria_widget_list.o
 .text.touchDown
                0x00000000       0x8c build/default/production/_ext/1071800814/libaria_widget_list.o
 .text.languageChanging
                0x00000000       0x70 build/default/production/_ext/1071800814/libaria_widget_list.o
 .text.recalculateScrollBarValues
                0x00000000       0xa4 build/default/production/_ext/1071800814/libaria_widget_list.o
 .text._laListWidget_Constructor
                0x00000000      0x11c build/default/production/_ext/1071800814/libaria_widget_list.o
 .text.laListWidget_New
                0x00000000       0x50 build/default/production/_ext/1071800814/libaria_widget_list.o
 .text.laListWidget_GetSelectionMode
                0x00000000       0x18 build/default/production/_ext/1071800814/libaria_widget_list.o
 .text.laListWidget_GetAllowEmptySelection
                0x00000000       0x18 build/default/production/_ext/1071800814/libaria_widget_list.o
 .text.laListWidget_GetAlignment
                0x00000000       0x18 build/default/production/_ext/1071800814/libaria_widget_list.o
 .text.laListWidget_SetAlignment
                0x00000000       0x44 build/default/production/_ext/1071800814/libaria_widget_list.o
 .text.laListWidget_GetIconPosition
                0x00000000       0x18 build/default/production/_ext/1071800814/libaria_widget_list.o
 .text.laListWidget_SetIconPosition
                0x00000000       0x54 build/default/production/_ext/1071800814/libaria_widget_list.o
 .text.laListWidget_GetIconMargin
                0x00000000       0x18 build/default/production/_ext/1071800814/libaria_widget_list.o
 .text.laListWidget_SetIconMargin
                0x00000000       0x44 build/default/production/_ext/1071800814/libaria_widget_list.o
 .text.laListWidget_GetItemCount
                0x00000000       0x18 build/default/production/_ext/1071800814/libaria_widget_list.o
 .text.laListWidget_RemoveItem
                0x00000000       0xa0 build/default/production/_ext/1071800814/libaria_widget_list.o
 .text.laListWidget_RemoveAllItems
                0x00000000       0xac build/default/production/_ext/1071800814/libaria_widget_list.o
 .text._laListWidget_Destructor
                0x00000000       0x58 build/default/production/_ext/1071800814/libaria_widget_list.o
 .text.laListWidget_GetItemSelected
                0x00000000       0x34 build/default/production/_ext/1071800814/libaria_widget_list.o
 .text.laListWidget_DeselectAll
                0x00000000       0xc4 build/default/production/_ext/1071800814/libaria_widget_list.o
 .text.laListWidget_SetSelectionMode
                0x00000000       0x44 build/default/production/_ext/1071800814/libaria_widget_list.o
 .text.laListWidget_GetFirstSelectedItem
                0x00000000       0x64 build/default/production/_ext/1071800814/libaria_widget_list.o
 .text.laListWidget_GetLastSelectedItem
                0x00000000       0x44 build/default/production/_ext/1071800814/libaria_widget_list.o
 .text.laListWidget_GetSelectionCount
                0x00000000       0x4c build/default/production/_ext/1071800814/libaria_widget_list.o
 .text.laListWidget_SetItemSelected
                0x00000000      0x30c build/default/production/_ext/1071800814/libaria_widget_list.o
 .text.laListWidget_ToggleItemSelected
                0x00000000       0x6c build/default/production/_ext/1071800814/libaria_widget_list.o
 .text.touchUp  0x00000000       0x80 build/default/production/_ext/1071800814/libaria_widget_list.o
 .text.laListWidget_SelectAll
                0x00000000       0xe0 build/default/production/_ext/1071800814/libaria_widget_list.o
 .text.laListWidget_SetAllowEmptySelection
                0x00000000       0x68 build/default/production/_ext/1071800814/libaria_widget_list.o
 .text.laListWidget_AppendItem
                0x00000000       0xb4 build/default/production/_ext/1071800814/libaria_widget_list.o
 .text.laListWidget_InsertItem
                0x00000000       0xb4 build/default/production/_ext/1071800814/libaria_widget_list.o
 .text.laListWidget_GetItemText
                0x00000000       0x54 build/default/production/_ext/1071800814/libaria_widget_list.o
 .text.laListWidget_SetItemText
                0x00000000       0x8c build/default/production/_ext/1071800814/libaria_widget_list.o
 .text.laListWidget_GetItemIcon
                0x00000000       0x3c build/default/production/_ext/1071800814/libaria_widget_list.o
 .text.laListWidget_SetItemIcon
                0x00000000       0x6c build/default/production/_ext/1071800814/libaria_widget_list.o
 .text.laListWidget_SetItemVisible
                0x00000000      0x13c build/default/production/_ext/1071800814/libaria_widget_list.o
 .text.laListWidget_GetSelectedItemChangedEventCallback
                0x00000000       0x18 build/default/production/_ext/1071800814/libaria_widget_list.o
 .text.laListWidget_SetSelectedItemChangedEventCallback
                0x00000000       0x30 build/default/production/_ext/1071800814/libaria_widget_list.o
 .text          0x00000000        0x0 build/default/production/_ext/1071800814/libaria_widget_list_skin_classic.o
 .data          0x00000000        0x0 build/default/production/_ext/1071800814/libaria_widget_list_skin_classic.o
 .bss           0x00000000        0x0 build/default/production/_ext/1071800814/libaria_widget_list_skin_classic.o
 .reginfo       0x00000000       0x18 build/default/production/_ext/1071800814/libaria_widget_list_skin_classic.o
 .text.nextState
                0x00000000       0xf0 build/default/production/_ext/1071800814/libaria_widget_list_skin_classic.o
 .text.waitString
                0x00000000       0x78 build/default/production/_ext/1071800814/libaria_widget_list_skin_classic.o
 .text.waitIcon
                0x00000000       0x78 build/default/production/_ext/1071800814/libaria_widget_list_skin_classic.o
 .text.drawBorder
                0x00000000       0x64 build/default/production/_ext/1071800814/libaria_widget_list_skin_classic.o
 .text._laListWidget_GetListRect
                0x00000000      0x118 build/default/production/_ext/1071800814/libaria_widget_list_skin_classic.o
 .text._laListWidget_GetRowY
                0x00000000       0x48 build/default/production/_ext/1071800814/libaria_widget_list_skin_classic.o
 .text._laListWidget_GetRowRect
                0x00000000       0xa8 build/default/production/_ext/1071800814/libaria_widget_list_skin_classic.o
 .text.drawBackground
                0x00000000      0x1d0 build/default/production/_ext/1071800814/libaria_widget_list_skin_classic.o
 .text._laListWidget_GetTextRect
                0x00000000      0x194 build/default/production/_ext/1071800814/libaria_widget_list_skin_classic.o
 .text.drawString
                0x00000000      0x1bc build/default/production/_ext/1071800814/libaria_widget_list_skin_classic.o
 .text._laListWidget_GetIconRect
                0x00000000      0x1c4 build/default/production/_ext/1071800814/libaria_widget_list_skin_classic.o
 .text.drawIcon
                0x00000000      0x224 build/default/production/_ext/1071800814/libaria_widget_list_skin_classic.o
 .text._laListWidget_recalculateRowRect
                0x00000000       0xe0 build/default/production/_ext/1071800814/libaria_widget_list_skin_classic.o
 .text._laListWidget_GetLogicalRect
                0x00000000       0x88 build/default/production/_ext/1071800814/libaria_widget_list_skin_classic.o
 .text._laListWidget_Paint
                0x00000000       0xb8 build/default/production/_ext/1071800814/libaria_widget_list_skin_classic.o
 .text          0x00000000        0x0 build/default/production/_ext/1071800814/libaria_widget_listwheel.o
 .data          0x00000000        0x0 build/default/production/_ext/1071800814/libaria_widget_listwheel.o
 .bss           0x00000000        0x0 build/default/production/_ext/1071800814/libaria_widget_listwheel.o
 .reginfo       0x00000000       0x18 build/default/production/_ext/1071800814/libaria_widget_listwheel.o
 .text.calculateTopItem
                0x00000000       0x54 build/default/production/_ext/1071800814/libaria_widget_listwheel.o
 .text.resized  0x00000000       0x34 build/default/production/_ext/1071800814/libaria_widget_listwheel.o
 .text.touchMoved
                0x00000000      0x128 build/default/production/_ext/1071800814/libaria_widget_listwheel.o
 .text.touchDown
                0x00000000       0x78 build/default/production/_ext/1071800814/libaria_widget_listwheel.o
 .text.touchUp  0x00000000       0xc4 build/default/production/_ext/1071800814/libaria_widget_listwheel.o
 .text.languageChanging
                0x00000000       0x8c build/default/production/_ext/1071800814/libaria_widget_listwheel.o
 .text.adjustRotation
                0x00000000       0xe0 build/default/production/_ext/1071800814/libaria_widget_listwheel.o
 .text.update   0x00000000      0x260 build/default/production/_ext/1071800814/libaria_widget_listwheel.o
 .text._laListWheelWidget_Constructor
                0x00000000      0x130 build/default/production/_ext/1071800814/libaria_widget_listwheel.o
 .text.laListWheelWidget_New
                0x00000000       0x50 build/default/production/_ext/1071800814/libaria_widget_listwheel.o
 .text.laListWheelWidget_GetAlignment
                0x00000000       0x18 build/default/production/_ext/1071800814/libaria_widget_listwheel.o
 .text.laListWheelWidget_SetAlignment
                0x00000000       0x44 build/default/production/_ext/1071800814/libaria_widget_listwheel.o
 .text.laListWheelWidget_GetVisibleItemCount
                0x00000000       0x18 build/default/production/_ext/1071800814/libaria_widget_listwheel.o
 .text.laListWheelWidget_SetVisibleItemCount
                0x00000000       0x60 build/default/production/_ext/1071800814/libaria_widget_listwheel.o
 .text.laListWheelWidget_GetIconPosition
                0x00000000       0x18 build/default/production/_ext/1071800814/libaria_widget_listwheel.o
 .text.laListWheelWidget_SetIconPosition
                0x00000000       0x54 build/default/production/_ext/1071800814/libaria_widget_listwheel.o
 .text.laListWheelWidget_GetIconMargin
                0x00000000       0x18 build/default/production/_ext/1071800814/libaria_widget_listwheel.o
 .text.laListWheelWidget_SetIconMargin
                0x00000000       0x44 build/default/production/_ext/1071800814/libaria_widget_listwheel.o
 .text.laListWheelWidget_GetShowIndicators
                0x00000000       0x18 build/default/production/_ext/1071800814/libaria_widget_listwheel.o
 .text.laListWheelWidget_SetShowIndicators
                0x00000000       0x44 build/default/production/_ext/1071800814/libaria_widget_listwheel.o
 .text.laListWheelWidget_GetIndicatorArea
                0x00000000       0x18 build/default/production/_ext/1071800814/libaria_widget_listwheel.o
 .text.laListWheelWidget_SetIndicatorArea
                0x00000000       0x44 build/default/production/_ext/1071800814/libaria_widget_listwheel.o
 .text.laListWheelWidget_GetShaded
                0x00000000       0x18 build/default/production/_ext/1071800814/libaria_widget_listwheel.o
 .text.laListWheelWidget_SetShaded
                0x00000000       0x44 build/default/production/_ext/1071800814/libaria_widget_listwheel.o
 .text.laListWheelWidget_GetFlickInitSpeed
                0x00000000       0x18 build/default/production/_ext/1071800814/libaria_widget_listwheel.o
 .text.laListWheelWidget_SetFlickInitSpeed
                0x00000000       0x1c build/default/production/_ext/1071800814/libaria_widget_listwheel.o
 .text.laListWheelWidget_GetMaxMomentum
                0x00000000       0x18 build/default/production/_ext/1071800814/libaria_widget_listwheel.o
 .text.laListWheelWidget_SetMaxMomentum
                0x00000000       0x1c build/default/production/_ext/1071800814/libaria_widget_listwheel.o
 .text.laListWheelWidget_GetMomentumFalloffRate
                0x00000000       0x18 build/default/production/_ext/1071800814/libaria_widget_listwheel.o
 .text.laListWheelWidget_SetMomentumFalloffRate
                0x00000000       0x1c build/default/production/_ext/1071800814/libaria_widget_listwheel.o
 .text.laListWheelWidget_GetRotationUpdateRate
                0x00000000       0x18 build/default/production/_ext/1071800814/libaria_widget_listwheel.o
 .text.laListWheelWidget_SetRotationUpdateRate
                0x00000000       0x1c build/default/production/_ext/1071800814/libaria_widget_listwheel.o
 .text.laListWheelWidget_GetItemCount
                0x00000000       0x18 build/default/production/_ext/1071800814/libaria_widget_listwheel.o
 .text.laListWheelWidget_AppendItem
                0x00000000       0x90 build/default/production/_ext/1071800814/libaria_widget_listwheel.o
 .text.laListWheelWidget_InsertItem
                0x00000000       0x98 build/default/production/_ext/1071800814/libaria_widget_listwheel.o
 .text.laListWheelWidget_RemoveItem
                0x00000000       0xa4 build/default/production/_ext/1071800814/libaria_widget_listwheel.o
 .text.laListWheelWidget_RemoveAllItems
                0x00000000       0xb0 build/default/production/_ext/1071800814/libaria_widget_listwheel.o
 .text._laListWheelWidget_Destructor
                0x00000000       0x50 build/default/production/_ext/1071800814/libaria_widget_listwheel.o
 .text.laListWheelWidget_GetSelectedItem
                0x00000000       0x18 build/default/production/_ext/1071800814/libaria_widget_listwheel.o
 .text.laListWheelWidget_SetSelectedItem
                0x00000000       0x74 build/default/production/_ext/1071800814/libaria_widget_listwheel.o
 .text.laListWheelWidget_SelectPreviousItem
                0x00000000       0x80 build/default/production/_ext/1071800814/libaria_widget_listwheel.o
 .text.laListWheelWidget_SelectNextItem
                0x00000000       0x8c build/default/production/_ext/1071800814/libaria_widget_listwheel.o
 .text.laListWheelWidget_GetItemText
                0x00000000       0x58 build/default/production/_ext/1071800814/libaria_widget_listwheel.o
 .text.laListWheelWidget_SetItemText
                0x00000000       0x6c build/default/production/_ext/1071800814/libaria_widget_listwheel.o
 .text.laListWheelWidget_GetItemIcon
                0x00000000       0x3c build/default/production/_ext/1071800814/libaria_widget_listwheel.o
 .text.laListWheelWidget_SetItemIcon
                0x00000000       0x58 build/default/production/_ext/1071800814/libaria_widget_listwheel.o
 .text.laListWheelWidget_GetSelectedItemChangedEventCallback
                0x00000000       0x18 build/default/production/_ext/1071800814/libaria_widget_listwheel.o
 .text.laListWheelWidget_SetSelectedItemChangedEventCallback
                0x00000000       0x30 build/default/production/_ext/1071800814/libaria_widget_listwheel.o
 .text.laListWheelWidget_GetIndicatorFill
                0x00000000       0x18 build/default/production/_ext/1071800814/libaria_widget_listwheel.o
 .text.laListWheelWidget_SetIndicatorFill
                0x00000000       0x58 build/default/production/_ext/1071800814/libaria_widget_listwheel.o
 .text.laListWheelWidget_GetZoomEffects
                0x00000000       0x18 build/default/production/_ext/1071800814/libaria_widget_listwheel.o
 .text.laListWheelWidget_SetZoomEffects
                0x00000000       0x58 build/default/production/_ext/1071800814/libaria_widget_listwheel.o
 .text.laListWheelWidget_GetAutoHideWheel
                0x00000000       0x18 build/default/production/_ext/1071800814/libaria_widget_listwheel.o
 .text.laListWheelWidget_SetAutoHideWheel
                0x00000000       0x84 build/default/production/_ext/1071800814/libaria_widget_listwheel.o
 .text          0x00000000        0x0 build/default/production/_ext/1071800814/libaria_widget_listwheel_skin_classic.o
 .data          0x00000000        0x0 build/default/production/_ext/1071800814/libaria_widget_listwheel_skin_classic.o
 .bss           0x00000000        0x0 build/default/production/_ext/1071800814/libaria_widget_listwheel_skin_classic.o
 .reginfo       0x00000000       0x18 build/default/production/_ext/1071800814/libaria_widget_listwheel_skin_classic.o
 .text.nextItem
                0x00000000       0x30 build/default/production/_ext/1071800814/libaria_widget_listwheel_skin_classic.o
 .text.waitString
                0x00000000       0x74 build/default/production/_ext/1071800814/libaria_widget_listwheel_skin_classic.o
 .text.waitIcon
                0x00000000       0x74 build/default/production/_ext/1071800814/libaria_widget_listwheel_skin_classic.o
 .text.nextState
                0x00000000      0x15c build/default/production/_ext/1071800814/libaria_widget_listwheel_skin_classic.o
 .text.drawBorder
                0x00000000       0x58 build/default/production/_ext/1071800814/libaria_widget_listwheel_skin_classic.o
 .text.drawIndicators
                0x00000000      0x2a8 build/default/production/_ext/1071800814/libaria_widget_listwheel_skin_classic.o
 .text._laListWheelWidget_GetItemTextRect
                0x00000000      0x198 build/default/production/_ext/1071800814/libaria_widget_listwheel_skin_classic.o
 .text._laListWheelWidget_GetIndicatorRect
                0x00000000       0x74 build/default/production/_ext/1071800814/libaria_widget_listwheel_skin_classic.o
 .text.drawBackground
                0x00000000      0x378 build/default/production/_ext/1071800814/libaria_widget_listwheel_skin_classic.o
 .text._laListWheelWidget_ItemRectApplyEffects
                0x00000000      0x188 build/default/production/_ext/1071800814/libaria_widget_listwheel_skin_classic.o
 .text._laListWheelWidget_GetItemIconRect
                0x00000000      0x1f8 build/default/production/_ext/1071800814/libaria_widget_listwheel_skin_classic.o
 .text._laListWheelWidget_GetItemRect
                0x00000000       0xe8 build/default/production/_ext/1071800814/libaria_widget_listwheel_skin_classic.o
 .text.drawIcon
                0x00000000      0x5c0 build/default/production/_ext/1071800814/libaria_widget_listwheel_skin_classic.o
 .text.drawString
                0x00000000      0x5b0 build/default/production/_ext/1071800814/libaria_widget_listwheel_skin_classic.o
 .text._laListWheelWidget_Paint
                0x00000000       0xb8 build/default/production/_ext/1071800814/libaria_widget_listwheel_skin_classic.o
 .text          0x00000000        0x0 build/default/production/_ext/1071800814/libaria_widget_pie_chart.o
 .data          0x00000000        0x0 build/default/production/_ext/1071800814/libaria_widget_pie_chart.o
 .bss           0x00000000        0x0 build/default/production/_ext/1071800814/libaria_widget_pie_chart.o
 .reginfo       0x00000000       0x18 build/default/production/_ext/1071800814/libaria_widget_pie_chart.o
 .text.touchUp  0x00000000        0x8 build/default/production/_ext/1071800814/libaria_widget_pie_chart.o
 .text.touchMoved
                0x00000000        0x8 build/default/production/_ext/1071800814/libaria_widget_pie_chart.o
 .text.touchDown
                0x00000000      0x5b0 build/default/production/_ext/1071800814/libaria_widget_pie_chart.o
 .text._laPieChartWidget_Destructor
                0x00000000       0x30 build/default/production/_ext/1071800814/libaria_widget_pie_chart.o
 .text._laPieChartWidget_Constructor
                0x00000000       0xa0 build/default/production/_ext/1071800814/libaria_widget_pie_chart.o
 .text.laPieChartWidget_New
                0x00000000       0x58 build/default/production/_ext/1071800814/libaria_widget_pie_chart.o
 .text.laPieChartWidget_GetStartAngle
                0x00000000       0x18 build/default/production/_ext/1071800814/libaria_widget_pie_chart.o
 .text.laPieChartWidget_SetStartAngle
                0x00000000       0x44 build/default/production/_ext/1071800814/libaria_widget_pie_chart.o
 .text.laPieChartWidget_GetCenterAngle
                0x00000000       0x18 build/default/production/_ext/1071800814/libaria_widget_pie_chart.o
 .text.laPieChartWidget_SetCenterAngle
                0x00000000       0x44 build/default/production/_ext/1071800814/libaria_widget_pie_chart.o
 .text.laPieChartWidget_AddEntry
                0x00000000       0xb8 build/default/production/_ext/1071800814/libaria_widget_pie_chart.o
 .text.laPieChartWidget_DeletePies
                0x00000000       0x34 build/default/production/_ext/1071800814/libaria_widget_pie_chart.o
 .text.laPieChartWidget_GetEntryValue
                0x00000000       0x3c build/default/production/_ext/1071800814/libaria_widget_pie_chart.o
 .text.laPieChartWidget_SetEntryValue
                0x00000000       0x6c build/default/production/_ext/1071800814/libaria_widget_pie_chart.o
 .text.laPieChartWidget_GetEntryRadius
                0x00000000       0x3c build/default/production/_ext/1071800814/libaria_widget_pie_chart.o
 .text.laPieChartWidget_SetEntryRadius
                0x00000000       0x6c build/default/production/_ext/1071800814/libaria_widget_pie_chart.o
 .text.laPieChartWidget_GetEntryOffset
                0x00000000       0x3c build/default/production/_ext/1071800814/libaria_widget_pie_chart.o
 .text.laPieChartWidget_SetEntryOffset
                0x00000000       0x6c build/default/production/_ext/1071800814/libaria_widget_pie_chart.o
 .text.laPieChartWidget_SetEntryScheme
                0x00000000       0x64 build/default/production/_ext/1071800814/libaria_widget_pie_chart.o
 .text.laPieChartWidget_GetEntryScheme
                0x00000000       0x3c build/default/production/_ext/1071800814/libaria_widget_pie_chart.o
 .text.laPieChartWidget_SetPressedEventCallback
                0x00000000       0x1c build/default/production/_ext/1071800814/libaria_widget_pie_chart.o
 .text.laPieChartWidget_SetStringTable
                0x00000000       0x48 build/default/production/_ext/1071800814/libaria_widget_pie_chart.o
 .text.laPieChartWidget_SetLabelsStringID
                0x00000000       0x44 build/default/production/_ext/1071800814/libaria_widget_pie_chart.o
 .text.laPieChartWidget_GetLabelsVisible
                0x00000000       0x18 build/default/production/_ext/1071800814/libaria_widget_pie_chart.o
 .text.laPieChartWidget_SetLabelsVisible
                0x00000000       0x44 build/default/production/_ext/1071800814/libaria_widget_pie_chart.o
 .text.laPieChartWidget_GetLabelsOffset
                0x00000000       0x18 build/default/production/_ext/1071800814/libaria_widget_pie_chart.o
 .text.laPieChartWidget_SetLabelsOffset
                0x00000000       0x44 build/default/production/_ext/1071800814/libaria_widget_pie_chart.o
 .rodata        0x00000000        0x8 build/default/production/_ext/1071800814/libaria_widget_pie_chart.o
 .text          0x00000000        0x0 build/default/production/_ext/1071800814/libaria_widget_pie_chart_skin_classic.o
 .data          0x00000000        0x0 build/default/production/_ext/1071800814/libaria_widget_pie_chart_skin_classic.o
 .bss           0x00000000        0x0 build/default/production/_ext/1071800814/libaria_widget_pie_chart_skin_classic.o
 .reginfo       0x00000000       0x18 build/default/production/_ext/1071800814/libaria_widget_pie_chart_skin_classic.o
 .text.nextState
                0x00000000       0xa8 build/default/production/_ext/1071800814/libaria_widget_pie_chart_skin_classic.o
 .text.drawBorder
                0x00000000       0x58 build/default/production/_ext/1071800814/libaria_widget_pie_chart_skin_classic.o
 .rodata        0x00000000        0x8 build/default/production/_ext/1071800814/libaria_widget_pie_chart_skin_classic.o
 .text.drawPieChart
                0x00000000      0x774 build/default/production/_ext/1071800814/libaria_widget_pie_chart_skin_classic.o
 .text.drawBackground
                0x00000000       0x2c build/default/production/_ext/1071800814/libaria_widget_pie_chart_skin_classic.o
 .text._laPieChartWidget_Paint
                0x00000000       0x9c build/default/production/_ext/1071800814/libaria_widget_pie_chart_skin_classic.o
 .text          0x00000000        0x0 build/default/production/_ext/1071800814/libaria_widget_progressbar.o
 .data          0x00000000        0x0 build/default/production/_ext/1071800814/libaria_widget_progressbar.o
 .bss           0x00000000        0x0 build/default/production/_ext/1071800814/libaria_widget_progressbar.o
 .reginfo       0x00000000       0x18 build/default/production/_ext/1071800814/libaria_widget_progressbar.o
 .text._laProgressBarWidget_Destructor
                0x00000000       0x1c build/default/production/_ext/1071800814/libaria_widget_progressbar.o
 .text._laProgressBarWidget_Constructor
                0x00000000       0x64 build/default/production/_ext/1071800814/libaria_widget_progressbar.o
 .text.laProgressBarWidget_New
                0x00000000       0x58 build/default/production/_ext/1071800814/libaria_widget_progressbar.o
 .text.laProgressBarWidget_GetDirection
                0x00000000       0x18 build/default/production/_ext/1071800814/libaria_widget_progressbar.o
 .text.laProgressBarWidget_SetDirection
                0x00000000       0x44 build/default/production/_ext/1071800814/libaria_widget_progressbar.o
 .text.laProgressBarWidget_GetValue
                0x00000000       0x18 build/default/production/_ext/1071800814/libaria_widget_progressbar.o
 .text.laProgressBarWidget_SetValue
                0x00000000       0x98 build/default/production/_ext/1071800814/libaria_widget_progressbar.o
 .text.laProgressBarWidget_GetValueChangedEventCallback
                0x00000000       0x18 build/default/production/_ext/1071800814/libaria_widget_progressbar.o
 .text.laProgressBarWidget_SetValueChangedCallback
                0x00000000       0x1c build/default/production/_ext/1071800814/libaria_widget_progressbar.o
 .text          0x00000000        0x0 build/default/production/_ext/1071800814/libaria_widget_progressbar_skin_classic.o
 .data          0x00000000        0x0 build/default/production/_ext/1071800814/libaria_widget_progressbar_skin_classic.o
 .bss           0x00000000        0x0 build/default/production/_ext/1071800814/libaria_widget_progressbar_skin_classic.o
 .reginfo       0x00000000       0x18 build/default/production/_ext/1071800814/libaria_widget_progressbar_skin_classic.o
 .text.nextState
                0x00000000       0xb4 build/default/production/_ext/1071800814/libaria_widget_progressbar_skin_classic.o
 .text.drawBorder
                0x00000000       0x58 build/default/production/_ext/1071800814/libaria_widget_progressbar_skin_classic.o
 .text.drawBackground
                0x00000000       0x5c build/default/production/_ext/1071800814/libaria_widget_progressbar_skin_classic.o
 .text._laProgressBarWidget_GetBarRect
                0x00000000      0x17c build/default/production/_ext/1071800814/libaria_widget_progressbar_skin_classic.o
 .text.drawFill
                0x00000000       0xa4 build/default/production/_ext/1071800814/libaria_widget_progressbar_skin_classic.o
 .text._laProgressBarWidget_Paint
                0x00000000       0x9c build/default/production/_ext/1071800814/libaria_widget_progressbar_skin_classic.o
 .text          0x00000000        0x0 build/default/production/_ext/1071800814/libaria_widget_radial_menu.o
 .data          0x00000000        0x0 build/default/production/_ext/1071800814/libaria_widget_radial_menu.o
 .bss           0x00000000        0x0 build/default/production/_ext/1071800814/libaria_widget_radial_menu.o
 .reginfo       0x00000000       0x18 build/default/production/_ext/1071800814/libaria_widget_radial_menu.o
 .text._laRadialMenuWidget_Resized
                0x00000000       0x14 build/default/production/_ext/1071800814/libaria_widget_radial_menu.o
 .text._laRadialMenuWidget_GetWidgetItem
                0x00000000       0x94 build/default/production/_ext/1071800814/libaria_widget_radial_menu.o
 .text._laRadialMenuWidget_DeriveWidestTallestItem
                0x00000000      0x1f0 build/default/production/_ext/1071800814/libaria_widget_radial_menu.o
 .text._laRadialMenuWidget_RotateMenuItems
                0x00000000      0x1f0 build/default/production/_ext/1071800814/libaria_widget_radial_menu.o
 .text._laRadialMenuWidget_RespaceItems
                0x00000000      0x188 build/default/production/_ext/1071800814/libaria_widget_radial_menu.o
 .text.invalidateContents
                0x00000000       0x34 build/default/production/_ext/1071800814/libaria_widget_radial_menu.o
 .text.languageChanging
                0x00000000       0x1c build/default/production/_ext/1071800814/libaria_widget_radial_menu.o
 .text._laRadialMenuWidget_TouchMovedEvent
                0x00000000      0x1a0 build/default/production/_ext/1071800814/libaria_widget_radial_menu.o
 .text._laRadialMenuWidget_Destructor
                0x00000000       0x58 build/default/production/_ext/1071800814/libaria_widget_radial_menu.o
 .text.laRadialMenuWidget_New
                0x00000000      0x140 build/default/production/_ext/1071800814/libaria_widget_radial_menu.o
 .text.laRadialMenuWidget_SetHighlightProminent
                0x00000000       0x30 build/default/production/_ext/1071800814/libaria_widget_radial_menu.o
 .text.laRadialMenuWidget_IsProminent
                0x00000000       0x80 build/default/production/_ext/1071800814/libaria_widget_radial_menu.o
 .text._laRadialMenuWidget_TouchUpEvent
                0x00000000      0x144 build/default/production/_ext/1071800814/libaria_widget_radial_menu.o
 .text._laRadialMenuWidget_TouchDownEvent
                0x00000000      0x150 build/default/production/_ext/1071800814/libaria_widget_radial_menu.o
 .text.laRadialMenuWidget_SetProminent
                0x00000000       0x64 build/default/production/_ext/1071800814/libaria_widget_radial_menu.o
 .text.laRadialMenuWidget_GetProminentIndex
                0x00000000       0xa4 build/default/production/_ext/1071800814/libaria_widget_radial_menu.o
 .text._laRadialMenuWidget_Update
                0x00000000      0x578 build/default/production/_ext/1071800814/libaria_widget_radial_menu.o
 .text.laRadialMenuWidget_SetProminentIndex
                0x00000000       0x70 build/default/production/_ext/1071800814/libaria_widget_radial_menu.o
 .text.laRadialMenuWidget_GetWidget
                0x00000000       0x5c build/default/production/_ext/1071800814/libaria_widget_radial_menu.o
 .text.laRadialMenuWidget_SetNumberOfItemsShown
                0x00000000       0x60 build/default/production/_ext/1071800814/libaria_widget_radial_menu.o
 .text.laRadialMenuWidget_SetWidgetAt
                0x00000000      0x178 build/default/production/_ext/1071800814/libaria_widget_radial_menu.o
 .text.laRadialMenuWidget_AddWidget
                0x00000000      0x14c build/default/production/_ext/1071800814/libaria_widget_radial_menu.o
 .text.laRadialMenuWidget_RemoveWidget
                0x00000000      0x104 build/default/production/_ext/1071800814/libaria_widget_radial_menu.o
 .text.laRadialMenuWidget_ClearItems
                0x00000000       0xec build/default/production/_ext/1071800814/libaria_widget_radial_menu.o
 .text.laRadialMenuWidget_SetSizeScaling
                0x00000000       0x48 build/default/production/_ext/1071800814/libaria_widget_radial_menu.o
 .text.laRadialMenuWidget_SetAlphaScaling
                0x00000000       0xb8 build/default/production/_ext/1071800814/libaria_widget_radial_menu.o
 .text.laRadialMenuWidget_SetSizeScaleMinMax
                0x00000000       0x70 build/default/production/_ext/1071800814/libaria_widget_radial_menu.o
 .text.laRadialMenuWidget_SetAlphaScaleMinMax
                0x00000000       0x68 build/default/production/_ext/1071800814/libaria_widget_radial_menu.o
 .text.laRadialMenuWidget_SetDrawEllipse
                0x00000000       0x34 build/default/production/_ext/1071800814/libaria_widget_radial_menu.o
 .text.laRadialMenuWidget_SetTouchArea
                0x00000000       0x2c build/default/production/_ext/1071800814/libaria_widget_radial_menu.o
 .text.laRadialMenuWidget_SetEllipseType
                0x00000000       0x34 build/default/production/_ext/1071800814/libaria_widget_radial_menu.o
 .text.laRadialMenuWidget_GetTheta
                0x00000000       0x18 build/default/production/_ext/1071800814/libaria_widget_radial_menu.o
 .text.laRadialMenuWidget_SetTheta
                0x00000000       0x54 build/default/production/_ext/1071800814/libaria_widget_radial_menu.o
 .text.laRadialMenuWidget_GetItemSelectedEventCallback
                0x00000000       0x18 build/default/production/_ext/1071800814/libaria_widget_radial_menu.o
 .text.laRadialMenuWidget_SetItemSelectedEventCallback
                0x00000000       0x30 build/default/production/_ext/1071800814/libaria_widget_radial_menu.o
 .text.laRadialMenuWidget_SetItemProminenceChangedEventCallback
                0x00000000       0x30 build/default/production/_ext/1071800814/libaria_widget_radial_menu.o
 .text.laRadialMenuWidget_GetItemProminenceChangeddEventCallback
                0x00000000       0x18 build/default/production/_ext/1071800814/libaria_widget_radial_menu.o
 .text.laRadialMenuWidget_SetDeselectedEventCallback
                0x00000000       0x30 build/default/production/_ext/1071800814/libaria_widget_radial_menu.o
 .text          0x00000000        0x0 build/default/production/_ext/1071800814/libaria_widget_radial_menu_skin_classic.o
 .data          0x00000000        0x0 build/default/production/_ext/1071800814/libaria_widget_radial_menu_skin_classic.o
 .bss           0x00000000        0x0 build/default/production/_ext/1071800814/libaria_widget_radial_menu_skin_classic.o
 .reginfo       0x00000000       0x18 build/default/production/_ext/1071800814/libaria_widget_radial_menu_skin_classic.o
 .text.nextState
                0x00000000       0xd8 build/default/production/_ext/1071800814/libaria_widget_radial_menu_skin_classic.o
 .text.drawEllipse
                0x00000000       0xd4 build/default/production/_ext/1071800814/libaria_widget_radial_menu_skin_classic.o
 .text.drawBackground
                0x00000000       0x34 build/default/production/_ext/1071800814/libaria_widget_radial_menu_skin_classic.o
 .text._weighAngle
                0x00000000       0x50 build/default/production/_ext/1071800814/libaria_widget_radial_menu_skin_classic.o
 .text.arrangeItems
                0x00000000      0x43c build/default/production/_ext/1071800814/libaria_widget_radial_menu_skin_classic.o
 .text._laRadialMenuWidget_Paint
                0x00000000       0x9c build/default/production/_ext/1071800814/libaria_widget_radial_menu_skin_classic.o
 .text          0x00000000        0x0 build/default/production/_ext/1071800814/libaria_widget_radiobutton.o
 .data          0x00000000        0x0 build/default/production/_ext/1071800814/libaria_widget_radiobutton.o
 .bss           0x00000000        0x0 build/default/production/_ext/1071800814/libaria_widget_radiobutton.o
 .reginfo       0x00000000       0x18 build/default/production/_ext/1071800814/libaria_widget_radiobutton.o
 .text.touchMoved
                0x00000000        0xc build/default/production/_ext/1071800814/libaria_widget_radiobutton.o
 .text.touchDown
                0x00000000       0xac build/default/production/_ext/1071800814/libaria_widget_radiobutton.o
 .text.touchUp  0x00000000       0xb4 build/default/production/_ext/1071800814/libaria_widget_radiobutton.o
 .text.invalidateContents
                0x00000000       0x7c build/default/production/_ext/1071800814/libaria_widget_radiobutton.o
 .text.languageChanging
                0x00000000       0x38 build/default/production/_ext/1071800814/libaria_widget_radiobutton.o
 .text._laRadioButtonWidget_Destructor
                0x00000000       0x68 build/default/production/_ext/1071800814/libaria_widget_radiobutton.o
 .text.laRadioButtonWidget_New
                0x00000000       0xf4 build/default/production/_ext/1071800814/libaria_widget_radiobutton.o
 .text.laRadioButtonWidget_GetGroup
                0x00000000       0x18 build/default/production/_ext/1071800814/libaria_widget_radiobutton.o
 .text.laRadioButtonWidget_GetSelected
                0x00000000       0x34 build/default/production/_ext/1071800814/libaria_widget_radiobutton.o
 .text.laRadioButtonWidget_SetSelected
                0x00000000       0x80 build/default/production/_ext/1071800814/libaria_widget_radiobutton.o
 .text._laRadioButtonWidget_Select
                0x00000000       0x58 build/default/production/_ext/1071800814/libaria_widget_radiobutton.o
 .text._laRadioButtonWidget_Deselect
                0x00000000       0x50 build/default/production/_ext/1071800814/libaria_widget_radiobutton.o
 .text.laRadioButtonWidget_GetHAlignment
                0x00000000       0x18 build/default/production/_ext/1071800814/libaria_widget_radiobutton.o
 .text.laRadioButtonWidget_SetHAlignment
                0x00000000       0x5c build/default/production/_ext/1071800814/libaria_widget_radiobutton.o
 .text.laRadioButtonWidget_GetVAlignment
                0x00000000       0x18 build/default/production/_ext/1071800814/libaria_widget_radiobutton.o
 .text.laRadioButtonWidget_SetVAlignment
                0x00000000       0x60 build/default/production/_ext/1071800814/libaria_widget_radiobutton.o
 .text.laRadioButtonWidget_GetText
                0x00000000       0x38 build/default/production/_ext/1071800814/libaria_widget_radiobutton.o
 .text.laRadioButtonWidget_SetText
                0x00000000       0x7c build/default/production/_ext/1071800814/libaria_widget_radiobutton.o
 .text.laRadioButtonWidget_GetSelectedImage
                0x00000000       0x18 build/default/production/_ext/1071800814/libaria_widget_radiobutton.o
 .text.laRadioButtonWidget_SetSelectedImage
                0x00000000       0x60 build/default/production/_ext/1071800814/libaria_widget_radiobutton.o
 .text.laRadioButtonWidget_GetUnselectedImage
                0x00000000       0x18 build/default/production/_ext/1071800814/libaria_widget_radiobutton.o
 .text.laRadioButtonWidget_SetUnselectedImage
                0x00000000       0x60 build/default/production/_ext/1071800814/libaria_widget_radiobutton.o
 .text.laRadioButtonWidget_GetImagePosition
                0x00000000       0x18 build/default/production/_ext/1071800814/libaria_widget_radiobutton.o
 .text.laRadioButtonWidget_SetImagePosition
                0x00000000       0x5c build/default/production/_ext/1071800814/libaria_widget_radiobutton.o
 .text.laRadioButtonWidget_GetImageMargin
                0x00000000       0x18 build/default/production/_ext/1071800814/libaria_widget_radiobutton.o
 .text.laRadioButtonWidget_SetImageMargin
                0x00000000       0x5c build/default/production/_ext/1071800814/libaria_widget_radiobutton.o
 .text.laRadioButtonWidget_GetSelectedEventCallback
                0x00000000       0x18 build/default/production/_ext/1071800814/libaria_widget_radiobutton.o
 .text.laRadioButtonWidget_SetSelectedEventCallback
                0x00000000       0x30 build/default/production/_ext/1071800814/libaria_widget_radiobutton.o
 .text.laRadioButtonWidget_GetDeselectedEventCallback
                0x00000000       0x18 build/default/production/_ext/1071800814/libaria_widget_radiobutton.o
 .text.laRadioButtonWidget_SetDeselectedEventCallback
                0x00000000       0x30 build/default/production/_ext/1071800814/libaria_widget_radiobutton.o
 .text.laRadioButtonWidget_GetCircleButtonSize
                0x00000000       0x18 build/default/production/_ext/1071800814/libaria_widget_radiobutton.o
 .text.laRadioButtonWidget_SetCircleButtonSize
                0x00000000       0x88 build/default/production/_ext/1071800814/libaria_widget_radiobutton.o
 .text          0x00000000        0x0 build/default/production/_ext/1071800814/libaria_widget_radiobutton_skin_classic.o
 .data          0x00000000        0x0 build/default/production/_ext/1071800814/libaria_widget_radiobutton_skin_classic.o
 .bss           0x00000000        0x0 build/default/production/_ext/1071800814/libaria_widget_radiobutton_skin_classic.o
 .reginfo       0x00000000       0x18 build/default/production/_ext/1071800814/libaria_widget_radiobutton_skin_classic.o
 .text.nextState
                0x00000000      0x100 build/default/production/_ext/1071800814/libaria_widget_radiobutton_skin_classic.o
 .text.waitString
                0x00000000       0x68 build/default/production/_ext/1071800814/libaria_widget_radiobutton_skin_classic.o
 .text.waitImage
                0x00000000       0x68 build/default/production/_ext/1071800814/libaria_widget_radiobutton_skin_classic.o
 .text.drawBorder
                0x00000000       0x58 build/default/production/_ext/1071800814/libaria_widget_radiobutton_skin_classic.o
 .text.drawBackground
                0x00000000       0x2c build/default/production/_ext/1071800814/libaria_widget_radiobutton_skin_classic.o
 .text._laRadioButtonWidget_GetImageRect
                0x00000000      0x1a4 build/default/production/_ext/1071800814/libaria_widget_radiobutton_skin_classic.o
 .text.drawImage
                0x00000000      0x7cc build/default/production/_ext/1071800814/libaria_widget_radiobutton_skin_classic.o
 .text._laRadioButtonWidget_GetTextRect
                0x00000000      0x184 build/default/production/_ext/1071800814/libaria_widget_radiobutton_skin_classic.o
 .text.drawString
                0x00000000       0xe0 build/default/production/_ext/1071800814/libaria_widget_radiobutton_skin_classic.o
 .text._laRadioButtonWidget_Paint
                0x00000000       0xb8 build/default/production/_ext/1071800814/libaria_widget_radiobutton_skin_classic.o
 .text          0x00000000        0x0 build/default/production/_ext/1071800814/libaria_radiobutton_group.o
 .data          0x00000000        0x0 build/default/production/_ext/1071800814/libaria_radiobutton_group.o
 .bss           0x00000000        0x0 build/default/production/_ext/1071800814/libaria_radiobutton_group.o
 .reginfo       0x00000000       0x18 build/default/production/_ext/1071800814/libaria_radiobutton_group.o
 .text.laRadioButtonGroup_Create
                0x00000000       0x8c build/default/production/_ext/1071800814/libaria_radiobutton_group.o
 .text.laRadioButtonGroup_Destroy
                0x00000000       0x40 build/default/production/_ext/1071800814/libaria_radiobutton_group.o
 .text.laRadioButtonGroup_AddButton
                0x00000000       0x88 build/default/production/_ext/1071800814/libaria_radiobutton_group.o
 .text.laRadioButtonGroup_RemoveButton
                0x00000000       0x8c build/default/production/_ext/1071800814/libaria_radiobutton_group.o
 .text.laRadioButtonGroup_SelectButton
                0x00000000       0x84 build/default/production/_ext/1071800814/libaria_radiobutton_group.o
 .text          0x00000000        0x0 build/default/production/_ext/1071800814/libaria_widget_rectangle.o
 .data          0x00000000        0x0 build/default/production/_ext/1071800814/libaria_widget_rectangle.o
 .bss           0x00000000        0x0 build/default/production/_ext/1071800814/libaria_widget_rectangle.o
 .reginfo       0x00000000       0x18 build/default/production/_ext/1071800814/libaria_widget_rectangle.o
 .text._laRectangleWidget_Destructor
                0x00000000       0x1c build/default/production/_ext/1071800814/libaria_widget_rectangle.o
 .text.laRectangleWidget_New
                0x00000000       0x98 build/default/production/_ext/1071800814/libaria_widget_rectangle.o
 .text.laRectangleWidget_GetThickness
                0x00000000       0x18 build/default/production/_ext/1071800814/libaria_widget_rectangle.o
 .text.laRectangleWidget_SetThickness
                0x00000000       0x68 build/default/production/_ext/1071800814/libaria_widget_rectangle.o
 .text          0x00000000        0x0 build/default/production/_ext/1071800814/libaria_widget_rectangle_skin_classic.o
 .data          0x00000000        0x0 build/default/production/_ext/1071800814/libaria_widget_rectangle_skin_classic.o
 .bss           0x00000000        0x0 build/default/production/_ext/1071800814/libaria_widget_rectangle_skin_classic.o
 .reginfo       0x00000000       0x18 build/default/production/_ext/1071800814/libaria_widget_rectangle_skin_classic.o
 .text.nextState
                0x00000000       0xb0 build/default/production/_ext/1071800814/libaria_widget_rectangle_skin_classic.o
 .text.drawBorder
                0x00000000       0x58 build/default/production/_ext/1071800814/libaria_widget_rectangle_skin_classic.o
 .text.drawEdge
                0x00000000      0x21c build/default/production/_ext/1071800814/libaria_widget_rectangle_skin_classic.o
 .text.drawBackground
                0x00000000       0x2c build/default/production/_ext/1071800814/libaria_widget_rectangle_skin_classic.o
 .text._laRectangleWidget_InvalidateRect
                0x00000000      0x13c build/default/production/_ext/1071800814/libaria_widget_rectangle_skin_classic.o
 .text._laRectangleWidget_Paint
                0x00000000       0x9c build/default/production/_ext/1071800814/libaria_widget_rectangle_skin_classic.o
 .text          0x00000000        0x0 build/default/production/_ext/1071800814/libaria_widget_scrollbar.o
 .data          0x00000000        0x0 build/default/production/_ext/1071800814/libaria_widget_scrollbar.o
 .bss           0x00000000        0x0 build/default/production/_ext/1071800814/libaria_widget_scrollbar.o
 .reginfo       0x00000000       0x18 build/default/production/_ext/1071800814/libaria_widget_scrollbar.o
 .text._laScrollBarWidget_Destructor
                0x00000000       0x1c build/default/production/_ext/1071800814/libaria_widget_scrollbar.o
 .text.invalidateHandleRect
                0x00000000       0x40 build/default/production/_ext/1071800814/libaria_widget_scrollbar.o
 .text.invalidateScrollArea
                0x00000000       0x40 build/default/production/_ext/1071800814/libaria_widget_scrollbar.o
 .text.invalidateUpLeftButton
                0x00000000       0x40 build/default/production/_ext/1071800814/libaria_widget_scrollbar.o
 .text.invalidateDownRightButton
                0x00000000       0x40 build/default/production/_ext/1071800814/libaria_widget_scrollbar.o
 .text._laScrollBarWidget_TouchDownEvent
                0x00000000      0x100 build/default/production/_ext/1071800814/libaria_widget_scrollbar.o
 .text._laScrollWidget_GetExtent
                0x00000000       0x1c build/default/production/_ext/1071800814/libaria_widget_scrollbar.o
 .text._laScrollBar_GetPercentFromPoint
                0x00000000       0xcc build/default/production/_ext/1071800814/libaria_widget_scrollbar.o
 .text._laScrollBar_GetValueFromPercent
                0x00000000       0x3c build/default/production/_ext/1071800814/libaria_widget_scrollbar.o
 .text._laScrollBarWidget_Constructor
                0x00000000       0xa8 build/default/production/_ext/1071800814/libaria_widget_scrollbar.o
 .text.laScrollBarWidget_New
                0x00000000       0x50 build/default/production/_ext/1071800814/libaria_widget_scrollbar.o
 .text.laScrollBarWidget_GetOrientation
                0x00000000       0x18 build/default/production/_ext/1071800814/libaria_widget_scrollbar.o
 .text.laScrollBarWidget_SetOrientation
                0x00000000       0x64 build/default/production/_ext/1071800814/libaria_widget_scrollbar.o
 .text.laScrollBarWidget_GetValueChangedEventCallback
                0x00000000       0x18 build/default/production/_ext/1071800814/libaria_widget_scrollbar.o
 .text.laScrollBarWidget_GetMaxinumValue
                0x00000000       0x18 build/default/production/_ext/1071800814/libaria_widget_scrollbar.o
 .text.laScrollBarWidget_SetMaximumValue
                0x00000000       0x44 build/default/production/_ext/1071800814/libaria_widget_scrollbar.o
 .text.laScrollBarWidget_GetExtentValue
                0x00000000       0x18 build/default/production/_ext/1071800814/libaria_widget_scrollbar.o
 .text.laScrollBarWidget_SetExtentValue
                0x00000000       0x44 build/default/production/_ext/1071800814/libaria_widget_scrollbar.o
 .text.laScrollBarWidget_GetScrollPercentage
                0x00000000       0x34 build/default/production/_ext/1071800814/libaria_widget_scrollbar.o
 .text.laScrollBarWidget_SetScrollPercentage
                0x00000000       0x5c build/default/production/_ext/1071800814/libaria_widget_scrollbar.o
 .text.laScrollBarWidget_GetScrollValue
                0x00000000       0x18 build/default/production/_ext/1071800814/libaria_widget_scrollbar.o
 .text.laScrollBarWidget_SetScrollValue
                0x00000000       0x78 build/default/production/_ext/1071800814/libaria_widget_scrollbar.o
 .text._laScrollBarWidget_TouchMovedEvent
                0x00000000      0x1cc build/default/production/_ext/1071800814/libaria_widget_scrollbar.o
 .text.laScrollBarWidget_GetStepSize
                0x00000000       0x18 build/default/production/_ext/1071800814/libaria_widget_scrollbar.o
 .text.laScrollBarWidget_SetStepSize
                0x00000000       0x1c build/default/production/_ext/1071800814/libaria_widget_scrollbar.o
 .text.laScrollBarWidget_StepBackward
                0x00000000       0x7c build/default/production/_ext/1071800814/libaria_widget_scrollbar.o
 .text.laScrollBarWidget_StepForward
                0x00000000       0x80 build/default/production/_ext/1071800814/libaria_widget_scrollbar.o
 .text._laScrollBarWidget_TouchUpEvent
                0x00000000       0xec build/default/production/_ext/1071800814/libaria_widget_scrollbar.o
 .text.laScrollBarWidget_SetValueChangedEventCallback
                0x00000000       0x30 build/default/production/_ext/1071800814/libaria_widget_scrollbar.o
 .text          0x00000000        0x0 build/default/production/_ext/1071800814/libaria_widget_scrollbar_skin_classic.o
 .data          0x00000000        0x0 build/default/production/_ext/1071800814/libaria_widget_scrollbar_skin_classic.o
 .bss           0x00000000        0x0 build/default/production/_ext/1071800814/libaria_widget_scrollbar_skin_classic.o
 .reginfo       0x00000000       0x18 build/default/production/_ext/1071800814/libaria_widget_scrollbar_skin_classic.o
 .text.nextState
                0x00000000       0xb8 build/default/production/_ext/1071800814/libaria_widget_scrollbar_skin_classic.o
 .text._laScrollBar_GetUpLeftButtonRect
                0x00000000       0x48 build/default/production/_ext/1071800814/libaria_widget_scrollbar_skin_classic.o
 .text.drawUpButton
                0x00000000      0x2a0 build/default/production/_ext/1071800814/libaria_widget_scrollbar_skin_classic.o
 .text._laScrollBar_GetDownRightButtonRect
                0x00000000       0x60 build/default/production/_ext/1071800814/libaria_widget_scrollbar_skin_classic.o
 .text.drawDownButton
                0x00000000      0x2cc build/default/production/_ext/1071800814/libaria_widget_scrollbar_skin_classic.o
 .text._laScrollBar_GetScrollAreaRect
                0x00000000       0x64 build/default/production/_ext/1071800814/libaria_widget_scrollbar_skin_classic.o
 .text.drawBackground
                0x00000000       0x84 build/default/production/_ext/1071800814/libaria_widget_scrollbar_skin_classic.o
 .text._laScrollBar_GetHandleRect
                0x00000000       0xf8 build/default/production/_ext/1071800814/libaria_widget_scrollbar_skin_classic.o
 .text.drawHandle
                0x00000000       0xac build/default/production/_ext/1071800814/libaria_widget_scrollbar_skin_classic.o
 .text._laScrollBarWidget_InvalidateBorderAreas
                0x00000000       0x1c build/default/production/_ext/1071800814/libaria_widget_scrollbar_skin_classic.o
 .text._laScrollBarWidget_Paint
                0x00000000       0x9c build/default/production/_ext/1071800814/libaria_widget_scrollbar_skin_classic.o
 .text          0x00000000        0x0 build/default/production/_ext/1071800814/libaria_widget_slider.o
 .data          0x00000000        0x0 build/default/production/_ext/1071800814/libaria_widget_slider.o
 .bss           0x00000000        0x0 build/default/production/_ext/1071800814/libaria_widget_slider.o
 .reginfo       0x00000000       0x18 build/default/production/_ext/1071800814/libaria_widget_slider.o
 .text._laSliderWidget_Update
                0x00000000        0x8 build/default/production/_ext/1071800814/libaria_widget_slider.o
 .text._laSliderWidget_TouchUpEvent
                0x00000000       0x10 build/default/production/_ext/1071800814/libaria_widget_slider.o
 .text._laSliderWidget_Destructor
                0x00000000       0x1c build/default/production/_ext/1071800814/libaria_widget_slider.o
 .text.invalidateHandle
                0x00000000       0x40 build/default/production/_ext/1071800814/libaria_widget_slider.o
 .text._laSliderWidget_GetPercentFromPoint
                0x00000000       0xb4 build/default/production/_ext/1071800814/libaria_widget_slider.o
 .text._laSliderWidget_GetValueFromPercent
                0x00000000       0x54 build/default/production/_ext/1071800814/libaria_widget_slider.o
 .text._laSliderWidget_TouchDownEvent
                0x00000000      0x128 build/default/production/_ext/1071800814/libaria_widget_slider.o
 .text._laSliderWidget_TouchMovedEvent
                0x00000000       0xac build/default/production/_ext/1071800814/libaria_widget_slider.o
 .text._laSliderWidget_Constructor
                0x00000000       0xb8 build/default/production/_ext/1071800814/libaria_widget_slider.o
 .text.laSliderWidget_New
                0x00000000       0x50 build/default/production/_ext/1071800814/libaria_widget_slider.o
 .text.laSliderWidget_GetOrientation
                0x00000000       0x18 build/default/production/_ext/1071800814/libaria_widget_slider.o
 .text.laSliderWidget_SetOrientation
                0x00000000       0x64 build/default/production/_ext/1071800814/libaria_widget_slider.o
 .text.laSliderWidget_GetGripSize
                0x00000000       0x18 build/default/production/_ext/1071800814/libaria_widget_slider.o
 .text.laSliderWidget_SetGripSize
                0x00000000       0x5c build/default/production/_ext/1071800814/libaria_widget_slider.o
 .text.laSliderWidget_GetMininumValue
                0x00000000       0x18 build/default/production/_ext/1071800814/libaria_widget_slider.o
 .text.laSliderWidget_SetMinimumValue
                0x00000000       0x70 build/default/production/_ext/1071800814/libaria_widget_slider.o
 .text.laSliderWidget_GetMaxinumValue
                0x00000000       0x18 build/default/production/_ext/1071800814/libaria_widget_slider.o
 .text.laSliderWidget_SetMaximumValue
                0x00000000       0x70 build/default/production/_ext/1071800814/libaria_widget_slider.o
 .text.laSliderWidget_GetSliderPercentage
                0x00000000       0x3c build/default/production/_ext/1071800814/libaria_widget_slider.o
 .text.laSliderWidget_SetSliderPercentage
                0x00000000       0x84 build/default/production/_ext/1071800814/libaria_widget_slider.o
 .text.laSliderWidget_GetSliderValue
                0x00000000       0x18 build/default/production/_ext/1071800814/libaria_widget_slider.o
 .text.laSliderWidget_SetSliderValue
                0x00000000       0x84 build/default/production/_ext/1071800814/libaria_widget_slider.o
 .text.laSliderWidget_Step
                0x00000000       0xac build/default/production/_ext/1071800814/libaria_widget_slider.o
 .text.laSliderWidget_GetValueChangedEventCallback
                0x00000000       0x18 build/default/production/_ext/1071800814/libaria_widget_slider.o
 .text.laSliderWidget_SetValueChangedEventCallback
                0x00000000       0x30 build/default/production/_ext/1071800814/libaria_widget_slider.o
 .text          0x00000000        0x0 build/default/production/_ext/1071800814/libaria_widget_slider_skin_classic.o
 .data          0x00000000        0x0 build/default/production/_ext/1071800814/libaria_widget_slider_skin_classic.o
 .bss           0x00000000        0x0 build/default/production/_ext/1071800814/libaria_widget_slider_skin_classic.o
 .reginfo       0x00000000       0x18 build/default/production/_ext/1071800814/libaria_widget_slider_skin_classic.o
 .text.nextState
                0x00000000       0x9c build/default/production/_ext/1071800814/libaria_widget_slider_skin_classic.o
 .text.drawBackground
                0x00000000       0x2c build/default/production/_ext/1071800814/libaria_widget_slider_skin_classic.o
 .text._laSliderWidget_GetSlideAreaRect
                0x00000000       0xe4 build/default/production/_ext/1071800814/libaria_widget_slider_skin_classic.o
 .text.drawBar  0x00000000       0xb0 build/default/production/_ext/1071800814/libaria_widget_slider_skin_classic.o
 .text._laSliderWidget_GetHandleRect
                0x00000000       0xf4 build/default/production/_ext/1071800814/libaria_widget_slider_skin_classic.o
 .text.drawHandle
                0x00000000       0xac build/default/production/_ext/1071800814/libaria_widget_slider_skin_classic.o
 .text._laSliderWidget_InvalidateBorderAreas
                0x00000000       0x1c build/default/production/_ext/1071800814/libaria_widget_slider_skin_classic.o
 .text._laSliderWidget_Paint
                0x00000000       0x9c build/default/production/_ext/1071800814/libaria_widget_slider_skin_classic.o
 .text          0x00000000        0x0 build/default/production/_ext/1071800814/libaria_widget_textfield.o
 .data          0x00000000        0x0 build/default/production/_ext/1071800814/libaria_widget_textfield.o
 .bss           0x00000000        0x0 build/default/production/_ext/1071800814/libaria_widget_textfield.o
 .reginfo       0x00000000       0x18 build/default/production/_ext/1071800814/libaria_widget_textfield.o
 .text._laTextFieldWidget_FocusLost
                0x00000000        0x8 build/default/production/_ext/1071800814/libaria_widget_textfield.o
 .text._laTextFieldWidget_TouchUpEvent
                0x00000000        0xc build/default/production/_ext/1071800814/libaria_widget_textfield.o
 .text._laTextFieldWidget_TouchMovedEvent
                0x00000000        0xc build/default/production/_ext/1071800814/libaria_widget_textfield.o
 .text.invalidateText
                0x00000000       0x44 build/default/production/_ext/1071800814/libaria_widget_textfield.o
 .text.invalidateCursor
                0x00000000       0x40 build/default/production/_ext/1071800814/libaria_widget_textfield.o
 .text.backspace
                0x00000000       0xa8 build/default/production/_ext/1071800814/libaria_widget_textfield.o
 .text.endEdit  0x00000000       0x20 build/default/production/_ext/1071800814/libaria_widget_textfield.o
 .text.set      0x00000000       0x88 build/default/production/_ext/1071800814/libaria_widget_textfield.o
 .text.append   0x00000000       0xb8 build/default/production/_ext/1071800814/libaria_widget_textfield.o
 .text.accept   0x00000000       0x1c build/default/production/_ext/1071800814/libaria_widget_textfield.o
 .text._laTextFieldWidget_FocusGained
                0x00000000       0x1c build/default/production/_ext/1071800814/libaria_widget_textfield.o
 .text.clear    0x00000000       0x48 build/default/production/_ext/1071800814/libaria_widget_textfield.o
 .text.startEdit
                0x00000000       0x58 build/default/production/_ext/1071800814/libaria_widget_textfield.o
 .text._laTextFieldWidget_Update
                0x00000000       0x70 build/default/production/_ext/1071800814/libaria_widget_textfield.o
 .text._laTextFieldWidget_Destructor
                0x00000000       0x54 build/default/production/_ext/1071800814/libaria_widget_textfield.o
 .text._laTextFieldWidget_Constructor
                0x00000000      0x118 build/default/production/_ext/1071800814/libaria_widget_textfield.o
 .text.laTextFieldWidget_New
                0x00000000       0x50 build/default/production/_ext/1071800814/libaria_widget_textfield.o
 .text.laTextFieldWidget_GetAlignment
                0x00000000       0x18 build/default/production/_ext/1071800814/libaria_widget_textfield.o
 .text.laTextFieldWidget_SetAlignment
                0x00000000       0x44 build/default/production/_ext/1071800814/libaria_widget_textfield.o
 .text.laTextFieldWidget_GetCursorDelay
                0x00000000       0x18 build/default/production/_ext/1071800814/libaria_widget_textfield.o
 .text.laTextFieldWidget_SetCursorDelay
                0x00000000       0x68 build/default/production/_ext/1071800814/libaria_widget_textfield.o
 .text.laTextFieldWidget_GetCursorEnabled
                0x00000000       0x18 build/default/production/_ext/1071800814/libaria_widget_textfield.o
 .text.laTextFieldWidget_SetCursorEnabled
                0x00000000       0x64 build/default/production/_ext/1071800814/libaria_widget_textfield.o
 .text.laTextFieldWidget_GetCursorPosition
                0x00000000       0x18 build/default/production/_ext/1071800814/libaria_widget_textfield.o
 .text.laTextFieldWidget_SetCursorPosition
                0x00000000       0x5c build/default/production/_ext/1071800814/libaria_widget_textfield.o
 .text._laTextFieldWidget_TouchDownEvent
                0x00000000      0x100 build/default/production/_ext/1071800814/libaria_widget_textfield.o
 .text.laTextFieldWidget_GetText
                0x00000000       0x38 build/default/production/_ext/1071800814/libaria_widget_textfield.o
 .text.laTextFieldWidget_SetText
                0x00000000       0xa0 build/default/production/_ext/1071800814/libaria_widget_textfield.o
 .text.laTextFieldWidget_SetClearOnFirstEdit
                0x00000000       0x30 build/default/production/_ext/1071800814/libaria_widget_textfield.o
 .text.laTextFieldWidget_GetTextChangedEventCallback
                0x00000000       0x18 build/default/production/_ext/1071800814/libaria_widget_textfield.o
 .text.laTextFieldWidget_SetTextChangedEventCallback
                0x00000000       0x30 build/default/production/_ext/1071800814/libaria_widget_textfield.o
 .rodata        0x00000000       0x10 build/default/production/_ext/1071800814/libaria_widget_textfield.o
 .text          0x00000000        0x0 build/default/production/_ext/1071800814/libaria_widget_textfield_skin_classic.o
 .data          0x00000000        0x0 build/default/production/_ext/1071800814/libaria_widget_textfield_skin_classic.o
 .bss           0x00000000        0x0 build/default/production/_ext/1071800814/libaria_widget_textfield_skin_classic.o
 .reginfo       0x00000000       0x18 build/default/production/_ext/1071800814/libaria_widget_textfield_skin_classic.o
 .text.nextState
                0x00000000      0x114 build/default/production/_ext/1071800814/libaria_widget_textfield_skin_classic.o
 .text.waitString
                0x00000000       0x68 build/default/production/_ext/1071800814/libaria_widget_textfield_skin_classic.o
 .text.drawBorder
                0x00000000       0x58 build/default/production/_ext/1071800814/libaria_widget_textfield_skin_classic.o
 .text.drawBackground
                0x00000000       0x5c build/default/production/_ext/1071800814/libaria_widget_textfield_skin_classic.o
 .text._laTextFieldWidget_GetTextRect
                0x00000000       0xf4 build/default/production/_ext/1071800814/libaria_widget_textfield_skin_classic.o
 .text.drawString
                0x00000000       0xe0 build/default/production/_ext/1071800814/libaria_widget_textfield_skin_classic.o
 .text._laTextFieldWidget_GetCursorRect
                0x00000000      0x144 build/default/production/_ext/1071800814/libaria_widget_textfield_skin_classic.o
 .text.drawCursor
                0x00000000       0xa8 build/default/production/_ext/1071800814/libaria_widget_textfield_skin_classic.o
 .text._laTextFieldWidget_Paint
                0x00000000       0xb4 build/default/production/_ext/1071800814/libaria_widget_textfield_skin_classic.o
 .rodata        0x00000000       0x10 build/default/production/_ext/1071800814/libaria_widget_textfield_skin_classic.o
 .text          0x00000000        0x0 build/default/production/_ext/1071800814/libaria_widget_touchtest.o
 .data          0x00000000        0x0 build/default/production/_ext/1071800814/libaria_widget_touchtest.o
 .bss           0x00000000        0x0 build/default/production/_ext/1071800814/libaria_widget_touchtest.o
 .reginfo       0x00000000       0x18 build/default/production/_ext/1071800814/libaria_widget_touchtest.o
 .text._laTouchTestWidget_Destructor
                0x00000000       0x1c build/default/production/_ext/1071800814/libaria_widget_touchtest.o
 .text.invalidateLineList
                0x00000000       0x8c build/default/production/_ext/1071800814/libaria_widget_touchtest.o
 .text._laTouchTestWidget_Constructor
                0x00000000       0x90 build/default/production/_ext/1071800814/libaria_widget_touchtest.o
 .text.laTouchTestWidget_New
                0x00000000       0x58 build/default/production/_ext/1071800814/libaria_widget_touchtest.o
 .text.laTouchTest_AddPoint
                0x00000000       0xc4 build/default/production/_ext/1071800814/libaria_widget_touchtest.o
 .text._laTouchTestWidget_TouchDownEvent
                0x00000000       0x50 build/default/production/_ext/1071800814/libaria_widget_touchtest.o
 .text._laTouchTestWidget_TouchMovedEvent
                0x00000000       0x84 build/default/production/_ext/1071800814/libaria_widget_touchtest.o
 .text.laTouchTest_ClearPoints
                0x00000000       0x4c build/default/production/_ext/1071800814/libaria_widget_touchtest.o
 .text._laTouchTestWidget_TouchUpEvent
                0x00000000       0x24 build/default/production/_ext/1071800814/libaria_widget_touchtest.o
 .text.laTouchTestWidget_GetPointAddedEventCallback
                0x00000000       0x18 build/default/production/_ext/1071800814/libaria_widget_touchtest.o
 .text.laTouchTestWidget_SetPointAddedEventCallback
                0x00000000       0x1c build/default/production/_ext/1071800814/libaria_widget_touchtest.o
 .text          0x00000000        0x0 build/default/production/_ext/1071800814/libaria_widget_touchtest_skin_classic.o
 .data          0x00000000        0x0 build/default/production/_ext/1071800814/libaria_widget_touchtest_skin_classic.o
 .bss           0x00000000        0x0 build/default/production/_ext/1071800814/libaria_widget_touchtest_skin_classic.o
 .reginfo       0x00000000       0x18 build/default/production/_ext/1071800814/libaria_widget_touchtest_skin_classic.o
 .text.nextState
                0x00000000       0xb4 build/default/production/_ext/1071800814/libaria_widget_touchtest_skin_classic.o
 .text.drawBorder
                0x00000000       0x58 build/default/production/_ext/1071800814/libaria_widget_touchtest_skin_classic.o
 .text.drawBackground
                0x00000000       0x2c build/default/production/_ext/1071800814/libaria_widget_touchtest_skin_classic.o
 .text._laTouchTestWidget_GetLineRects
                0x00000000       0x9c build/default/production/_ext/1071800814/libaria_widget_touchtest_skin_classic.o
 .text.drawLines
                0x00000000      0x1dc build/default/production/_ext/1071800814/libaria_widget_touchtest_skin_classic.o
 .text._laTouchTestWidget_Paint
                0x00000000       0x9c build/default/production/_ext/1071800814/libaria_widget_touchtest_skin_classic.o
 .text          0x00000000        0x0 build/default/production/_ext/1071800814/libaria_widget_window.o
 .data          0x00000000        0x0 build/default/production/_ext/1071800814/libaria_widget_window.o
 .bss           0x00000000        0x0 build/default/production/_ext/1071800814/libaria_widget_window.o
 .reginfo       0x00000000       0x18 build/default/production/_ext/1071800814/libaria_widget_window.o
 .text.invalidateTitleText
                0x00000000       0x44 build/default/production/_ext/1071800814/libaria_widget_window.o
 .text.languageChanging
                0x00000000       0x38 build/default/production/_ext/1071800814/libaria_widget_window.o
 .text._laWindowWidget_Destructor
                0x00000000       0x54 build/default/production/_ext/1071800814/libaria_widget_window.o
 .text.invalidateTitleBar
                0x00000000       0x40 build/default/production/_ext/1071800814/libaria_widget_window.o
 .text._laWindowWidget_Constructor
                0x00000000       0x74 build/default/production/_ext/1071800814/libaria_widget_window.o
 .text.laWindowWidget_New
                0x00000000       0x50 build/default/production/_ext/1071800814/libaria_widget_window.o
 .text.laWindowWidget_GetTitle
                0x00000000       0x34 build/default/production/_ext/1071800814/libaria_widget_window.o
 .text.laWindowWidget_SetTitle
                0x00000000       0x78 build/default/production/_ext/1071800814/libaria_widget_window.o
 .text.laWindowWidget_GetIcon
                0x00000000       0x18 build/default/production/_ext/1071800814/libaria_widget_window.o
 .text.laWindowWidget_SetIcon
                0x00000000       0x48 build/default/production/_ext/1071800814/libaria_widget_window.o
 .text.laWindowWidget_GetIconMargin
                0x00000000       0x18 build/default/production/_ext/1071800814/libaria_widget_window.o
 .text.laWindowWidget_SetIconMargin
                0x00000000       0x44 build/default/production/_ext/1071800814/libaria_widget_window.o
 .text          0x00000000        0x0 build/default/production/_ext/1071800814/libaria_widget_window_skin_classic.o
 .data          0x00000000        0x0 build/default/production/_ext/1071800814/libaria_widget_window_skin_classic.o
 .bss           0x00000000        0x0 build/default/production/_ext/1071800814/libaria_widget_window_skin_classic.o
 .reginfo       0x00000000       0x18 build/default/production/_ext/1071800814/libaria_widget_window_skin_classic.o
 .text.nextState
                0x00000000      0x124 build/default/production/_ext/1071800814/libaria_widget_window_skin_classic.o
 .text.waitString
                0x00000000       0x68 build/default/production/_ext/1071800814/libaria_widget_window_skin_classic.o
 .text.waitIcon
                0x00000000       0x68 build/default/production/_ext/1071800814/libaria_widget_window_skin_classic.o
 .text.drawBorder
                0x00000000       0xc0 build/default/production/_ext/1071800814/libaria_widget_window_skin_classic.o
 .text.drawBackground
                0x00000000       0x2c build/default/production/_ext/1071800814/libaria_widget_window_skin_classic.o
 .text.laWindowWidget_GetTitleBarRect
                0x00000000       0x80 build/default/production/_ext/1071800814/libaria_widget_window_skin_classic.o
 .text.drawTitleBar
                0x00000000       0x64 build/default/production/_ext/1071800814/libaria_widget_window_skin_classic.o
 .text.laWindowWidget_GetIconRect
                0x00000000      0x160 build/default/production/_ext/1071800814/libaria_widget_window_skin_classic.o
 .text.drawIcon
                0x00000000      0x114 build/default/production/_ext/1071800814/libaria_widget_window_skin_classic.o
 .text.laWindowWidget_GetTextRect
                0x00000000      0x114 build/default/production/_ext/1071800814/libaria_widget_window_skin_classic.o
 .text.drawString
                0x00000000       0xe0 build/default/production/_ext/1071800814/libaria_widget_window_skin_classic.o
 .text._laWindowWidget_Paint
                0x00000000       0xb8 build/default/production/_ext/1071800814/libaria_widget_window_skin_classic.o
 .rodata        0x00000000       0x10 build/default/production/_ext/1071800814/libaria_widget_window_skin_classic.o
 .text          0x00000000        0x0 build/default/production/_ext/676789875/gfx.o
 .data          0x00000000        0x0 build/default/production/_ext/676789875/gfx.o
 .bss           0x00000000        0x0 build/default/production/_ext/676789875/gfx.o
 .reginfo       0x00000000       0x18 build/default/production/_ext/676789875/gfx.o
 .text.GFX_HandleInterrupt
                0x00000000       0x40 build/default/production/_ext/676789875/gfx.o
 .text.GFX_ReadPixel
                0x00000000       0xf8 build/default/production/_ext/676789875/gfx.o
 .text          0x00000000        0x0 build/default/production/_ext/676789875/gfx_color.o
 .bss           0x00000000        0x0 build/default/production/_ext/676789875/gfx_color.o
 .reginfo       0x00000000       0x18 build/default/production/_ext/676789875/gfx_color.o
 .text.GFX_ColorModeInfoGet
                0x00000000       0x58 build/default/production/_ext/676789875/gfx_color.o
 .text.GFX_ColorChannelRed
                0x00000000       0x24 build/default/production/_ext/676789875/gfx_color.o
 .text.GFX_ColorChannelGreen
                0x00000000       0x24 build/default/production/_ext/676789875/gfx_color.o
 .text.GFX_ColorChannelBlue
                0x00000000       0x24 build/default/production/_ext/676789875/gfx_color.o
 .text.GFX_ColorChannelAlpha
                0x00000000       0x40 build/default/production/_ext/676789875/gfx_color.o
 .text          0x00000000        0x0 build/default/production/_ext/676789875/gfx_context.o
 .data          0x00000000        0x0 build/default/production/_ext/676789875/gfx_context.o
 .bss           0x00000000        0x0 build/default/production/_ext/676789875/gfx_context.o
 .reginfo       0x00000000       0x18 build/default/production/_ext/676789875/gfx_context.o
 .text          0x00000000        0x0 build/default/production/_ext/676789875/gfx_default_impl.o
 .data          0x00000000        0x0 build/default/production/_ext/676789875/gfx_default_impl.o
 .bss           0x00000000        0x0 build/default/production/_ext/676789875/gfx_default_impl.o
 .reginfo       0x00000000       0x18 build/default/production/_ext/676789875/gfx_default_impl.o
 .text.defUnsupported
                0x00000000        0x8 build/default/production/_ext/676789875/gfx_default_impl.o
 .text.defSwap  0x00000000      0x104 build/default/production/_ext/676789875/gfx_default_impl.o
 .text          0x00000000        0x0 build/default/production/_ext/676789875/gfx_display.o
 .data          0x00000000        0x0 build/default/production/_ext/676789875/gfx_display.o
 .bss           0x00000000        0x0 build/default/production/_ext/676789875/gfx_display.o
 .reginfo       0x00000000       0x18 build/default/production/_ext/676789875/gfx_display.o
 .text          0x00000000        0x0 build/default/production/_ext/676789875/gfx_driver_interface.o
 .data          0x00000000        0x0 build/default/production/_ext/676789875/gfx_driver_interface.o
 .bss           0x00000000        0x0 build/default/production/_ext/676789875/gfx_driver_interface.o
 .reginfo       0x00000000       0x18 build/default/production/_ext/676789875/gfx_driver_interface.o
 .text          0x00000000        0x0 build/default/production/_ext/676789875/gfx_get.o
 .data          0x00000000        0x0 build/default/production/_ext/676789875/gfx_get.o
 .bss           0x00000000        0x0 build/default/production/_ext/676789875/gfx_get.o
 .reginfo       0x00000000       0x18 build/default/production/_ext/676789875/gfx_get.o
 .text.get_drawAntialias
                0x00000000       0x38 build/default/production/_ext/676789875/gfx_get.o
 .text          0x00000000        0x0 build/default/production/_ext/676789875/gfx_interface.o
 .bss           0x00000000        0x0 build/default/production/_ext/676789875/gfx_interface.o
 .reginfo       0x00000000       0x18 build/default/production/_ext/676789875/gfx_interface.o
 .text          0x00000000        0x0 build/default/production/_ext/676789875/gfx_layer.o
 .data          0x00000000        0x0 build/default/production/_ext/676789875/gfx_layer.o
 .bss           0x00000000        0x0 build/default/production/_ext/676789875/gfx_layer.o
 .reginfo       0x00000000       0x18 build/default/production/_ext/676789875/gfx_layer.o
 .text.GFX_LayerReadBuffer
                0x00000000       0x1c build/default/production/_ext/676789875/gfx_layer.o
 .text.GFX_LayerWriteBuffer
                0x00000000       0x1c build/default/production/_ext/676789875/gfx_layer.o
 .text.GFX_LayerRotate
                0x00000000       0x24 build/default/production/_ext/676789875/gfx_layer.o
 .text.GFX_LayerPointFromOrientedSpace
                0x00000000      0x14c build/default/production/_ext/676789875/gfx_layer.o
 .text.GFX_LayerPointToOrientedSpace
                0x00000000      0x154 build/default/production/_ext/676789875/gfx_layer.o
 .text.GFX_LayerRectToOrientedSpace
                0x00000000       0x18 build/default/production/_ext/676789875/gfx_layer.o
 .text          0x00000000        0x0 build/default/production/_ext/676789875/gfx_pixel_buffer.o
 .bss           0x00000000        0x0 build/default/production/_ext/676789875/gfx_pixel_buffer.o
 .reginfo       0x00000000       0x18 build/default/production/_ext/676789875/gfx_pixel_buffer.o
 .text.GFX_PixelBufferCopy
                0x00000000       0xa8 build/default/production/_ext/676789875/gfx_pixel_buffer.o
 .text.GFX_PixelBufferSet
                0x00000000       0x68 build/default/production/_ext/676789875/gfx_pixel_buffer.o
 .text.GFX_PixelBufferConvert
                0x00000000      0x140 build/default/production/_ext/676789875/gfx_pixel_buffer.o
 .text.GFX_PixelBufferAreaSet_Unsafe
                0x00000000      0x19c build/default/production/_ext/676789875/gfx_pixel_buffer.o
 .text.GFX_PixelBufferAreaSet
                0x00000000      0x144 build/default/production/_ext/676789875/gfx_pixel_buffer.o
 .text.GFX_PixelBufferAreaFill_Unsafe
                0x00000000       0xb4 build/default/production/_ext/676789875/gfx_pixel_buffer.o
 .text.GFX_PixelBufferAreaFill
                0x00000000       0x70 build/default/production/_ext/676789875/gfx_pixel_buffer.o
 .text          0x00000000        0x0 build/default/production/_ext/676789875/gfx_processor_interface.o
 .data          0x00000000        0x0 build/default/production/_ext/676789875/gfx_processor_interface.o
 .bss           0x00000000        0x0 build/default/production/_ext/676789875/gfx_processor_interface.o
 .reginfo       0x00000000       0x18 build/default/production/_ext/676789875/gfx_processor_interface.o
 .text          0x00000000        0x0 build/default/production/_ext/676789875/gfx_rect.o
 .data          0x00000000        0x0 build/default/production/_ext/676789875/gfx_rect.o
 .bss           0x00000000        0x0 build/default/production/_ext/676789875/gfx_rect.o
 .reginfo       0x00000000       0x18 build/default/production/_ext/676789875/gfx_rect.o
 .text          0x00000000        0x0 build/default/production/_ext/676789875/gfx_util.o
 .data          0x00000000        0x0 build/default/production/_ext/676789875/gfx_util.o
 .bss           0x00000000        0x0 build/default/production/_ext/676789875/gfx_util.o
 .reginfo       0x00000000       0x18 build/default/production/_ext/676789875/gfx_util.o
 .text.GFX_UtilSizeToOrientedSpace
                0x00000000       0x30 build/default/production/_ext/676789875/gfx_util.o
 .text.GFX_UtilSortPointsX
                0x00000000       0x30 build/default/production/_ext/676789875/gfx_util.o
 .text.GFX_UtilSortPointsY
                0x00000000       0x30 build/default/production/_ext/676789875/gfx_util.o
 .text.GFX_UtilGetXGivenYOnLine
                0x00000000       0x44 build/default/production/_ext/676789875/gfx_util.o
 .text.GFX_UtilGetYGivenXOnLine
                0x00000000       0x44 build/default/production/_ext/676789875/gfx_util.o
 .text          0x00000000        0x0 build/default/production/_ext/676789875/gfx_set.o
 .data          0x00000000        0x0 build/default/production/_ext/676789875/gfx_set.o
 .bss           0x00000000        0x0 build/default/production/_ext/676789875/gfx_set.o
 .reginfo       0x00000000       0x18 build/default/production/_ext/676789875/gfx_set.o
 .text.set_drawAntialias
                0x00000000       0x30 build/default/production/_ext/676789875/gfx_set.o
 .text          0x00000000        0x0 build/default/production/_ext/676789875/gfx_color_blend.o
 .data          0x00000000        0x0 build/default/production/_ext/676789875/gfx_color_blend.o
 .bss           0x00000000        0x0 build/default/production/_ext/676789875/gfx_color_blend.o
 .reginfo       0x00000000       0x18 build/default/production/_ext/676789875/gfx_color_blend.o
 .text          0x00000000        0x0 build/default/production/_ext/676789875/gfx_color_convert.o
 .bss           0x00000000        0x0 build/default/production/_ext/676789875/gfx_color_convert.o
 .reginfo       0x00000000       0x18 build/default/production/_ext/676789875/gfx_color_convert.o
 .text          0x00000000        0x0 build/default/production/_ext/676789875/gfx_color_lerp.o
 .bss           0x00000000        0x0 build/default/production/_ext/676789875/gfx_color_lerp.o
 .reginfo       0x00000000       0x18 build/default/production/_ext/676789875/gfx_color_lerp.o
 .text          0x00000000        0x0 build/default/production/_ext/676789875/gfx_color_value.o
 .data          0x00000000        0x0 build/default/production/_ext/676789875/gfx_color_value.o
 .bss           0x00000000        0x0 build/default/production/_ext/676789875/gfx_color_value.o
 .reginfo       0x00000000       0x18 build/default/production/_ext/676789875/gfx_color_value.o
 .text.GFX_ColorValue
                0x00000000       0x48 build/default/production/_ext/676789875/gfx_color_value.o
 .rodata        0x00000000       0x48 build/default/production/_ext/676789875/gfx_color_value.o
 .text          0x00000000        0x0 build/default/production/_ext/676789875/gfx_draw_arc.o
 .data          0x00000000        0x0 build/default/production/_ext/676789875/gfx_draw_arc.o
 .bss           0x00000000        0x0 build/default/production/_ext/676789875/gfx_draw_arc.o
 .reginfo       0x00000000       0x18 build/default/production/_ext/676789875/gfx_draw_arc.o
 .text.cpuDrawArc_Line
                0x00000000       0xb8 build/default/production/_ext/676789875/gfx_draw_arc.o
 .text          0x00000000        0x0 build/default/production/_ext/676789875/gfx_draw_blit.o
 .data          0x00000000        0x0 build/default/production/_ext/676789875/gfx_draw_blit.o
 .bss           0x00000000        0x0 build/default/production/_ext/676789875/gfx_draw_blit.o
 .reginfo       0x00000000       0x18 build/default/production/_ext/676789875/gfx_draw_blit.o
 .text.GFX_DrawDirectBlit
                0x00000000      0x27c build/default/production/_ext/676789875/gfx_draw_blit.o
 .text          0x00000000        0x0 build/default/production/_ext/676789875/gfx_draw_circle.o
 .data          0x00000000        0x0 build/default/production/_ext/676789875/gfx_draw_circle.o
 .bss           0x00000000        0x0 build/default/production/_ext/676789875/gfx_draw_circle.o
 .reginfo       0x00000000       0x18 build/default/production/_ext/676789875/gfx_draw_circle.o
 .text.GFX_DrawCircle
                0x00000000      0x1c0 build/default/production/_ext/676789875/gfx_draw_circle.o
 .text          0x00000000        0x0 build/default/production/_ext/676789875/gfx_draw_ellipse.o
 .data          0x00000000        0x0 build/default/production/_ext/676789875/gfx_draw_ellipse.o
 .bss           0x00000000        0x0 build/default/production/_ext/676789875/gfx_draw_ellipse.o
 .reginfo       0x00000000       0x18 build/default/production/_ext/676789875/gfx_draw_ellipse.o
 .text.GFX_DrawEllipse
                0x00000000      0x1ec build/default/production/_ext/676789875/gfx_draw_ellipse.o
 .text          0x00000000        0x0 build/default/production/_ext/676789875/gfx_draw_line.o
 .data          0x00000000        0x0 build/default/production/_ext/676789875/gfx_draw_line.o
 .bss           0x00000000        0x0 build/default/production/_ext/676789875/gfx_draw_line.o
 .reginfo       0x00000000       0x18 build/default/production/_ext/676789875/gfx_draw_line.o
 .text.cpuDrawLine_Gradient
                0x00000000        0x8 build/default/production/_ext/676789875/gfx_draw_line.o
 .text.cpuDrawLine_Gradient_AA
                0x00000000        0x8 build/default/production/_ext/676789875/gfx_draw_line.o
 .text          0x00000000        0x0 build/default/production/_ext/676789875/gfx_draw_pixel.o
 .data          0x00000000        0x0 build/default/production/_ext/676789875/gfx_draw_pixel.o
 .bss           0x00000000        0x0 build/default/production/_ext/676789875/gfx_draw_pixel.o
 .reginfo       0x00000000       0x18 build/default/production/_ext/676789875/gfx_draw_pixel.o
 .text.GFX_DrawPixelByDrawState
                0x00000000       0xf0 build/default/production/_ext/676789875/gfx_draw_pixel.o
 .text          0x00000000        0x0 build/default/production/_ext/676789875/gfx_draw_rect.o
 .data          0x00000000        0x0 build/default/production/_ext/676789875/gfx_draw_rect.o
 .bss           0x00000000        0x0 build/default/production/_ext/676789875/gfx_draw_rect.o
 .reginfo       0x00000000       0x18 build/default/production/_ext/676789875/gfx_draw_rect.o
 .text.cpuDrawRect_Gradient_Quad
                0x00000000        0x8 build/default/production/_ext/676789875/gfx_draw_rect.o
 .text.cpuDrawRect_Gradient_Bi_AA
                0x00000000        0x8 build/default/production/_ext/676789875/gfx_draw_rect.o
 .text.cpuDrawRect_Gradient_Quad_AA
                0x00000000        0x8 build/default/production/_ext/676789875/gfx_draw_rect.o
 .text          0x00000000        0x0 build/default/production/_ext/676789875/gfx_draw_stretchblit.o
 .data          0x00000000        0x0 build/default/production/_ext/676789875/gfx_draw_stretchblit.o
 .bss           0x00000000        0x0 build/default/production/_ext/676789875/gfx_draw_stretchblit.o
 .reginfo       0x00000000       0x18 build/default/production/_ext/676789875/gfx_draw_stretchblit.o
 .text.GFX_DrawStretchBlit
                0x00000000      0x1dc build/default/production/_ext/676789875/gfx_draw_stretchblit.o
 .text          0x00000000        0x0 build/default/production/_ext/676789875/gfx_math.o
 .data          0x00000000        0x0 build/default/production/_ext/676789875/gfx_math.o
 .bss           0x00000000        0x0 build/default/production/_ext/676789875/gfx_math.o
 .reginfo       0x00000000       0x18 build/default/production/_ext/676789875/gfx_math.o
 .text.GFX_Normalize360
                0x00000000       0x2c build/default/production/_ext/676789875/gfx_math.o
 .text.GFX_Atan
                0x00000000       0x1c build/default/production/_ext/676789875/gfx_math.o
 .text.GFX_Minf
                0x00000000       0x40 build/default/production/_ext/676789875/gfx_math.o
 .text.GFX_Maxf
                0x00000000       0x44 build/default/production/_ext/676789875/gfx_math.o
 .text.GFX_Clampi
                0x00000000       0x20 build/default/production/_ext/676789875/gfx_math.o
 .text.GFX_Clampf
                0x00000000       0x64 build/default/production/_ext/676789875/gfx_math.o
 .text.GFX_PercentOfDec
                0x00000000       0x88 build/default/production/_ext/676789875/gfx_math.o
 .text.GFX_ScaleIntegerSigned
                0x00000000       0x70 build/default/production/_ext/676789875/gfx_math.o
 .text.GFX_AbsoluteValue
                0x00000000       0x14 build/default/production/_ext/676789875/gfx_math.o
 .text.GFX_DivideRounding
                0x00000000       0x90 build/default/production/_ext/676789875/gfx_math.o
 .text          0x00000000        0x0 build/default/production/_ext/231205469/sys_int_pic32.o
 .data          0x00000000        0x0 build/default/production/_ext/231205469/sys_int_pic32.o
 .bss           0x00000000        0x0 build/default/production/_ext/231205469/sys_int_pic32.o
 .reginfo       0x00000000       0x18 build/default/production/_ext/231205469/sys_int_pic32.o
 .text.SYS_INT_StatusGetAndDisable
                0x00000000       0x1c build/default/production/_ext/231205469/sys_int_pic32.o
 .text.SYS_INT_StatusRestore
                0x00000000       0x1c build/default/production/_ext/231205469/sys_int_pic32.o
 .text.SYS_INT_Disable
                0x00000000       0x20 build/default/production/_ext/231205469/sys_int_pic32.o
 .text.SYS_INT_SourceDisable
                0x00000000       0x54 build/default/production/_ext/231205469/sys_int_pic32.o
 .text.SYS_INT_ExternalInterruptTriggerSet
                0x00000000       0x28 build/default/production/_ext/231205469/sys_int_pic32.o
 .text          0x00000000        0x0 build/default/production/_ext/664138601/drv_pmp_static.o
 .data          0x00000000        0x0 build/default/production/_ext/664138601/drv_pmp_static.o
 .bss           0x00000000        0x0 build/default/production/_ext/664138601/drv_pmp_static.o
 .reginfo       0x00000000       0x18 build/default/production/_ext/664138601/drv_pmp_static.o
 .text.DRV_PMP0_TimingSet
                0x00000000       0x30 build/default/production/_ext/664138601/drv_pmp_static.o
 .text          0x00000000        0x0 build/default/production/_ext/347121368/drv_gfx_ssd1926.o
 .data          0x00000000        0x0 build/default/production/_ext/347121368/drv_gfx_ssd1926.o
 .bss           0x00000000        0x0 build/default/production/_ext/347121368/drv_gfx_ssd1926.o
 .reginfo       0x00000000       0x18 build/default/production/_ext/347121368/drv_gfx_ssd1926.o
 .text.drawLine
                0x00000000      0x1d0 build/default/production/_ext/347121368/drv_gfx_ssd1926.o
 .text          0x00000000        0x0 build/default/production/_ext/1689523328/drv_gfx_ssd1289.o
 .data          0x00000000        0x0 build/default/production/_ext/1689523328/drv_gfx_ssd1289.o
 .bss           0x00000000        0x0 build/default/production/_ext/1689523328/drv_gfx_ssd1289.o
 .reginfo       0x00000000       0x18 build/default/production/_ext/1689523328/drv_gfx_ssd1289.o
 .text          0x00000000        0x0 build/default/production/_ext/458109090/libaria_harmony.o
 .data          0x00000000        0x0 build/default/production/_ext/458109090/libaria_harmony.o
 .bss           0x00000000        0x0 build/default/production/_ext/458109090/libaria_harmony.o
 .reginfo       0x00000000       0x18 build/default/production/_ext/458109090/libaria_harmony.o
 .text          0x00000000        0x0 build/default/production/_ext/458109090/libaria_init.o
 .data          0x00000000        0x0 build/default/production/_ext/458109090/libaria_init.o
 .bss           0x00000000        0x0 build/default/production/_ext/458109090/libaria_init.o
 .reginfo       0x00000000       0x18 build/default/production/_ext/458109090/libaria_init.o
 .text          0x00000000        0x0 build/default/production/_ext/458109090/libaria_events.o
 .data          0x00000000        0x0 build/default/production/_ext/458109090/libaria_events.o
 .bss           0x00000000        0x0 build/default/production/_ext/458109090/libaria_events.o
 .reginfo       0x00000000       0x18 build/default/production/_ext/458109090/libaria_events.o
 .text          0x00000000        0x0 build/default/production/_ext/458109090/libaria_macros.o
 .data          0x00000000        0x0 build/default/production/_ext/458109090/libaria_macros.o
 .bss           0x00000000        0x0 build/default/production/_ext/458109090/libaria_macros.o
 .reginfo       0x00000000       0x18 build/default/production/_ext/458109090/libaria_macros.o
 .text          0x00000000        0x0 build/default/production/_ext/2065038297/gfx_display_def.o
 .bss           0x00000000        0x0 build/default/production/_ext/2065038297/gfx_display_def.o
 .reginfo       0x00000000       0x18 build/default/production/_ext/2065038297/gfx_display_def.o
 .text          0x00000000        0x0 build/default/production/_ext/2065038297/gfx_driver_def.o
 .data          0x00000000        0x0 build/default/production/_ext/2065038297/gfx_driver_def.o
 .bss           0x00000000        0x0 build/default/production/_ext/2065038297/gfx_driver_def.o
 .reginfo       0x00000000       0x18 build/default/production/_ext/2065038297/gfx_driver_def.o
 .text          0x00000000        0x0 build/default/production/_ext/2065038297/gfx_processor_def.o
 .data          0x00000000        0x0 build/default/production/_ext/2065038297/gfx_processor_def.o
 .bss           0x00000000        0x0 build/default/production/_ext/2065038297/gfx_processor_def.o
 .reginfo       0x00000000       0x18 build/default/production/_ext/2065038297/gfx_processor_def.o
 .text.GFX_InitializeProcessorList
                0x00000000        0x8 build/default/production/_ext/2065038297/gfx_processor_def.o
 .text          0x00000000        0x0 build/default/production/_ext/639803181/sys_clk_pic32mx.o
 .data          0x00000000        0x0 build/default/production/_ext/639803181/sys_clk_pic32mx.o
 .bss           0x00000000        0x0 build/default/production/_ext/639803181/sys_clk_pic32mx.o
 .reginfo       0x00000000       0x18 build/default/production/_ext/639803181/sys_clk_pic32mx.o
 .text.SYS_CLK_PeripheralFrequencyGet
                0x00000000        0xc build/default/production/_ext/639803181/sys_clk_pic32mx.o
 .text.SYS_CLK_ReferenceFrequencyGet
                0x00000000        0x8 build/default/production/_ext/639803181/sys_clk_pic32mx.o
 .text.SYS_CLK_SecondaryOscillatorEnable
                0x00000000       0x48 build/default/production/_ext/639803181/sys_clk_pic32mx.o
 .text.SYS_CLK_SecondaryOscillatorDisable
                0x00000000       0x48 build/default/production/_ext/639803181/sys_clk_pic32mx.o
 .text.SYS_CLK_SecondaryOscillatorIsEnabled
                0x00000000       0x10 build/default/production/_ext/639803181/sys_clk_pic32mx.o
 .text          0x00000000        0x0 build/default/production/_ext/340578644/sys_devcon.o
 .data          0x00000000        0x0 build/default/production/_ext/340578644/sys_devcon.o
 .bss           0x00000000        0x0 build/default/production/_ext/340578644/sys_devcon.o
 .reginfo       0x00000000       0x18 build/default/production/_ext/340578644/sys_devcon.o
 .text.SYS_DEVCON_Reinitialize
                0x00000000       0x10 build/default/production/_ext/340578644/sys_devcon.o
 .text.SYS_DEVCON_Deinitialize
                0x00000000        0x8 build/default/production/_ext/340578644/sys_devcon.o
 .text.SYS_DEVCON_Status
                0x00000000        0x8 build/default/production/_ext/340578644/sys_devcon.o
 .text.SYS_DEVCON_Tasks
                0x00000000        0x8 build/default/production/_ext/340578644/sys_devcon.o
 .text.SYS_DEVCON_JTAGDisable
                0x00000000       0x18 build/default/production/_ext/340578644/sys_devcon.o
 .text.SYS_DEVCON_TraceEnable
                0x00000000       0x1c build/default/production/_ext/340578644/sys_devcon.o
 .text.SYS_DEVCON_TraceDisable
                0x00000000       0x18 build/default/production/_ext/340578644/sys_devcon.o
 .text.SYS_DEVCON_PowerModeEnter
                0x00000000       0x44 build/default/production/_ext/340578644/sys_devcon.o
 .text          0x00000000        0x0 build/default/production/_ext/340578644/sys_devcon_pic32mx.o
 .data          0x00000000        0x0 build/default/production/_ext/340578644/sys_devcon_pic32mx.o
 .bss           0x00000000        0x0 build/default/production/_ext/340578644/sys_devcon_pic32mx.o
 .reginfo       0x00000000       0x18 build/default/production/_ext/340578644/sys_devcon_pic32mx.o
 .text          0x00000000        0x0 build/default/production/_ext/822048611/sys_ports_static.o
 .data          0x00000000        0x0 build/default/production/_ext/822048611/sys_ports_static.o
 .bss           0x00000000        0x0 build/default/production/_ext/822048611/sys_ports_static.o
 .reginfo       0x00000000       0x18 build/default/production/_ext/822048611/sys_ports_static.o
 .text.SYS_PORTS_Read
                0x00000000       0x28 build/default/production/_ext/822048611/sys_ports_static.o
 .text.SYS_PORTS_Write
                0x00000000       0x28 build/default/production/_ext/822048611/sys_ports_static.o
 .text.SYS_PORTS_LatchedGet
                0x00000000        0x8 build/default/production/_ext/822048611/sys_ports_static.o
 .text.SYS_PORTS_Set
                0x00000000       0x2c build/default/production/_ext/822048611/sys_ports_static.o
 .text.SYS_PORTS_Clear
                0x00000000       0x28 build/default/production/_ext/822048611/sys_ports_static.o
 .text.SYS_PORTS_DirectionSelect
                0x00000000       0x54 build/default/production/_ext/822048611/sys_ports_static.o
 .text.SYS_PORTS_DirectionGet
                0x00000000       0x28 build/default/production/_ext/822048611/sys_ports_static.o
 .text.SYS_PORTS_Toggle
                0x00000000       0x28 build/default/production/_ext/822048611/sys_ports_static.o
 .text.SYS_PORTS_OpenDrainEnable
                0x00000000       0x28 build/default/production/_ext/822048611/sys_ports_static.o
 .text.SYS_PORTS_OpenDrainDisable
                0x00000000       0x28 build/default/production/_ext/822048611/sys_ports_static.o
 .text.SYS_PORTS_InterruptStatusGet
                0x00000000        0x8 build/default/production/_ext/822048611/sys_ports_static.o
 .text.SYS_PORTS_ChangeNotificationGlobalEnable
                0x00000000       0x14 build/default/production/_ext/822048611/sys_ports_static.o
 .text.SYS_PORTS_ChangeNotificationGlobalDisable
                0x00000000       0x14 build/default/production/_ext/822048611/sys_ports_static.o
 .text.SYS_PORTS_GlobalChangeNotificationDisable
                0x00000000       0x14 build/default/production/_ext/822048611/sys_ports_static.o
 .text.SYS_PORTS_ChangeNotificationEnable
                0x00000000       0x50 build/default/production/_ext/822048611/sys_ports_static.o
 .text.SYS_PORTS_ChangeNotificationDisable
                0x00000000       0x18 build/default/production/_ext/822048611/sys_ports_static.o
 .text.SYS_PORTS_ChangeNotificationInIdleModeEnable
                0x00000000       0x14 build/default/production/_ext/822048611/sys_ports_static.o
 .text.SYS_PORTS_ChangeNotificationInIdleModeDisable
                0x00000000       0x14 build/default/production/_ext/822048611/sys_ports_static.o
 .text.SYS_PORTS_ChangeNotificationPullUpEnable
                0x00000000       0x18 build/default/production/_ext/822048611/sys_ports_static.o
 .text.SYS_PORTS_ChangeNotificationPullUpDisable
                0x00000000       0x18 build/default/production/_ext/822048611/sys_ports_static.o
 .text.SYS_PORTS_PinModeSelect
                0x00000000       0x2c build/default/production/_ext/822048611/sys_ports_static.o
 .text.SYS_PORTS_PinWrite
                0x00000000       0x60 build/default/production/_ext/822048611/sys_ports_static.o
 .text.SYS_PORTS_PinLatchedGet
                0x00000000        0x8 build/default/production/_ext/822048611/sys_ports_static.o
 .text.SYS_PORTS_PinRead
                0x00000000       0x2c build/default/production/_ext/822048611/sys_ports_static.o
 .text.SYS_PORTS_PinToggle
                0x00000000       0x30 build/default/production/_ext/822048611/sys_ports_static.o
 .text.SYS_PORTS_PinSet
                0x00000000       0x30 build/default/production/_ext/822048611/sys_ports_static.o
 .text.SYS_PORTS_PinClear
                0x00000000       0x30 build/default/production/_ext/822048611/sys_ports_static.o
 .text.SYS_PORTS_PinDirectionSelect
                0x00000000       0x60 build/default/production/_ext/822048611/sys_ports_static.o
 .text.SYS_PORTS_PinOpenDrainEnable
                0x00000000       0x30 build/default/production/_ext/822048611/sys_ports_static.o
 .text.SYS_PORTS_PinOpenDrainDisable
                0x00000000       0x30 build/default/production/_ext/822048611/sys_ports_static.o
 .text.SYS_PORTS_PinPullUpEnable
                0x00000000        0x8 build/default/production/_ext/822048611/sys_ports_static.o
 .text.SYS_PORTS_PinPullUpDisable
                0x00000000        0x8 build/default/production/_ext/822048611/sys_ports_static.o
 .text.SYS_PORTS_PinPullDownEnable
                0x00000000        0x8 build/default/production/_ext/822048611/sys_ports_static.o
 .text.SYS_PORTS_PinPullDownDisable
                0x00000000        0x8 build/default/production/_ext/822048611/sys_ports_static.o
 .text.SYS_PORTS_InterruptEnable
                0x00000000        0x8 build/default/production/_ext/822048611/sys_ports_static.o
 .text.SYS_PORTS_RemapInput
                0x00000000        0x8 build/default/production/_ext/822048611/sys_ports_static.o
 .text.SYS_PORTS_RemapOutput
                0x00000000        0x8 build/default/production/_ext/822048611/sys_ports_static.o
 .text          0x00000000        0x0 build/default/production/_ext/74298950/bsp.o
 .data          0x00000000        0x0 build/default/production/_ext/74298950/bsp.o
 .bss           0x00000000        0x0 build/default/production/_ext/74298950/bsp.o
 .reginfo       0x00000000       0x18 build/default/production/_ext/74298950/bsp.o
 .text.BSP_SwitchStateGet
                0x00000000       0x50 build/default/production/_ext/74298950/bsp.o
 .text.BSP_LEDStateSet
                0x00000000      0x130 build/default/production/_ext/74298950/bsp.o
 .text.BSP_LEDToggle
                0x00000000       0x54 build/default/production/_ext/74298950/bsp.o
 .text.BSP_LEDStateGet
                0x00000000       0x68 build/default/production/_ext/74298950/bsp.o
 .text.BSP_LEDOn
                0x00000000       0xc0 build/default/production/_ext/74298950/bsp.o
 .text.BSP_USBVBUSSwitchStateSet
                0x00000000       0x28 build/default/production/_ext/74298950/bsp.o
 .text.BSP_USBVBUSSwitchOverCurrentDetect
                0x00000000        0x8 build/default/production/_ext/74298950/bsp.o
 .text.BSP_USBVBUSPowerEnable
                0x00000000       0x28 build/default/production/_ext/74298950/bsp.o
 .text          0x00000000        0x0 build/default/production/_ext/1688732426/system_init.o
 .data          0x00000000        0x0 build/default/production/_ext/1688732426/system_init.o
 .bss           0x00000000        0x0 build/default/production/_ext/1688732426/system_init.o
 .reginfo       0x00000000       0x18 build/default/production/_ext/1688732426/system_init.o
 .text          0x00000000        0x0 build/default/production/_ext/1688732426/system_interrupt.o
 .data          0x00000000        0x0 build/default/production/_ext/1688732426/system_interrupt.o
 .bss           0x00000000        0x0 build/default/production/_ext/1688732426/system_interrupt.o
 .reginfo       0x00000000       0x18 build/default/production/_ext/1688732426/system_interrupt.o
 .text          0x00000000        0x0 build/default/production/_ext/1688732426/system_exceptions.o
 .data          0x00000000        0x0 build/default/production/_ext/1688732426/system_exceptions.o
 .bss           0x00000000        0x0 build/default/production/_ext/1688732426/system_exceptions.o
 .reginfo       0x00000000       0x18 build/default/production/_ext/1688732426/system_exceptions.o
 .text          0x00000000        0x0 build/default/production/_ext/1688732426/system_tasks.o
 .data          0x00000000        0x0 build/default/production/_ext/1688732426/system_tasks.o
 .bss           0x00000000        0x0 build/default/production/_ext/1688732426/system_tasks.o
 .reginfo       0x00000000       0x18 build/default/production/_ext/1688732426/system_tasks.o
 .text          0x00000000        0x0 C:\Users\and08479\AppData\Local\Temp\ccFsgLgR.o
 .data          0x00000000        0x0 C:\Users\and08479\AppData\Local\Temp\ccFsgLgR.o
 .bss           0x00000000        0x0 C:\Users\and08479\AppData\Local\Temp\ccFsgLgR.o
 .reginfo       0x00000000       0x18 C:\Users\and08479\AppData\Local\Temp\ccFsgLgR.o
 .text          0x00000000        0x0 C:\Users\and08479\AppData\Local\Temp\ccw6wH7P.o
 .data          0x00000000        0x0 C:\Users\and08479\AppData\Local\Temp\ccw6wH7P.o
 .bss           0x00000000        0x0 C:\Users\and08479\AppData\Local\Temp\ccw6wH7P.o
 .reginfo       0x00000000       0x18 C:\Users\and08479\AppData\Local\Temp\ccw6wH7P.o
 .text          0x00000000        0x0 C:\Users\and08479\AppData\Local\Temp\ccubExsT.o
 .data          0x00000000        0x0 C:\Users\and08479\AppData\Local\Temp\ccubExsT.o
 .bss           0x00000000        0x0 C:\Users\and08479\AppData\Local\Temp\ccubExsT.o
 .reginfo       0x00000000       0x18 C:\Users\and08479\AppData\Local\Temp\ccubExsT.o
 .discard       0x00000000       0xd0 C:\Users\and08479\AppData\Local\Temp\ccubExsT.o
 .data          0x00000000        0x0 c:/program files (x86)/microchip/xc32/v2.30/bin/bin/../../lib/gcc/pic32mx/4.8.3/../../../../pic32mx/lib\pic32_software_reset.o
 .bss           0x00000000        0x0 c:/program files (x86)/microchip/xc32/v2.30/bin/bin/../../lib/gcc/pic32mx/4.8.3/../../../../pic32mx/lib\pic32_software_reset.o
 .reginfo       0x00000000       0x18 c:/program files (x86)/microchip/xc32/v2.30/bin/bin/../../lib/gcc/pic32mx/4.8.3/../../../../pic32mx/lib\pic32_software_reset.o
 .text          0x00000000        0x0 c:/program files (x86)/microchip/xc32/v2.30/bin/bin/../../lib/gcc/pic32mx/4.8.3/../../../../pic32mx/lib/./proc/32MX795F512L\processor.o
 .data          0x00000000        0x0 c:/program files (x86)/microchip/xc32/v2.30/bin/bin/../../lib/gcc/pic32mx/4.8.3/../../../../pic32mx/lib/./proc/32MX795F512L\processor.o
 .bss           0x00000000        0x0 c:/program files (x86)/microchip/xc32/v2.30/bin/bin/../../lib/gcc/pic32mx/4.8.3/../../../../pic32mx/lib/./proc/32MX795F512L\processor.o
 .reginfo       0x00000000       0x18 c:/program files (x86)/microchip/xc32/v2.30/bin/bin/../../lib/gcc/pic32mx/4.8.3/../../../../pic32mx/lib/./proc/32MX795F512L\processor.o
 .data          0x00000000        0x0 c:/program files (x86)/microchip/xc32/v2.30/bin/bin/../../lib/gcc/pic32mx/4.8.3\libgcc.a(floatunsisf.o)
 .bss           0x00000000        0x0 c:/program files (x86)/microchip/xc32/v2.30/bin/bin/../../lib/gcc/pic32mx/4.8.3\libgcc.a(floatunsisf.o)
 .reginfo       0x00000000       0x18 c:/program files (x86)/microchip/xc32/v2.30/bin/bin/../../lib/gcc/pic32mx/4.8.3\libgcc.a(floatunsisf.o)
 .data          0x00000000        0x0 c:/program files (x86)/microchip/xc32/v2.30/bin/bin/../../lib/gcc/pic32mx/4.8.3/../../../../pic32mx/lib\libpic32.a(memcpy.o)
 .bss           0x00000000        0x0 c:/program files (x86)/microchip/xc32/v2.30/bin/bin/../../lib/gcc/pic32mx/4.8.3/../../../../pic32mx/lib\libpic32.a(memcpy.o)
 .reginfo       0x00000000       0x18 c:/program files (x86)/microchip/xc32/v2.30/bin/bin/../../lib/gcc/pic32mx/4.8.3/../../../../pic32mx/lib\libpic32.a(memcpy.o)
 .data          0x00000000        0x0 c:/program files (x86)/microchip/xc32/v2.30/bin/bin/../../lib/gcc/pic32mx/4.8.3/../../../../pic32mx/lib\libpic32.a(memset.o)
 .bss           0x00000000        0x0 c:/program files (x86)/microchip/xc32/v2.30/bin/bin/../../lib/gcc/pic32mx/4.8.3/../../../../pic32mx/lib\libpic32.a(memset.o)
 .reginfo       0x00000000       0x18 c:/program files (x86)/microchip/xc32/v2.30/bin/bin/../../lib/gcc/pic32mx/4.8.3/../../../../pic32mx/lib\libpic32.a(memset.o)
 .text          0x00000000      0x120 c:/program files (x86)/microchip/xc32/v2.30/bin/bin/../../lib/gcc/pic32mx/4.8.3/../../../../pic32mx/lib\libpic32.a(strcmp.o)
 .data          0x00000000        0x0 c:/program files (x86)/microchip/xc32/v2.30/bin/bin/../../lib/gcc/pic32mx/4.8.3/../../../../pic32mx/lib\libpic32.a(strcmp.o)
 .bss           0x00000000        0x0 c:/program files (x86)/microchip/xc32/v2.30/bin/bin/../../lib/gcc/pic32mx/4.8.3/../../../../pic32mx/lib\libpic32.a(strcmp.o)
 .reginfo       0x00000000       0x18 c:/program files (x86)/microchip/xc32/v2.30/bin/bin/../../lib/gcc/pic32mx/4.8.3/../../../../pic32mx/lib\libpic32.a(strcmp.o)
 .comment       0x00000000       0x1a c:/program files (x86)/microchip/xc32/v2.30/bin/bin/../../lib/gcc/pic32mx/4.8.3/../../../../pic32mx/lib\libpic32.a(strcmp.o)
 .data          0x00000000        0x0 c:/program files (x86)/microchip/xc32/v2.30/bin/bin/../../lib/gcc/pic32mx/4.8.3/../../../../pic32mx/lib\libpic32.a(strcpy.o)
 .bss           0x00000000        0x0 c:/program files (x86)/microchip/xc32/v2.30/bin/bin/../../lib/gcc/pic32mx/4.8.3/../../../../pic32mx/lib\libpic32.a(strcpy.o)
 .reginfo       0x00000000       0x18 c:/program files (x86)/microchip/xc32/v2.30/bin/bin/../../lib/gcc/pic32mx/4.8.3/../../../../pic32mx/lib\libpic32.a(strcpy.o)
 .text          0x00000000      0x168 c:/program files (x86)/microchip/xc32/v2.30/bin/bin/../../lib/gcc/pic32mx/4.8.3/../../../../pic32mx/lib\libpic32.a(strlen.o)
 .data          0x00000000        0x0 c:/program files (x86)/microchip/xc32/v2.30/bin/bin/../../lib/gcc/pic32mx/4.8.3/../../../../pic32mx/lib\libpic32.a(strlen.o)
 .bss           0x00000000        0x0 c:/program files (x86)/microchip/xc32/v2.30/bin/bin/../../lib/gcc/pic32mx/4.8.3/../../../../pic32mx/lib\libpic32.a(strlen.o)
 .reginfo       0x00000000       0x18 c:/program files (x86)/microchip/xc32/v2.30/bin/bin/../../lib/gcc/pic32mx/4.8.3/../../../../pic32mx/lib\libpic32.a(strlen.o)
 .comment       0x00000000       0x1a c:/program files (x86)/microchip/xc32/v2.30/bin/bin/../../lib/gcc/pic32mx/4.8.3/../../../../pic32mx/lib\libpic32.a(strlen.o)
 .text          0x00000000        0x0 c:/program files (x86)/microchip/xc32/v2.30/bin/bin/../../lib/gcc/pic32mx/4.8.3/../../../../pic32mx/lib\libpic32.a(default-bootstrap-exception-handler.o)
 .data          0x00000000        0x0 c:/program files (x86)/microchip/xc32/v2.30/bin/bin/../../lib/gcc/pic32mx/4.8.3/../../../../pic32mx/lib\libpic32.a(default-bootstrap-exception-handler.o)
 .bss           0x00000000        0x0 c:/program files (x86)/microchip/xc32/v2.30/bin/bin/../../lib/gcc/pic32mx/4.8.3/../../../../pic32mx/lib\libpic32.a(default-bootstrap-exception-handler.o)
 .reginfo       0x00000000       0x18 c:/program files (x86)/microchip/xc32/v2.30/bin/bin/../../lib/gcc/pic32mx/4.8.3/../../../../pic32mx/lib\libpic32.a(default-bootstrap-exception-handler.o)
 .text          0x00000000        0x0 c:/program files (x86)/microchip/xc32/v2.30/bin/bin/../../lib/gcc/pic32mx/4.8.3/../../../../pic32mx/lib\libpic32.a(default-on-reset.o)
 .data          0x00000000        0x0 c:/program files (x86)/microchip/xc32/v2.30/bin/bin/../../lib/gcc/pic32mx/4.8.3/../../../../pic32mx/lib\libpic32.a(default-on-reset.o)
 .bss           0x00000000        0x0 c:/program files (x86)/microchip/xc32/v2.30/bin/bin/../../lib/gcc/pic32mx/4.8.3/../../../../pic32mx/lib\libpic32.a(default-on-reset.o)
 .reginfo       0x00000000       0x18 c:/program files (x86)/microchip/xc32/v2.30/bin/bin/../../lib/gcc/pic32mx/4.8.3/../../../../pic32mx/lib\libpic32.a(default-on-reset.o)
 .text          0x00000000        0x0 c:/program files (x86)/microchip/xc32/v2.30/bin/bin/../../lib/gcc/pic32mx/4.8.3/../../../../pic32mx/lib\libpic32.a(default-on-bootstrap.o)
 .data          0x00000000        0x0 c:/program files (x86)/microchip/xc32/v2.30/bin/bin/../../lib/gcc/pic32mx/4.8.3/../../../../pic32mx/lib\libpic32.a(default-on-bootstrap.o)
 .bss           0x00000000        0x0 c:/program files (x86)/microchip/xc32/v2.30/bin/bin/../../lib/gcc/pic32mx/4.8.3/../../../../pic32mx/lib\libpic32.a(default-on-bootstrap.o)
 .reginfo       0x00000000       0x18 c:/program files (x86)/microchip/xc32/v2.30/bin/bin/../../lib/gcc/pic32mx/4.8.3/../../../../pic32mx/lib\libpic32.a(default-on-bootstrap.o)
 .data          0x00000000        0x0 c:/program files (x86)/microchip/xc32/v2.30/bin/bin/../../lib/gcc/pic32mx/4.8.3/../../../../pic32mx/lib\libpic32.a(default-nmi-handler.o)
 .bss           0x00000000        0x0 c:/program files (x86)/microchip/xc32/v2.30/bin/bin/../../lib/gcc/pic32mx/4.8.3/../../../../pic32mx/lib\libpic32.a(default-nmi-handler.o)
 .reginfo       0x00000000       0x18 c:/program files (x86)/microchip/xc32/v2.30/bin/bin/../../lib/gcc/pic32mx/4.8.3/../../../../pic32mx/lib\libpic32.a(default-nmi-handler.o)
 .data          0x00000000        0x0 c:/program files (x86)/microchip/xc32/v2.30/bin/bin/../../lib/gcc/pic32mx/4.8.3/../../../../pic32mx/lib\libpic32.a(pic32_data_init.o)
 .bss           0x00000000        0x0 c:/program files (x86)/microchip/xc32/v2.30/bin/bin/../../lib/gcc/pic32mx/4.8.3/../../../../pic32mx/lib\libpic32.a(pic32_data_init.o)
 .reginfo       0x00000000       0x18 c:/program files (x86)/microchip/xc32/v2.30/bin/bin/../../lib/gcc/pic32mx/4.8.3/../../../../pic32mx/lib\libpic32.a(pic32_data_init.o)
 .text          0x00000000        0x0 c:/program files (x86)/microchip/xc32/v2.30/bin/bin/../../lib/gcc/pic32mx/4.8.3/../../../../pic32mx/lib\libpic32.a(general-exception.o)
 .data          0x00000000        0x0 c:/program files (x86)/microchip/xc32/v2.30/bin/bin/../../lib/gcc/pic32mx/4.8.3/../../../../pic32mx/lib\libpic32.a(general-exception.o)
 .bss           0x00000000        0x0 c:/program files (x86)/microchip/xc32/v2.30/bin/bin/../../lib/gcc/pic32mx/4.8.3/../../../../pic32mx/lib\libpic32.a(general-exception.o)
 .reginfo       0x00000000       0x18 c:/program files (x86)/microchip/xc32/v2.30/bin/bin/../../lib/gcc/pic32mx/4.8.3/../../../../pic32mx/lib\libpic32.a(general-exception.o)
 .text          0x00000000        0x0 c:/program files (x86)/microchip/xc32/v2.30/bin/bin/../../lib/gcc/pic32mx/4.8.3/../../../../pic32mx/lib\libpic32.a(vector0.o)
 .data          0x00000000        0x0 c:/program files (x86)/microchip/xc32/v2.30/bin/bin/../../lib/gcc/pic32mx/4.8.3/../../../../pic32mx/lib\libpic32.a(vector0.o)
 .bss           0x00000000        0x0 c:/program files (x86)/microchip/xc32/v2.30/bin/bin/../../lib/gcc/pic32mx/4.8.3/../../../../pic32mx/lib\libpic32.a(vector0.o)
 .reginfo       0x00000000       0x18 c:/program files (x86)/microchip/xc32/v2.30/bin/bin/../../lib/gcc/pic32mx/4.8.3/../../../../pic32mx/lib\libpic32.a(vector0.o)
 .text          0x00000000        0x0 c:/program files (x86)/microchip/xc32/v2.30/bin/bin/../../lib/gcc/pic32mx/4.8.3/../../../../pic32mx/lib\libpic32.a(vector1.o)
 .data          0x00000000        0x0 c:/program files (x86)/microchip/xc32/v2.30/bin/bin/../../lib/gcc/pic32mx/4.8.3/../../../../pic32mx/lib\libpic32.a(vector1.o)
 .bss           0x00000000        0x0 c:/program files (x86)/microchip/xc32/v2.30/bin/bin/../../lib/gcc/pic32mx/4.8.3/../../../../pic32mx/lib\libpic32.a(vector1.o)
 .reginfo       0x00000000       0x18 c:/program files (x86)/microchip/xc32/v2.30/bin/bin/../../lib/gcc/pic32mx/4.8.3/../../../../pic32mx/lib\libpic32.a(vector1.o)
 .text          0x00000000        0x0 c:/program files (x86)/microchip/xc32/v2.30/bin/bin/../../lib/gcc/pic32mx/4.8.3/../../../../pic32mx/lib\libpic32.a(vector2.o)
 .data          0x00000000        0x0 c:/program files (x86)/microchip/xc32/v2.30/bin/bin/../../lib/gcc/pic32mx/4.8.3/../../../../pic32mx/lib\libpic32.a(vector2.o)
 .bss           0x00000000        0x0 c:/program files (x86)/microchip/xc32/v2.30/bin/bin/../../lib/gcc/pic32mx/4.8.3/../../../../pic32mx/lib\libpic32.a(vector2.o)
 .reginfo       0x00000000       0x18 c:/program files (x86)/microchip/xc32/v2.30/bin/bin/../../lib/gcc/pic32mx/4.8.3/../../../../pic32mx/lib\libpic32.a(vector2.o)
 .text          0x00000000        0x0 c:/program files (x86)/microchip/xc32/v2.30/bin/bin/../../lib/gcc/pic32mx/4.8.3/../../../../pic32mx/lib\libpic32.a(vector3.o)
 .data          0x00000000        0x0 c:/program files (x86)/microchip/xc32/v2.30/bin/bin/../../lib/gcc/pic32mx/4.8.3/../../../../pic32mx/lib\libpic32.a(vector3.o)
 .bss           0x00000000        0x0 c:/program files (x86)/microchip/xc32/v2.30/bin/bin/../../lib/gcc/pic32mx/4.8.3/../../../../pic32mx/lib\libpic32.a(vector3.o)
 .reginfo       0x00000000       0x18 c:/program files (x86)/microchip/xc32/v2.30/bin/bin/../../lib/gcc/pic32mx/4.8.3/../../../../pic32mx/lib\libpic32.a(vector3.o)
 .text          0x00000000        0x0 c:/program files (x86)/microchip/xc32/v2.30/bin/bin/../../lib/gcc/pic32mx/4.8.3/../../../../pic32mx/lib\libpic32.a(vector4.o)
 .data          0x00000000        0x0 c:/program files (x86)/microchip/xc32/v2.30/bin/bin/../../lib/gcc/pic32mx/4.8.3/../../../../pic32mx/lib\libpic32.a(vector4.o)
 .bss           0x00000000        0x0 c:/program files (x86)/microchip/xc32/v2.30/bin/bin/../../lib/gcc/pic32mx/4.8.3/../../../../pic32mx/lib\libpic32.a(vector4.o)
 .reginfo       0x00000000       0x18 c:/program files (x86)/microchip/xc32/v2.30/bin/bin/../../lib/gcc/pic32mx/4.8.3/../../../../pic32mx/lib\libpic32.a(vector4.o)
 .text          0x00000000        0x0 c:/program files (x86)/microchip/xc32/v2.30/bin/bin/../../lib/gcc/pic32mx/4.8.3/../../../../pic32mx/lib\libpic32.a(vector5.o)
 .data          0x00000000        0x0 c:/program files (x86)/microchip/xc32/v2.30/bin/bin/../../lib/gcc/pic32mx/4.8.3/../../../../pic32mx/lib\libpic32.a(vector5.o)
 .bss           0x00000000        0x0 c:/program files (x86)/microchip/xc32/v2.30/bin/bin/../../lib/gcc/pic32mx/4.8.3/../../../../pic32mx/lib\libpic32.a(vector5.o)
 .reginfo       0x00000000       0x18 c:/program files (x86)/microchip/xc32/v2.30/bin/bin/../../lib/gcc/pic32mx/4.8.3/../../../../pic32mx/lib\libpic32.a(vector5.o)
 .text          0x00000000        0x0 c:/program files (x86)/microchip/xc32/v2.30/bin/bin/../../lib/gcc/pic32mx/4.8.3/../../../../pic32mx/lib\libpic32.a(vector6.o)
 .data          0x00000000        0x0 c:/program files (x86)/microchip/xc32/v2.30/bin/bin/../../lib/gcc/pic32mx/4.8.3/../../../../pic32mx/lib\libpic32.a(vector6.o)
 .bss           0x00000000        0x0 c:/program files (x86)/microchip/xc32/v2.30/bin/bin/../../lib/gcc/pic32mx/4.8.3/../../../../pic32mx/lib\libpic32.a(vector6.o)
 .reginfo       0x00000000       0x18 c:/program files (x86)/microchip/xc32/v2.30/bin/bin/../../lib/gcc/pic32mx/4.8.3/../../../../pic32mx/lib\libpic32.a(vector6.o)
 .text          0x00000000        0x0 c:/program files (x86)/microchip/xc32/v2.30/bin/bin/../../lib/gcc/pic32mx/4.8.3/../../../../pic32mx/lib\libpic32.a(vector7.o)
 .data          0x00000000        0x0 c:/program files (x86)/microchip/xc32/v2.30/bin/bin/../../lib/gcc/pic32mx/4.8.3/../../../../pic32mx/lib\libpic32.a(vector7.o)
 .bss           0x00000000        0x0 c:/program files (x86)/microchip/xc32/v2.30/bin/bin/../../lib/gcc/pic32mx/4.8.3/../../../../pic32mx/lib\libpic32.a(vector7.o)
 .reginfo       0x00000000       0x18 c:/program files (x86)/microchip/xc32/v2.30/bin/bin/../../lib/gcc/pic32mx/4.8.3/../../../../pic32mx/lib\libpic32.a(vector7.o)
 .text          0x00000000        0x0 c:/program files (x86)/microchip/xc32/v2.30/bin/bin/../../lib/gcc/pic32mx/4.8.3/../../../../pic32mx/lib\libpic32.a(vector8.o)
 .data          0x00000000        0x0 c:/program files (x86)/microchip/xc32/v2.30/bin/bin/../../lib/gcc/pic32mx/4.8.3/../../../../pic32mx/lib\libpic32.a(vector8.o)
 .bss           0x00000000        0x0 c:/program files (x86)/microchip/xc32/v2.30/bin/bin/../../lib/gcc/pic32mx/4.8.3/../../../../pic32mx/lib\libpic32.a(vector8.o)
 .reginfo       0x00000000       0x18 c:/program files (x86)/microchip/xc32/v2.30/bin/bin/../../lib/gcc/pic32mx/4.8.3/../../../../pic32mx/lib\libpic32.a(vector8.o)
 .text          0x00000000        0x0 c:/program files (x86)/microchip/xc32/v2.30/bin/bin/../../lib/gcc/pic32mx/4.8.3/../../../../pic32mx/lib\libpic32.a(vector9.o)
 .data          0x00000000        0x0 c:/program files (x86)/microchip/xc32/v2.30/bin/bin/../../lib/gcc/pic32mx/4.8.3/../../../../pic32mx/lib\libpic32.a(vector9.o)
 .bss           0x00000000        0x0 c:/program files (x86)/microchip/xc32/v2.30/bin/bin/../../lib/gcc/pic32mx/4.8.3/../../../../pic32mx/lib\libpic32.a(vector9.o)
 .reginfo       0x00000000       0x18 c:/program files (x86)/microchip/xc32/v2.30/bin/bin/../../lib/gcc/pic32mx/4.8.3/../../../../pic32mx/lib\libpic32.a(vector9.o)
 .text          0x00000000        0x0 c:/program files (x86)/microchip/xc32/v2.30/bin/bin/../../lib/gcc/pic32mx/4.8.3/../../../../pic32mx/lib\libpic32.a(vector10.o)
 .data          0x00000000        0x0 c:/program files (x86)/microchip/xc32/v2.30/bin/bin/../../lib/gcc/pic32mx/4.8.3/../../../../pic32mx/lib\libpic32.a(vector10.o)
 .bss           0x00000000        0x0 c:/program files (x86)/microchip/xc32/v2.30/bin/bin/../../lib/gcc/pic32mx/4.8.3/../../../../pic32mx/lib\libpic32.a(vector10.o)
 .reginfo       0x00000000       0x18 c:/program files (x86)/microchip/xc32/v2.30/bin/bin/../../lib/gcc/pic32mx/4.8.3/../../../../pic32mx/lib\libpic32.a(vector10.o)
 .text          0x00000000        0x0 c:/program files (x86)/microchip/xc32/v2.30/bin/bin/../../lib/gcc/pic32mx/4.8.3/../../../../pic32mx/lib\libpic32.a(vector11.o)
 .data          0x00000000        0x0 c:/program files (x86)/microchip/xc32/v2.30/bin/bin/../../lib/gcc/pic32mx/4.8.3/../../../../pic32mx/lib\libpic32.a(vector11.o)
 .bss           0x00000000        0x0 c:/program files (x86)/microchip/xc32/v2.30/bin/bin/../../lib/gcc/pic32mx/4.8.3/../../../../pic32mx/lib\libpic32.a(vector11.o)
 .reginfo       0x00000000       0x18 c:/program files (x86)/microchip/xc32/v2.30/bin/bin/../../lib/gcc/pic32mx/4.8.3/../../../../pic32mx/lib\libpic32.a(vector11.o)
 .text          0x00000000        0x0 c:/program files (x86)/microchip/xc32/v2.30/bin/bin/../../lib/gcc/pic32mx/4.8.3/../../../../pic32mx/lib\libpic32.a(vector12.o)
 .data          0x00000000        0x0 c:/program files (x86)/microchip/xc32/v2.30/bin/bin/../../lib/gcc/pic32mx/4.8.3/../../../../pic32mx/lib\libpic32.a(vector12.o)
 .bss           0x00000000        0x0 c:/program files (x86)/microchip/xc32/v2.30/bin/bin/../../lib/gcc/pic32mx/4.8.3/../../../../pic32mx/lib\libpic32.a(vector12.o)
 .reginfo       0x00000000       0x18 c:/program files (x86)/microchip/xc32/v2.30/bin/bin/../../lib/gcc/pic32mx/4.8.3/../../../../pic32mx/lib\libpic32.a(vector12.o)
 .text          0x00000000        0x0 c:/program files (x86)/microchip/xc32/v2.30/bin/bin/../../lib/gcc/pic32mx/4.8.3/../../../../pic32mx/lib\libpic32.a(vector13.o)
 .data          0x00000000        0x0 c:/program files (x86)/microchip/xc32/v2.30/bin/bin/../../lib/gcc/pic32mx/4.8.3/../../../../pic32mx/lib\libpic32.a(vector13.o)
 .bss           0x00000000        0x0 c:/program files (x86)/microchip/xc32/v2.30/bin/bin/../../lib/gcc/pic32mx/4.8.3/../../../../pic32mx/lib\libpic32.a(vector13.o)
 .reginfo       0x00000000       0x18 c:/program files (x86)/microchip/xc32/v2.30/bin/bin/../../lib/gcc/pic32mx/4.8.3/../../../../pic32mx/lib\libpic32.a(vector13.o)
 .text          0x00000000        0x0 c:/program files (x86)/microchip/xc32/v2.30/bin/bin/../../lib/gcc/pic32mx/4.8.3/../../../../pic32mx/lib\libpic32.a(vector14.o)
 .data          0x00000000        0x0 c:/program files (x86)/microchip/xc32/v2.30/bin/bin/../../lib/gcc/pic32mx/4.8.3/../../../../pic32mx/lib\libpic32.a(vector14.o)
 .bss           0x00000000        0x0 c:/program files (x86)/microchip/xc32/v2.30/bin/bin/../../lib/gcc/pic32mx/4.8.3/../../../../pic32mx/lib\libpic32.a(vector14.o)
 .reginfo       0x00000000       0x18 c:/program files (x86)/microchip/xc32/v2.30/bin/bin/../../lib/gcc/pic32mx/4.8.3/../../../../pic32mx/lib\libpic32.a(vector14.o)
 .text          0x00000000        0x0 c:/program files (x86)/microchip/xc32/v2.30/bin/bin/../../lib/gcc/pic32mx/4.8.3/../../../../pic32mx/lib\libpic32.a(vector15.o)
 .data          0x00000000        0x0 c:/program files (x86)/microchip/xc32/v2.30/bin/bin/../../lib/gcc/pic32mx/4.8.3/../../../../pic32mx/lib\libpic32.a(vector15.o)
 .bss           0x00000000        0x0 c:/program files (x86)/microchip/xc32/v2.30/bin/bin/../../lib/gcc/pic32mx/4.8.3/../../../../pic32mx/lib\libpic32.a(vector15.o)
 .reginfo       0x00000000       0x18 c:/program files (x86)/microchip/xc32/v2.30/bin/bin/../../lib/gcc/pic32mx/4.8.3/../../../../pic32mx/lib\libpic32.a(vector15.o)
 .text          0x00000000        0x0 c:/program files (x86)/microchip/xc32/v2.30/bin/bin/../../lib/gcc/pic32mx/4.8.3/../../../../pic32mx/lib\libpic32.a(vector16.o)
 .data          0x00000000        0x0 c:/program files (x86)/microchip/xc32/v2.30/bin/bin/../../lib/gcc/pic32mx/4.8.3/../../../../pic32mx/lib\libpic32.a(vector16.o)
 .bss           0x00000000        0x0 c:/program files (x86)/microchip/xc32/v2.30/bin/bin/../../lib/gcc/pic32mx/4.8.3/../../../../pic32mx/lib\libpic32.a(vector16.o)
 .reginfo       0x00000000       0x18 c:/program files (x86)/microchip/xc32/v2.30/bin/bin/../../lib/gcc/pic32mx/4.8.3/../../../../pic32mx/lib\libpic32.a(vector16.o)
 .text          0x00000000        0x0 c:/program files (x86)/microchip/xc32/v2.30/bin/bin/../../lib/gcc/pic32mx/4.8.3/../../../../pic32mx/lib\libpic32.a(vector17.o)
 .data          0x00000000        0x0 c:/program files (x86)/microchip/xc32/v2.30/bin/bin/../../lib/gcc/pic32mx/4.8.3/../../../../pic32mx/lib\libpic32.a(vector17.o)
 .bss           0x00000000        0x0 c:/program files (x86)/microchip/xc32/v2.30/bin/bin/../../lib/gcc/pic32mx/4.8.3/../../../../pic32mx/lib\libpic32.a(vector17.o)
 .reginfo       0x00000000       0x18 c:/program files (x86)/microchip/xc32/v2.30/bin/bin/../../lib/gcc/pic32mx/4.8.3/../../../../pic32mx/lib\libpic32.a(vector17.o)
 .text          0x00000000        0x0 c:/program files (x86)/microchip/xc32/v2.30/bin/bin/../../lib/gcc/pic32mx/4.8.3/../../../../pic32mx/lib\libpic32.a(vector18.o)
 .data          0x00000000        0x0 c:/program files (x86)/microchip/xc32/v2.30/bin/bin/../../lib/gcc/pic32mx/4.8.3/../../../../pic32mx/lib\libpic32.a(vector18.o)
 .bss           0x00000000        0x0 c:/program files (x86)/microchip/xc32/v2.30/bin/bin/../../lib/gcc/pic32mx/4.8.3/../../../../pic32mx/lib\libpic32.a(vector18.o)
 .reginfo       0x00000000       0x18 c:/program files (x86)/microchip/xc32/v2.30/bin/bin/../../lib/gcc/pic32mx/4.8.3/../../../../pic32mx/lib\libpic32.a(vector18.o)
 .text          0x00000000        0x0 c:/program files (x86)/microchip/xc32/v2.30/bin/bin/../../lib/gcc/pic32mx/4.8.3/../../../../pic32mx/lib\libpic32.a(vector19.o)
 .data          0x00000000        0x0 c:/program files (x86)/microchip/xc32/v2.30/bin/bin/../../lib/gcc/pic32mx/4.8.3/../../../../pic32mx/lib\libpic32.a(vector19.o)
 .bss           0x00000000        0x0 c:/program files (x86)/microchip/xc32/v2.30/bin/bin/../../lib/gcc/pic32mx/4.8.3/../../../../pic32mx/lib\libpic32.a(vector19.o)
 .reginfo       0x00000000       0x18 c:/program files (x86)/microchip/xc32/v2.30/bin/bin/../../lib/gcc/pic32mx/4.8.3/../../../../pic32mx/lib\libpic32.a(vector19.o)
 .text          0x00000000        0x0 c:/program files (x86)/microchip/xc32/v2.30/bin/bin/../../lib/gcc/pic32mx/4.8.3/../../../../pic32mx/lib\libpic32.a(vector20.o)
 .data          0x00000000        0x0 c:/program files (x86)/microchip/xc32/v2.30/bin/bin/../../lib/gcc/pic32mx/4.8.3/../../../../pic32mx/lib\libpic32.a(vector20.o)
 .bss           0x00000000        0x0 c:/program files (x86)/microchip/xc32/v2.30/bin/bin/../../lib/gcc/pic32mx/4.8.3/../../../../pic32mx/lib\libpic32.a(vector20.o)
 .reginfo       0x00000000       0x18 c:/program files (x86)/microchip/xc32/v2.30/bin/bin/../../lib/gcc/pic32mx/4.8.3/../../../../pic32mx/lib\libpic32.a(vector20.o)
 .text          0x00000000        0x0 c:/program files (x86)/microchip/xc32/v2.30/bin/bin/../../lib/gcc/pic32mx/4.8.3/../../../../pic32mx/lib\libpic32.a(vector21.o)
 .data          0x00000000        0x0 c:/program files (x86)/microchip/xc32/v2.30/bin/bin/../../lib/gcc/pic32mx/4.8.3/../../../../pic32mx/lib\libpic32.a(vector21.o)
 .bss           0x00000000        0x0 c:/program files (x86)/microchip/xc32/v2.30/bin/bin/../../lib/gcc/pic32mx/4.8.3/../../../../pic32mx/lib\libpic32.a(vector21.o)
 .reginfo       0x00000000       0x18 c:/program files (x86)/microchip/xc32/v2.30/bin/bin/../../lib/gcc/pic32mx/4.8.3/../../../../pic32mx/lib\libpic32.a(vector21.o)
 .text          0x00000000        0x0 c:/program files (x86)/microchip/xc32/v2.30/bin/bin/../../lib/gcc/pic32mx/4.8.3/../../../../pic32mx/lib\libpic32.a(vector22.o)
 .data          0x00000000        0x0 c:/program files (x86)/microchip/xc32/v2.30/bin/bin/../../lib/gcc/pic32mx/4.8.3/../../../../pic32mx/lib\libpic32.a(vector22.o)
 .bss           0x00000000        0x0 c:/program files (x86)/microchip/xc32/v2.30/bin/bin/../../lib/gcc/pic32mx/4.8.3/../../../../pic32mx/lib\libpic32.a(vector22.o)
 .reginfo       0x00000000       0x18 c:/program files (x86)/microchip/xc32/v2.30/bin/bin/../../lib/gcc/pic32mx/4.8.3/../../../../pic32mx/lib\libpic32.a(vector22.o)
 .text          0x00000000        0x0 c:/program files (x86)/microchip/xc32/v2.30/bin/bin/../../lib/gcc/pic32mx/4.8.3/../../../../pic32mx/lib\libpic32.a(vector23.o)
 .data          0x00000000        0x0 c:/program files (x86)/microchip/xc32/v2.30/bin/bin/../../lib/gcc/pic32mx/4.8.3/../../../../pic32mx/lib\libpic32.a(vector23.o)
 .bss           0x00000000        0x0 c:/program files (x86)/microchip/xc32/v2.30/bin/bin/../../lib/gcc/pic32mx/4.8.3/../../../../pic32mx/lib\libpic32.a(vector23.o)
 .reginfo       0x00000000       0x18 c:/program files (x86)/microchip/xc32/v2.30/bin/bin/../../lib/gcc/pic32mx/4.8.3/../../../../pic32mx/lib\libpic32.a(vector23.o)
 .text          0x00000000        0x0 c:/program files (x86)/microchip/xc32/v2.30/bin/bin/../../lib/gcc/pic32mx/4.8.3/../../../../pic32mx/lib\libpic32.a(vector24.o)
 .data          0x00000000        0x0 c:/program files (x86)/microchip/xc32/v2.30/bin/bin/../../lib/gcc/pic32mx/4.8.3/../../../../pic32mx/lib\libpic32.a(vector24.o)
 .bss           0x00000000        0x0 c:/program files (x86)/microchip/xc32/v2.30/bin/bin/../../lib/gcc/pic32mx/4.8.3/../../../../pic32mx/lib\libpic32.a(vector24.o)
 .reginfo       0x00000000       0x18 c:/program files (x86)/microchip/xc32/v2.30/bin/bin/../../lib/gcc/pic32mx/4.8.3/../../../../pic32mx/lib\libpic32.a(vector24.o)
 .text          0x00000000        0x0 c:/program files (x86)/microchip/xc32/v2.30/bin/bin/../../lib/gcc/pic32mx/4.8.3/../../../../pic32mx/lib\libpic32.a(vector25.o)
 .data          0x00000000        0x0 c:/program files (x86)/microchip/xc32/v2.30/bin/bin/../../lib/gcc/pic32mx/4.8.3/../../../../pic32mx/lib\libpic32.a(vector25.o)
 .bss           0x00000000        0x0 c:/program files (x86)/microchip/xc32/v2.30/bin/bin/../../lib/gcc/pic32mx/4.8.3/../../../../pic32mx/lib\libpic32.a(vector25.o)
 .reginfo       0x00000000       0x18 c:/program files (x86)/microchip/xc32/v2.30/bin/bin/../../lib/gcc/pic32mx/4.8.3/../../../../pic32mx/lib\libpic32.a(vector25.o)
 .text          0x00000000        0x0 c:/program files (x86)/microchip/xc32/v2.30/bin/bin/../../lib/gcc/pic32mx/4.8.3/../../../../pic32mx/lib\libpic32.a(vector26.o)
 .data          0x00000000        0x0 c:/program files (x86)/microchip/xc32/v2.30/bin/bin/../../lib/gcc/pic32mx/4.8.3/../../../../pic32mx/lib\libpic32.a(vector26.o)
 .bss           0x00000000        0x0 c:/program files (x86)/microchip/xc32/v2.30/bin/bin/../../lib/gcc/pic32mx/4.8.3/../../../../pic32mx/lib\libpic32.a(vector26.o)
 .reginfo       0x00000000       0x18 c:/program files (x86)/microchip/xc32/v2.30/bin/bin/../../lib/gcc/pic32mx/4.8.3/../../../../pic32mx/lib\libpic32.a(vector26.o)
 .text          0x00000000        0x0 c:/program files (x86)/microchip/xc32/v2.30/bin/bin/../../lib/gcc/pic32mx/4.8.3/../../../../pic32mx/lib\libpic32.a(vector27.o)
 .data          0x00000000        0x0 c:/program files (x86)/microchip/xc32/v2.30/bin/bin/../../lib/gcc/pic32mx/4.8.3/../../../../pic32mx/lib\libpic32.a(vector27.o)
 .bss           0x00000000        0x0 c:/program files (x86)/microchip/xc32/v2.30/bin/bin/../../lib/gcc/pic32mx/4.8.3/../../../../pic32mx/lib\libpic32.a(vector27.o)
 .reginfo       0x00000000       0x18 c:/program files (x86)/microchip/xc32/v2.30/bin/bin/../../lib/gcc/pic32mx/4.8.3/../../../../pic32mx/lib\libpic32.a(vector27.o)
 .text          0x00000000        0x0 c:/program files (x86)/microchip/xc32/v2.30/bin/bin/../../lib/gcc/pic32mx/4.8.3/../../../../pic32mx/lib\libpic32.a(vector28.o)
 .data          0x00000000        0x0 c:/program files (x86)/microchip/xc32/v2.30/bin/bin/../../lib/gcc/pic32mx/4.8.3/../../../../pic32mx/lib\libpic32.a(vector28.o)
 .bss           0x00000000        0x0 c:/program files (x86)/microchip/xc32/v2.30/bin/bin/../../lib/gcc/pic32mx/4.8.3/../../../../pic32mx/lib\libpic32.a(vector28.o)
 .reginfo       0x00000000       0x18 c:/program files (x86)/microchip/xc32/v2.30/bin/bin/../../lib/gcc/pic32mx/4.8.3/../../../../pic32mx/lib\libpic32.a(vector28.o)
 .text          0x00000000        0x0 c:/program files (x86)/microchip/xc32/v2.30/bin/bin/../../lib/gcc/pic32mx/4.8.3/../../../../pic32mx/lib\libpic32.a(vector29.o)
 .data          0x00000000        0x0 c:/program files (x86)/microchip/xc32/v2.30/bin/bin/../../lib/gcc/pic32mx/4.8.3/../../../../pic32mx/lib\libpic32.a(vector29.o)
 .bss           0x00000000        0x0 c:/program files (x86)/microchip/xc32/v2.30/bin/bin/../../lib/gcc/pic32mx/4.8.3/../../../../pic32mx/lib\libpic32.a(vector29.o)
 .reginfo       0x00000000       0x18 c:/program files (x86)/microchip/xc32/v2.30/bin/bin/../../lib/gcc/pic32mx/4.8.3/../../../../pic32mx/lib\libpic32.a(vector29.o)
 .text          0x00000000        0x0 c:/program files (x86)/microchip/xc32/v2.30/bin/bin/../../lib/gcc/pic32mx/4.8.3/../../../../pic32mx/lib\libpic32.a(vector30.o)
 .data          0x00000000        0x0 c:/program files (x86)/microchip/xc32/v2.30/bin/bin/../../lib/gcc/pic32mx/4.8.3/../../../../pic32mx/lib\libpic32.a(vector30.o)
 .bss           0x00000000        0x0 c:/program files (x86)/microchip/xc32/v2.30/bin/bin/../../lib/gcc/pic32mx/4.8.3/../../../../pic32mx/lib\libpic32.a(vector30.o)
 .reginfo       0x00000000       0x18 c:/program files (x86)/microchip/xc32/v2.30/bin/bin/../../lib/gcc/pic32mx/4.8.3/../../../../pic32mx/lib\libpic32.a(vector30.o)
 .text          0x00000000        0x0 c:/program files (x86)/microchip/xc32/v2.30/bin/bin/../../lib/gcc/pic32mx/4.8.3/../../../../pic32mx/lib\libpic32.a(vector31.o)
 .data          0x00000000        0x0 c:/program files (x86)/microchip/xc32/v2.30/bin/bin/../../lib/gcc/pic32mx/4.8.3/../../../../pic32mx/lib\libpic32.a(vector31.o)
 .bss           0x00000000        0x0 c:/program files (x86)/microchip/xc32/v2.30/bin/bin/../../lib/gcc/pic32mx/4.8.3/../../../../pic32mx/lib\libpic32.a(vector31.o)
 .reginfo       0x00000000       0x18 c:/program files (x86)/microchip/xc32/v2.30/bin/bin/../../lib/gcc/pic32mx/4.8.3/../../../../pic32mx/lib\libpic32.a(vector31.o)
 .text          0x00000000        0x0 c:/program files (x86)/microchip/xc32/v2.30/bin/bin/../../lib/gcc/pic32mx/4.8.3/../../../../pic32mx/lib\libpic32.a(vector32.o)
 .data          0x00000000        0x0 c:/program files (x86)/microchip/xc32/v2.30/bin/bin/../../lib/gcc/pic32mx/4.8.3/../../../../pic32mx/lib\libpic32.a(vector32.o)
 .bss           0x00000000        0x0 c:/program files (x86)/microchip/xc32/v2.30/bin/bin/../../lib/gcc/pic32mx/4.8.3/../../../../pic32mx/lib\libpic32.a(vector32.o)
 .reginfo       0x00000000       0x18 c:/program files (x86)/microchip/xc32/v2.30/bin/bin/../../lib/gcc/pic32mx/4.8.3/../../../../pic32mx/lib\libpic32.a(vector32.o)
 .text          0x00000000        0x0 c:/program files (x86)/microchip/xc32/v2.30/bin/bin/../../lib/gcc/pic32mx/4.8.3/../../../../pic32mx/lib\libpic32.a(vector33.o)
 .data          0x00000000        0x0 c:/program files (x86)/microchip/xc32/v2.30/bin/bin/../../lib/gcc/pic32mx/4.8.3/../../../../pic32mx/lib\libpic32.a(vector33.o)
 .bss           0x00000000        0x0 c:/program files (x86)/microchip/xc32/v2.30/bin/bin/../../lib/gcc/pic32mx/4.8.3/../../../../pic32mx/lib\libpic32.a(vector33.o)
 .reginfo       0x00000000       0x18 c:/program files (x86)/microchip/xc32/v2.30/bin/bin/../../lib/gcc/pic32mx/4.8.3/../../../../pic32mx/lib\libpic32.a(vector33.o)
 .text          0x00000000        0x0 c:/program files (x86)/microchip/xc32/v2.30/bin/bin/../../lib/gcc/pic32mx/4.8.3/../../../../pic32mx/lib\libpic32.a(vector34.o)
 .data          0x00000000        0x0 c:/program files (x86)/microchip/xc32/v2.30/bin/bin/../../lib/gcc/pic32mx/4.8.3/../../../../pic32mx/lib\libpic32.a(vector34.o)
 .bss           0x00000000        0x0 c:/program files (x86)/microchip/xc32/v2.30/bin/bin/../../lib/gcc/pic32mx/4.8.3/../../../../pic32mx/lib\libpic32.a(vector34.o)
 .reginfo       0x00000000       0x18 c:/program files (x86)/microchip/xc32/v2.30/bin/bin/../../lib/gcc/pic32mx/4.8.3/../../../../pic32mx/lib\libpic32.a(vector34.o)
 .text          0x00000000        0x0 c:/program files (x86)/microchip/xc32/v2.30/bin/bin/../../lib/gcc/pic32mx/4.8.3/../../../../pic32mx/lib\libpic32.a(vector35.o)
 .data          0x00000000        0x0 c:/program files (x86)/microchip/xc32/v2.30/bin/bin/../../lib/gcc/pic32mx/4.8.3/../../../../pic32mx/lib\libpic32.a(vector35.o)
 .bss           0x00000000        0x0 c:/program files (x86)/microchip/xc32/v2.30/bin/bin/../../lib/gcc/pic32mx/4.8.3/../../../../pic32mx/lib\libpic32.a(vector35.o)
 .reginfo       0x00000000       0x18 c:/program files (x86)/microchip/xc32/v2.30/bin/bin/../../lib/gcc/pic32mx/4.8.3/../../../../pic32mx/lib\libpic32.a(vector35.o)
 .text          0x00000000        0x0 c:/program files (x86)/microchip/xc32/v2.30/bin/bin/../../lib/gcc/pic32mx/4.8.3/../../../../pic32mx/lib\libpic32.a(vector36.o)
 .data          0x00000000        0x0 c:/program files (x86)/microchip/xc32/v2.30/bin/bin/../../lib/gcc/pic32mx/4.8.3/../../../../pic32mx/lib\libpic32.a(vector36.o)
 .bss           0x00000000        0x0 c:/program files (x86)/microchip/xc32/v2.30/bin/bin/../../lib/gcc/pic32mx/4.8.3/../../../../pic32mx/lib\libpic32.a(vector36.o)
 .reginfo       0x00000000       0x18 c:/program files (x86)/microchip/xc32/v2.30/bin/bin/../../lib/gcc/pic32mx/4.8.3/../../../../pic32mx/lib\libpic32.a(vector36.o)
 .text          0x00000000        0x0 c:/program files (x86)/microchip/xc32/v2.30/bin/bin/../../lib/gcc/pic32mx/4.8.3/../../../../pic32mx/lib\libpic32.a(vector37.o)
 .data          0x00000000        0x0 c:/program files (x86)/microchip/xc32/v2.30/bin/bin/../../lib/gcc/pic32mx/4.8.3/../../../../pic32mx/lib\libpic32.a(vector37.o)
 .bss           0x00000000        0x0 c:/program files (x86)/microchip/xc32/v2.30/bin/bin/../../lib/gcc/pic32mx/4.8.3/../../../../pic32mx/lib\libpic32.a(vector37.o)
 .reginfo       0x00000000       0x18 c:/program files (x86)/microchip/xc32/v2.30/bin/bin/../../lib/gcc/pic32mx/4.8.3/../../../../pic32mx/lib\libpic32.a(vector37.o)
 .text          0x00000000        0x0 c:/program files (x86)/microchip/xc32/v2.30/bin/bin/../../lib/gcc/pic32mx/4.8.3/../../../../pic32mx/lib\libpic32.a(vector38.o)
 .data          0x00000000        0x0 c:/program files (x86)/microchip/xc32/v2.30/bin/bin/../../lib/gcc/pic32mx/4.8.3/../../../../pic32mx/lib\libpic32.a(vector38.o)
 .bss           0x00000000        0x0 c:/program files (x86)/microchip/xc32/v2.30/bin/bin/../../lib/gcc/pic32mx/4.8.3/../../../../pic32mx/lib\libpic32.a(vector38.o)
 .reginfo       0x00000000       0x18 c:/program files (x86)/microchip/xc32/v2.30/bin/bin/../../lib/gcc/pic32mx/4.8.3/../../../../pic32mx/lib\libpic32.a(vector38.o)
 .text          0x00000000        0x0 c:/program files (x86)/microchip/xc32/v2.30/bin/bin/../../lib/gcc/pic32mx/4.8.3/../../../../pic32mx/lib\libpic32.a(vector39.o)
 .data          0x00000000        0x0 c:/program files (x86)/microchip/xc32/v2.30/bin/bin/../../lib/gcc/pic32mx/4.8.3/../../../../pic32mx/lib\libpic32.a(vector39.o)
 .bss           0x00000000        0x0 c:/program files (x86)/microchip/xc32/v2.30/bin/bin/../../lib/gcc/pic32mx/4.8.3/../../../../pic32mx/lib\libpic32.a(vector39.o)
 .reginfo       0x00000000       0x18 c:/program files (x86)/microchip/xc32/v2.30/bin/bin/../../lib/gcc/pic32mx/4.8.3/../../../../pic32mx/lib\libpic32.a(vector39.o)
 .text          0x00000000        0x0 c:/program files (x86)/microchip/xc32/v2.30/bin/bin/../../lib/gcc/pic32mx/4.8.3/../../../../pic32mx/lib\libpic32.a(vector40.o)
 .data          0x00000000        0x0 c:/program files (x86)/microchip/xc32/v2.30/bin/bin/../../lib/gcc/pic32mx/4.8.3/../../../../pic32mx/lib\libpic32.a(vector40.o)
 .bss           0x00000000        0x0 c:/program files (x86)/microchip/xc32/v2.30/bin/bin/../../lib/gcc/pic32mx/4.8.3/../../../../pic32mx/lib\libpic32.a(vector40.o)
 .reginfo       0x00000000       0x18 c:/program files (x86)/microchip/xc32/v2.30/bin/bin/../../lib/gcc/pic32mx/4.8.3/../../../../pic32mx/lib\libpic32.a(vector40.o)
 .text          0x00000000        0x0 c:/program files (x86)/microchip/xc32/v2.30/bin/bin/../../lib/gcc/pic32mx/4.8.3/../../../../pic32mx/lib\libpic32.a(vector41.o)
 .data          0x00000000        0x0 c:/program files (x86)/microchip/xc32/v2.30/bin/bin/../../lib/gcc/pic32mx/4.8.3/../../../../pic32mx/lib\libpic32.a(vector41.o)
 .bss           0x00000000        0x0 c:/program files (x86)/microchip/xc32/v2.30/bin/bin/../../lib/gcc/pic32mx/4.8.3/../../../../pic32mx/lib\libpic32.a(vector41.o)
 .reginfo       0x00000000       0x18 c:/program files (x86)/microchip/xc32/v2.30/bin/bin/../../lib/gcc/pic32mx/4.8.3/../../../../pic32mx/lib\libpic32.a(vector41.o)
 .text          0x00000000        0x0 c:/program files (x86)/microchip/xc32/v2.30/bin/bin/../../lib/gcc/pic32mx/4.8.3/../../../../pic32mx/lib\libpic32.a(vector42.o)
 .data          0x00000000        0x0 c:/program files (x86)/microchip/xc32/v2.30/bin/bin/../../lib/gcc/pic32mx/4.8.3/../../../../pic32mx/lib\libpic32.a(vector42.o)
 .bss           0x00000000        0x0 c:/program files (x86)/microchip/xc32/v2.30/bin/bin/../../lib/gcc/pic32mx/4.8.3/../../../../pic32mx/lib\libpic32.a(vector42.o)
 .reginfo       0x00000000       0x18 c:/program files (x86)/microchip/xc32/v2.30/bin/bin/../../lib/gcc/pic32mx/4.8.3/../../../../pic32mx/lib\libpic32.a(vector42.o)
 .text          0x00000000        0x0 c:/program files (x86)/microchip/xc32/v2.30/bin/bin/../../lib/gcc/pic32mx/4.8.3/../../../../pic32mx/lib\libpic32.a(vector43.o)
 .data          0x00000000        0x0 c:/program files (x86)/microchip/xc32/v2.30/bin/bin/../../lib/gcc/pic32mx/4.8.3/../../../../pic32mx/lib\libpic32.a(vector43.o)
 .bss           0x00000000        0x0 c:/program files (x86)/microchip/xc32/v2.30/bin/bin/../../lib/gcc/pic32mx/4.8.3/../../../../pic32mx/lib\libpic32.a(vector43.o)
 .reginfo       0x00000000       0x18 c:/program files (x86)/microchip/xc32/v2.30/bin/bin/../../lib/gcc/pic32mx/4.8.3/../../../../pic32mx/lib\libpic32.a(vector43.o)
 .text          0x00000000        0x0 c:/program files (x86)/microchip/xc32/v2.30/bin/bin/../../lib/gcc/pic32mx/4.8.3/../../../../pic32mx/lib\libpic32.a(vector44.o)
 .data          0x00000000        0x0 c:/program files (x86)/microchip/xc32/v2.30/bin/bin/../../lib/gcc/pic32mx/4.8.3/../../../../pic32mx/lib\libpic32.a(vector44.o)
 .bss           0x00000000        0x0 c:/program files (x86)/microchip/xc32/v2.30/bin/bin/../../lib/gcc/pic32mx/4.8.3/../../../../pic32mx/lib\libpic32.a(vector44.o)
 .reginfo       0x00000000       0x18 c:/program files (x86)/microchip/xc32/v2.30/bin/bin/../../lib/gcc/pic32mx/4.8.3/../../../../pic32mx/lib\libpic32.a(vector44.o)
 .text          0x00000000        0x0 c:/program files (x86)/microchip/xc32/v2.30/bin/bin/../../lib/gcc/pic32mx/4.8.3/../../../../pic32mx/lib\libpic32.a(vector45.o)
 .data          0x00000000        0x0 c:/program files (x86)/microchip/xc32/v2.30/bin/bin/../../lib/gcc/pic32mx/4.8.3/../../../../pic32mx/lib\libpic32.a(vector45.o)
 .bss           0x00000000        0x0 c:/program files (x86)/microchip/xc32/v2.30/bin/bin/../../lib/gcc/pic32mx/4.8.3/../../../../pic32mx/lib\libpic32.a(vector45.o)
 .reginfo       0x00000000       0x18 c:/program files (x86)/microchip/xc32/v2.30/bin/bin/../../lib/gcc/pic32mx/4.8.3/../../../../pic32mx/lib\libpic32.a(vector45.o)
 .text          0x00000000        0x0 c:/program files (x86)/microchip/xc32/v2.30/bin/bin/../../lib/gcc/pic32mx/4.8.3/../../../../pic32mx/lib\libpic32.a(vector46.o)
 .data          0x00000000        0x0 c:/program files (x86)/microchip/xc32/v2.30/bin/bin/../../lib/gcc/pic32mx/4.8.3/../../../../pic32mx/lib\libpic32.a(vector46.o)
 .bss           0x00000000        0x0 c:/program files (x86)/microchip/xc32/v2.30/bin/bin/../../lib/gcc/pic32mx/4.8.3/../../../../pic32mx/lib\libpic32.a(vector46.o)
 .reginfo       0x00000000       0x18 c:/program files (x86)/microchip/xc32/v2.30/bin/bin/../../lib/gcc/pic32mx/4.8.3/../../../../pic32mx/lib\libpic32.a(vector46.o)
 .text          0x00000000        0x0 c:/program files (x86)/microchip/xc32/v2.30/bin/bin/../../lib/gcc/pic32mx/4.8.3/../../../../pic32mx/lib\libpic32.a(vector47.o)
 .data          0x00000000        0x0 c:/program files (x86)/microchip/xc32/v2.30/bin/bin/../../lib/gcc/pic32mx/4.8.3/../../../../pic32mx/lib\libpic32.a(vector47.o)
 .bss           0x00000000        0x0 c:/program files (x86)/microchip/xc32/v2.30/bin/bin/../../lib/gcc/pic32mx/4.8.3/../../../../pic32mx/lib\libpic32.a(vector47.o)
 .reginfo       0x00000000       0x18 c:/program files (x86)/microchip/xc32/v2.30/bin/bin/../../lib/gcc/pic32mx/4.8.3/../../../../pic32mx/lib\libpic32.a(vector47.o)
 .text          0x00000000        0x0 c:/program files (x86)/microchip/xc32/v2.30/bin/bin/../../lib/gcc/pic32mx/4.8.3/../../../../pic32mx/lib\libpic32.a(vector48.o)
 .data          0x00000000        0x0 c:/program files (x86)/microchip/xc32/v2.30/bin/bin/../../lib/gcc/pic32mx/4.8.3/../../../../pic32mx/lib\libpic32.a(vector48.o)
 .bss           0x00000000        0x0 c:/program files (x86)/microchip/xc32/v2.30/bin/bin/../../lib/gcc/pic32mx/4.8.3/../../../../pic32mx/lib\libpic32.a(vector48.o)
 .reginfo       0x00000000       0x18 c:/program files (x86)/microchip/xc32/v2.30/bin/bin/../../lib/gcc/pic32mx/4.8.3/../../../../pic32mx/lib\libpic32.a(vector48.o)
 .text          0x00000000        0x0 c:/program files (x86)/microchip/xc32/v2.30/bin/bin/../../lib/gcc/pic32mx/4.8.3/../../../../pic32mx/lib\libpic32.a(vector49.o)
 .data          0x00000000        0x0 c:/program files (x86)/microchip/xc32/v2.30/bin/bin/../../lib/gcc/pic32mx/4.8.3/../../../../pic32mx/lib\libpic32.a(vector49.o)
 .bss           0x00000000        0x0 c:/program files (x86)/microchip/xc32/v2.30/bin/bin/../../lib/gcc/pic32mx/4.8.3/../../../../pic32mx/lib\libpic32.a(vector49.o)
 .reginfo       0x00000000       0x18 c:/program files (x86)/microchip/xc32/v2.30/bin/bin/../../lib/gcc/pic32mx/4.8.3/../../../../pic32mx/lib\libpic32.a(vector49.o)
 .text          0x00000000        0x0 c:/program files (x86)/microchip/xc32/v2.30/bin/bin/../../lib/gcc/pic32mx/4.8.3/../../../../pic32mx/lib\libpic32.a(vector50.o)
 .data          0x00000000        0x0 c:/program files (x86)/microchip/xc32/v2.30/bin/bin/../../lib/gcc/pic32mx/4.8.3/../../../../pic32mx/lib\libpic32.a(vector50.o)
 .bss           0x00000000        0x0 c:/program files (x86)/microchip/xc32/v2.30/bin/bin/../../lib/gcc/pic32mx/4.8.3/../../../../pic32mx/lib\libpic32.a(vector50.o)
 .reginfo       0x00000000       0x18 c:/program files (x86)/microchip/xc32/v2.30/bin/bin/../../lib/gcc/pic32mx/4.8.3/../../../../pic32mx/lib\libpic32.a(vector50.o)
 .text          0x00000000        0x0 c:/program files (x86)/microchip/xc32/v2.30/bin/bin/../../lib/gcc/pic32mx/4.8.3/../../../../pic32mx/lib\libpic32.a(vector51.o)
 .data          0x00000000        0x0 c:/program files (x86)/microchip/xc32/v2.30/bin/bin/../../lib/gcc/pic32mx/4.8.3/../../../../pic32mx/lib\libpic32.a(vector51.o)
 .bss           0x00000000        0x0 c:/program files (x86)/microchip/xc32/v2.30/bin/bin/../../lib/gcc/pic32mx/4.8.3/../../../../pic32mx/lib\libpic32.a(vector51.o)
 .reginfo       0x00000000       0x18 c:/program files (x86)/microchip/xc32/v2.30/bin/bin/../../lib/gcc/pic32mx/4.8.3/../../../../pic32mx/lib\libpic32.a(vector51.o)
 .text          0x00000000        0x0 c:/program files (x86)/microchip/xc32/v2.30/bin/bin/../../lib/gcc/pic32mx/4.8.3/../../../../pic32mx/lib\libpic32.a(defaultinterrupt.o)
 .data          0x00000000        0x0 c:/program files (x86)/microchip/xc32/v2.30/bin/bin/../../lib/gcc/pic32mx/4.8.3/../../../../pic32mx/lib\libpic32.a(defaultinterrupt.o)
 .bss           0x00000000        0x0 c:/program files (x86)/microchip/xc32/v2.30/bin/bin/../../lib/gcc/pic32mx/4.8.3/../../../../pic32mx/lib\libpic32.a(defaultinterrupt.o)
 .reginfo       0x00000000       0x18 c:/program files (x86)/microchip/xc32/v2.30/bin/bin/../../lib/gcc/pic32mx/4.8.3/../../../../pic32mx/lib\libpic32.a(defaultinterrupt.o)
 .text          0x00000000        0x0 c:/program files (x86)/microchip/xc32/v2.30/bin/bin/../../lib/gcc/pic32mx/4.8.3/../../../../pic32mx/lib\libc.a(fassert.o)
 .data          0x00000000        0x0 c:/program files (x86)/microchip/xc32/v2.30/bin/bin/../../lib/gcc/pic32mx/4.8.3/../../../../pic32mx/lib\libc.a(fassert.o)
 .bss           0x00000000        0x0 c:/program files (x86)/microchip/xc32/v2.30/bin/bin/../../lib/gcc/pic32mx/4.8.3/../../../../pic32mx/lib\libc.a(fassert.o)
 .reginfo       0x00000000       0x18 c:/program files (x86)/microchip/xc32/v2.30/bin/bin/../../lib/gcc/pic32mx/4.8.3/../../../../pic32mx/lib\libc.a(fassert.o)
 .rodata        0x00000000       0x70 c:/program files (x86)/microchip/xc32/v2.30/bin/bin/../../lib/gcc/pic32mx/4.8.3/../../../../pic32mx/lib\libc.a(fassert.o)
 .text._fassert
                0x00000000       0x80 c:/program files (x86)/microchip/xc32/v2.30/bin/bin/../../lib/gcc/pic32mx/4.8.3/../../../../pic32mx/lib\libc.a(fassert.o)
 .text          0x00000000        0x0 c:/program files (x86)/microchip/xc32/v2.30/bin/bin/../../lib/gcc/pic32mx/4.8.3/../../../../pic32mx/lib\libc.a(calloc.o)
 .data          0x00000000        0x0 c:/program files (x86)/microchip/xc32/v2.30/bin/bin/../../lib/gcc/pic32mx/4.8.3/../../../../pic32mx/lib\libc.a(calloc.o)
 .bss           0x00000000        0x0 c:/program files (x86)/microchip/xc32/v2.30/bin/bin/../../lib/gcc/pic32mx/4.8.3/../../../../pic32mx/lib\libc.a(calloc.o)
 .reginfo       0x00000000       0x18 c:/program files (x86)/microchip/xc32/v2.30/bin/bin/../../lib/gcc/pic32mx/4.8.3/../../../../pic32mx/lib\libc.a(calloc.o)
 .text          0x00000000        0x0 c:/program files (x86)/microchip/xc32/v2.30/bin/bin/../../lib/gcc/pic32mx/4.8.3/../../../../pic32mx/lib\libc.a(malloc.o)
 .data          0x00000000        0x0 c:/program files (x86)/microchip/xc32/v2.30/bin/bin/../../lib/gcc/pic32mx/4.8.3/../../../../pic32mx/lib\libc.a(malloc.o)
 .reginfo       0x00000000       0x18 c:/program files (x86)/microchip/xc32/v2.30/bin/bin/../../lib/gcc/pic32mx/4.8.3/../../../../pic32mx/lib\libc.a(malloc.o)
 .text          0x00000000        0x0 c:/program files (x86)/microchip/xc32/v2.30/bin/bin/../../lib/gcc/pic32mx/4.8.3/../../../../pic32mx/lib\libc.a(signal.o)
 .data          0x00000000        0x0 c:/program files (x86)/microchip/xc32/v2.30/bin/bin/../../lib/gcc/pic32mx/4.8.3/../../../../pic32mx/lib\libc.a(signal.o)
 .bss           0x00000000       0x18 c:/program files (x86)/microchip/xc32/v2.30/bin/bin/../../lib/gcc/pic32mx/4.8.3/../../../../pic32mx/lib\libc.a(signal.o)
 .reginfo       0x00000000       0x18 c:/program files (x86)/microchip/xc32/v2.30/bin/bin/../../lib/gcc/pic32mx/4.8.3/../../../../pic32mx/lib\libc.a(signal.o)
 .text.signal   0x00000000       0x30 c:/program files (x86)/microchip/xc32/v2.30/bin/bin/../../lib/gcc/pic32mx/4.8.3/../../../../pic32mx/lib\libc.a(signal.o)
 .text.raise    0x00000000       0x74 c:/program files (x86)/microchip/xc32/v2.30/bin/bin/../../lib/gcc/pic32mx/4.8.3/../../../../pic32mx/lib\libc.a(signal.o)
 .text.abort    0x00000000       0x18 c:/program files (x86)/microchip/xc32/v2.30/bin/bin/../../lib/gcc/pic32mx/4.8.3/../../../../pic32mx/lib\libc.a(signal.o)
 .text          0x00000000        0x0 c:/program files (x86)/microchip/xc32/v2.30/bin/bin/../../lib/gcc/pic32mx/4.8.3/../../../../pic32mx/lib\libc.a(exit.o)
 .data          0x00000000        0x0 c:/program files (x86)/microchip/xc32/v2.30/bin/bin/../../lib/gcc/pic32mx/4.8.3/../../../../pic32mx/lib\libc.a(exit.o)
 .bss           0x00000000        0x0 c:/program files (x86)/microchip/xc32/v2.30/bin/bin/../../lib/gcc/pic32mx/4.8.3/../../../../pic32mx/lib\libc.a(exit.o)
 .reginfo       0x00000000       0x18 c:/program files (x86)/microchip/xc32/v2.30/bin/bin/../../lib/gcc/pic32mx/4.8.3/../../../../pic32mx/lib\libc.a(exit.o)
 .text.exit     0x00000000       0x34 c:/program files (x86)/microchip/xc32/v2.30/bin/bin/../../lib/gcc/pic32mx/4.8.3/../../../../pic32mx/lib\libc.a(exit.o)
 .text          0x00000000        0x0 c:/program files (x86)/microchip/xc32/v2.30/bin/bin/../../lib/gcc/pic32mx/4.8.3/../../../../pic32mx/lib\libc.a(stdclean_simple.o)
 .data          0x00000000        0x0 c:/program files (x86)/microchip/xc32/v2.30/bin/bin/../../lib/gcc/pic32mx/4.8.3/../../../../pic32mx/lib\libc.a(stdclean_simple.o)
 .bss           0x00000000        0x0 c:/program files (x86)/microchip/xc32/v2.30/bin/bin/../../lib/gcc/pic32mx/4.8.3/../../../../pic32mx/lib\libc.a(stdclean_simple.o)
 .reginfo       0x00000000       0x18 c:/program files (x86)/microchip/xc32/v2.30/bin/bin/../../lib/gcc/pic32mx/4.8.3/../../../../pic32mx/lib\libc.a(stdclean_simple.o)
 .text._cleanup
                0x00000000        0x8 c:/program files (x86)/microchip/xc32/v2.30/bin/bin/../../lib/gcc/pic32mx/4.8.3/../../../../pic32mx/lib\libc.a(stdclean_simple.o)
 .text          0x00000000        0x0 c:/program files (x86)/microchip/xc32/v2.30/bin/bin/../../lib/gcc/pic32mx/4.8.3/../../../../pic32mx/lib\libc.a(fprintf_cdnopsuxX.eo)
 .data          0x00000000        0x0 c:/program files (x86)/microchip/xc32/v2.30/bin/bin/../../lib/gcc/pic32mx/4.8.3/../../../../pic32mx/lib\libc.a(fprintf_cdnopsuxX.eo)
 .bss           0x00000000        0x0 c:/program files (x86)/microchip/xc32/v2.30/bin/bin/../../lib/gcc/pic32mx/4.8.3/../../../../pic32mx/lib\libc.a(fprintf_cdnopsuxX.eo)
 .reginfo       0x00000000       0x18 c:/program files (x86)/microchip/xc32/v2.30/bin/bin/../../lib/gcc/pic32mx/4.8.3/../../../../pic32mx/lib\libc.a(fprintf_cdnopsuxX.eo)
 .text._fprintf_cdnopsuxX
                0x00000000       0x2c c:/program files (x86)/microchip/xc32/v2.30/bin/bin/../../lib/gcc/pic32mx/4.8.3/../../../../pic32mx/lib\libc.a(fprintf_cdnopsuxX.eo)
 .text          0x00000000        0x0 c:/program files (x86)/microchip/xc32/v2.30/bin/bin/../../lib/gcc/pic32mx/4.8.3/../../../../pic32mx/lib\libc.a(sprintf_cdnopuxX.eo)
 .data          0x00000000        0x0 c:/program files (x86)/microchip/xc32/v2.30/bin/bin/../../lib/gcc/pic32mx/4.8.3/../../../../pic32mx/lib\libc.a(sprintf_cdnopuxX.eo)
 .bss           0x00000000        0x0 c:/program files (x86)/microchip/xc32/v2.30/bin/bin/../../lib/gcc/pic32mx/4.8.3/../../../../pic32mx/lib\libc.a(sprintf_cdnopuxX.eo)
 .reginfo       0x00000000       0x18 c:/program files (x86)/microchip/xc32/v2.30/bin/bin/../../lib/gcc/pic32mx/4.8.3/../../../../pic32mx/lib\libc.a(sprintf_cdnopuxX.eo)
 .text._sprintf_cdnopuxX
                0x00000000       0x68 c:/program files (x86)/microchip/xc32/v2.30/bin/bin/../../lib/gcc/pic32mx/4.8.3/../../../../pic32mx/lib\libc.a(sprintf_cdnopuxX.eo)
 .text          0x00000000        0x0 c:/program files (x86)/microchip/xc32/v2.30/bin/bin/../../lib/gcc/pic32mx/4.8.3/../../../../pic32mx/lib\libc.a(_iob.o)
 .data          0x00000000       0xa4 c:/program files (x86)/microchip/xc32/v2.30/bin/bin/../../lib/gcc/pic32mx/4.8.3/../../../../pic32mx/lib\libc.a(_iob.o)
 .bss           0x00000000       0x44 c:/program files (x86)/microchip/xc32/v2.30/bin/bin/../../lib/gcc/pic32mx/4.8.3/../../../../pic32mx/lib\libc.a(_iob.o)
 .reginfo       0x00000000       0x18 c:/program files (x86)/microchip/xc32/v2.30/bin/bin/../../lib/gcc/pic32mx/4.8.3/../../../../pic32mx/lib\libc.a(_iob.o)
 .text          0x00000000        0x0 c:/program files (x86)/microchip/xc32/v2.30/bin/bin/../../lib/gcc/pic32mx/4.8.3/../../../../pic32mx/lib\libc.a(doprnt_cdnopsuxX.eo)
 .data          0x00000000        0x0 c:/program files (x86)/microchip/xc32/v2.30/bin/bin/../../lib/gcc/pic32mx/4.8.3/../../../../pic32mx/lib\libc.a(doprnt_cdnopsuxX.eo)
 .bss           0x00000000        0x0 c:/program files (x86)/microchip/xc32/v2.30/bin/bin/../../lib/gcc/pic32mx/4.8.3/../../../../pic32mx/lib\libc.a(doprnt_cdnopsuxX.eo)
 .reginfo       0x00000000       0x18 c:/program files (x86)/microchip/xc32/v2.30/bin/bin/../../lib/gcc/pic32mx/4.8.3/../../../../pic32mx/lib\libc.a(doprnt_cdnopsuxX.eo)
 .rodata        0x00000000       0xd0 c:/program files (x86)/microchip/xc32/v2.30/bin/bin/../../lib/gcc/pic32mx/4.8.3/../../../../pic32mx/lib\libc.a(doprnt_cdnopsuxX.eo)
 .text._vfprintf_cdnopsuxX
                0x00000000      0xc8c c:/program files (x86)/microchip/xc32/v2.30/bin/bin/../../lib/gcc/pic32mx/4.8.3/../../../../pic32mx/lib\libc.a(doprnt_cdnopsuxX.eo)
 .text          0x00000000        0x0 c:/program files (x86)/microchip/xc32/v2.30/bin/bin/../../lib/gcc/pic32mx/4.8.3/../../../../pic32mx/lib\libc.a(_fputc_simple.o)
 .data          0x00000000        0x0 c:/program files (x86)/microchip/xc32/v2.30/bin/bin/../../lib/gcc/pic32mx/4.8.3/../../../../pic32mx/lib\libc.a(_fputc_simple.o)
 .bss           0x00000000        0x0 c:/program files (x86)/microchip/xc32/v2.30/bin/bin/../../lib/gcc/pic32mx/4.8.3/../../../../pic32mx/lib\libc.a(_fputc_simple.o)
 .reginfo       0x00000000       0x18 c:/program files (x86)/microchip/xc32/v2.30/bin/bin/../../lib/gcc/pic32mx/4.8.3/../../../../pic32mx/lib\libc.a(_fputc_simple.o)
 .text.fputc    0x00000000      0x144 c:/program files (x86)/microchip/xc32/v2.30/bin/bin/../../lib/gcc/pic32mx/4.8.3/../../../../pic32mx/lib\libc.a(_fputc_simple.o)
 .text          0x00000000        0x0 c:/program files (x86)/microchip/xc32/v2.30/bin/bin/../../lib/gcc/pic32mx/4.8.3/../../../../pic32mx/lib\libc.a(ctype.o)
 .data          0x00000000        0x0 c:/program files (x86)/microchip/xc32/v2.30/bin/bin/../../lib/gcc/pic32mx/4.8.3/../../../../pic32mx/lib\libc.a(ctype.o)
 .bss           0x00000000        0x0 c:/program files (x86)/microchip/xc32/v2.30/bin/bin/../../lib/gcc/pic32mx/4.8.3/../../../../pic32mx/lib\libc.a(ctype.o)
 .reginfo       0x00000000       0x18 c:/program files (x86)/microchip/xc32/v2.30/bin/bin/../../lib/gcc/pic32mx/4.8.3/../../../../pic32mx/lib\libc.a(ctype.o)
 .rodata        0x00000000      0x104 c:/program files (x86)/microchip/xc32/v2.30/bin/bin/../../lib/gcc/pic32mx/4.8.3/../../../../pic32mx/lib\libc.a(ctype.o)
 .text          0x00000000        0x0 c:/program files (x86)/microchip/xc32/v2.30/bin/bin/../../lib/gcc/pic32mx/4.8.3/../../../../pic32mx/lib\libc.a(_flsbuf_simple.o)
 .data          0x00000000        0x0 c:/program files (x86)/microchip/xc32/v2.30/bin/bin/../../lib/gcc/pic32mx/4.8.3/../../../../pic32mx/lib\libc.a(_flsbuf_simple.o)
 .bss           0x00000000        0x0 c:/program files (x86)/microchip/xc32/v2.30/bin/bin/../../lib/gcc/pic32mx/4.8.3/../../../../pic32mx/lib\libc.a(_flsbuf_simple.o)
 .reginfo       0x00000000       0x18 c:/program files (x86)/microchip/xc32/v2.30/bin/bin/../../lib/gcc/pic32mx/4.8.3/../../../../pic32mx/lib\libc.a(_flsbuf_simple.o)
 .text._flsbuf  0x00000000      0x12c c:/program files (x86)/microchip/xc32/v2.30/bin/bin/../../lib/gcc/pic32mx/4.8.3/../../../../pic32mx/lib\libc.a(_flsbuf_simple.o)
 .text          0x00000000        0x0 c:/program files (x86)/microchip/xc32/v2.30/bin/bin/../../lib/gcc/pic32mx/4.8.3/../../../../pic32mx/lib\libm.a(fp32div.o)
 .data          0x00000000        0x0 c:/program files (x86)/microchip/xc32/v2.30/bin/bin/../../lib/gcc/pic32mx/4.8.3/../../../../pic32mx/lib\libm.a(fp32div.o)
 .bss           0x00000000        0x0 c:/program files (x86)/microchip/xc32/v2.30/bin/bin/../../lib/gcc/pic32mx/4.8.3/../../../../pic32mx/lib\libm.a(fp32div.o)
 .reginfo       0x00000000       0x18 c:/program files (x86)/microchip/xc32/v2.30/bin/bin/../../lib/gcc/pic32mx/4.8.3/../../../../pic32mx/lib\libm.a(fp32div.o)
 .text          0x00000000        0x0 c:/program files (x86)/microchip/xc32/v2.30/bin/bin/../../lib/gcc/pic32mx/4.8.3/../../../../pic32mx/lib\libm.a(fp32mul.o)
 .data          0x00000000        0x0 c:/program files (x86)/microchip/xc32/v2.30/bin/bin/../../lib/gcc/pic32mx/4.8.3/../../../../pic32mx/lib\libm.a(fp32mul.o)
 .bss           0x00000000        0x0 c:/program files (x86)/microchip/xc32/v2.30/bin/bin/../../lib/gcc/pic32mx/4.8.3/../../../../pic32mx/lib\libm.a(fp32mul.o)
 .reginfo       0x00000000       0x18 c:/program files (x86)/microchip/xc32/v2.30/bin/bin/../../lib/gcc/pic32mx/4.8.3/../../../../pic32mx/lib\libm.a(fp32mul.o)
 .text          0x00000000        0x0 c:/program files (x86)/microchip/xc32/v2.30/bin/bin/../../lib/gcc/pic32mx/4.8.3/../../../../pic32mx/lib\libm.a(fp32subadd.o)
 .data          0x00000000        0x0 c:/program files (x86)/microchip/xc32/v2.30/bin/bin/../../lib/gcc/pic32mx/4.8.3/../../../../pic32mx/lib\libm.a(fp32subadd.o)
 .bss           0x00000000        0x0 c:/program files (x86)/microchip/xc32/v2.30/bin/bin/../../lib/gcc/pic32mx/4.8.3/../../../../pic32mx/lib\libm.a(fp32subadd.o)
 .reginfo       0x00000000       0x18 c:/program files (x86)/microchip/xc32/v2.30/bin/bin/../../lib/gcc/pic32mx/4.8.3/../../../../pic32mx/lib\libm.a(fp32subadd.o)
 .text          0x00000000        0x0 c:/program files (x86)/microchip/xc32/v2.30/bin/bin/../../lib/gcc/pic32mx/4.8.3/../../../../pic32mx/lib\libm.a(fpatan.o)
 .data          0x00000000        0x0 c:/program files (x86)/microchip/xc32/v2.30/bin/bin/../../lib/gcc/pic32mx/4.8.3/../../../../pic32mx/lib\libm.a(fpatan.o)
 .bss           0x00000000        0x0 c:/program files (x86)/microchip/xc32/v2.30/bin/bin/../../lib/gcc/pic32mx/4.8.3/../../../../pic32mx/lib\libm.a(fpatan.o)
 .reginfo       0x00000000       0x18 c:/program files (x86)/microchip/xc32/v2.30/bin/bin/../../lib/gcc/pic32mx/4.8.3/../../../../pic32mx/lib\libm.a(fpatan.o)
 .text.fpatan   0x00000000       0xa0 c:/program files (x86)/microchip/xc32/v2.30/bin/bin/../../lib/gcc/pic32mx/4.8.3/../../../../pic32mx/lib\libm.a(fpatan.o)
 .text          0x00000000        0x0 c:/program files (x86)/microchip/xc32/v2.30/bin/bin/../../lib/gcc/pic32mx/4.8.3/../../../../pic32mx/lib\libm.a(fpcmp.o)
 .data          0x00000000        0x0 c:/program files (x86)/microchip/xc32/v2.30/bin/bin/../../lib/gcc/pic32mx/4.8.3/../../../../pic32mx/lib\libm.a(fpcmp.o)
 .bss           0x00000000        0x0 c:/program files (x86)/microchip/xc32/v2.30/bin/bin/../../lib/gcc/pic32mx/4.8.3/../../../../pic32mx/lib\libm.a(fpcmp.o)
 .reginfo       0x00000000       0x18 c:/program files (x86)/microchip/xc32/v2.30/bin/bin/../../lib/gcc/pic32mx/4.8.3/../../../../pic32mx/lib\libm.a(fpcmp.o)
 .text.fpcmp    0x00000000       0x9c c:/program files (x86)/microchip/xc32/v2.30/bin/bin/../../lib/gcc/pic32mx/4.8.3/../../../../pic32mx/lib\libm.a(fpcmp.o)
 .text          0x00000000        0x0 c:/program files (x86)/microchip/xc32/v2.30/bin/bin/../../lib/gcc/pic32mx/4.8.3/../../../../pic32mx/lib\libm.a(fpexatan.o)
 .data          0x00000000      0x100 c:/program files (x86)/microchip/xc32/v2.30/bin/bin/../../lib/gcc/pic32mx/4.8.3/../../../../pic32mx/lib\libm.a(fpexatan.o)
 .bss           0x00000000        0x0 c:/program files (x86)/microchip/xc32/v2.30/bin/bin/../../lib/gcc/pic32mx/4.8.3/../../../../pic32mx/lib\libm.a(fpexatan.o)
 .reginfo       0x00000000       0x18 c:/program files (x86)/microchip/xc32/v2.30/bin/bin/../../lib/gcc/pic32mx/4.8.3/../../../../pic32mx/lib\libm.a(fpexatan.o)
 .text.fpexatan
                0x00000000        0x0 c:/program files (x86)/microchip/xc32/v2.30/bin/bin/../../lib/gcc/pic32mx/4.8.3/../../../../pic32mx/lib\libm.a(fpexatan.o)
 .text.libm     0x00000000      0x350 c:/program files (x86)/microchip/xc32/v2.30/bin/bin/../../lib/gcc/pic32mx/4.8.3/../../../../pic32mx/lib\libm.a(fpexatan.o)
 .text          0x00000000        0x0 c:/program files (x86)/microchip/xc32/v2.30/bin/bin/../../lib/gcc/pic32mx/4.8.3/../../../../pic32mx/lib\libm.a(fpexsqrt32.o)
 .data          0x00000000        0x0 c:/program files (x86)/microchip/xc32/v2.30/bin/bin/../../lib/gcc/pic32mx/4.8.3/../../../../pic32mx/lib\libm.a(fpexsqrt32.o)
 .bss           0x00000000        0x0 c:/program files (x86)/microchip/xc32/v2.30/bin/bin/../../lib/gcc/pic32mx/4.8.3/../../../../pic32mx/lib\libm.a(fpexsqrt32.o)
 .reginfo       0x00000000       0x18 c:/program files (x86)/microchip/xc32/v2.30/bin/bin/../../lib/gcc/pic32mx/4.8.3/../../../../pic32mx/lib\libm.a(fpexsqrt32.o)
 .text.libm.fpexsqrt
                0x00000000       0xfc c:/program files (x86)/microchip/xc32/v2.30/bin/bin/../../lib/gcc/pic32mx/4.8.3/../../../../pic32mx/lib\libm.a(fpexsqrt32.o)
 .text          0x00000000        0x0 c:/program files (x86)/microchip/xc32/v2.30/bin/bin/../../lib/gcc/pic32mx/4.8.3/../../../../pic32mx/lib\libm.a(fptoli.o)
 .data          0x00000000        0x0 c:/program files (x86)/microchip/xc32/v2.30/bin/bin/../../lib/gcc/pic32mx/4.8.3/../../../../pic32mx/lib\libm.a(fptoli.o)
 .bss           0x00000000        0x0 c:/program files (x86)/microchip/xc32/v2.30/bin/bin/../../lib/gcc/pic32mx/4.8.3/../../../../pic32mx/lib\libm.a(fptoli.o)
 .reginfo       0x00000000       0x18 c:/program files (x86)/microchip/xc32/v2.30/bin/bin/../../lib/gcc/pic32mx/4.8.3/../../../../pic32mx/lib\libm.a(fptoli.o)
 .text.fptoli   0x00000000       0x80 c:/program files (x86)/microchip/xc32/v2.30/bin/bin/../../lib/gcc/pic32mx/4.8.3/../../../../pic32mx/lib\libm.a(fptoli.o)
 .text          0x00000000        0x0 c:/program files (x86)/microchip/xc32/v2.30/bin/bin/../../lib/gcc/pic32mx/4.8.3/../../../../pic32mx/lib\libm.a(fptoul.o)
 .data          0x00000000        0x0 c:/program files (x86)/microchip/xc32/v2.30/bin/bin/../../lib/gcc/pic32mx/4.8.3/../../../../pic32mx/lib\libm.a(fptoul.o)
 .bss           0x00000000        0x0 c:/program files (x86)/microchip/xc32/v2.30/bin/bin/../../lib/gcc/pic32mx/4.8.3/../../../../pic32mx/lib\libm.a(fptoul.o)
 .reginfo       0x00000000       0x18 c:/program files (x86)/microchip/xc32/v2.30/bin/bin/../../lib/gcc/pic32mx/4.8.3/../../../../pic32mx/lib\libm.a(fptoul.o)
 .text          0x00000000        0x0 c:/program files (x86)/microchip/xc32/v2.30/bin/bin/../../lib/gcc/pic32mx/4.8.3/../../../../pic32mx/lib\libm.a(sitofp.o)
 .data          0x00000000        0x0 c:/program files (x86)/microchip/xc32/v2.30/bin/bin/../../lib/gcc/pic32mx/4.8.3/../../../../pic32mx/lib\libm.a(sitofp.o)
 .bss           0x00000000        0x0 c:/program files (x86)/microchip/xc32/v2.30/bin/bin/../../lib/gcc/pic32mx/4.8.3/../../../../pic32mx/lib\libm.a(sitofp.o)
 .reginfo       0x00000000       0x18 c:/program files (x86)/microchip/xc32/v2.30/bin/bin/../../lib/gcc/pic32mx/4.8.3/../../../../pic32mx/lib\libm.a(sitofp.o)
 .text          0x00000000      0x458 c:/program files (x86)/microchip/xc32/v2.30/bin/bin/../../lib/gcc/pic32mx/4.8.3\libgcc.a(_udivdi3.o)
 .data          0x00000000        0x0 c:/program files (x86)/microchip/xc32/v2.30/bin/bin/../../lib/gcc/pic32mx/4.8.3\libgcc.a(_udivdi3.o)
 .bss           0x00000000        0x0 c:/program files (x86)/microchip/xc32/v2.30/bin/bin/../../lib/gcc/pic32mx/4.8.3\libgcc.a(_udivdi3.o)
 .reginfo       0x00000000       0x18 c:/program files (x86)/microchip/xc32/v2.30/bin/bin/../../lib/gcc/pic32mx/4.8.3\libgcc.a(_udivdi3.o)
 .text          0x00000000      0x464 c:/program files (x86)/microchip/xc32/v2.30/bin/bin/../../lib/gcc/pic32mx/4.8.3\libgcc.a(_umoddi3.o)
 .data          0x00000000        0x0 c:/program files (x86)/microchip/xc32/v2.30/bin/bin/../../lib/gcc/pic32mx/4.8.3\libgcc.a(_umoddi3.o)
 .bss           0x00000000        0x0 c:/program files (x86)/microchip/xc32/v2.30/bin/bin/../../lib/gcc/pic32mx/4.8.3\libgcc.a(_umoddi3.o)
 .reginfo       0x00000000       0x18 c:/program files (x86)/microchip/xc32/v2.30/bin/bin/../../lib/gcc/pic32mx/4.8.3\libgcc.a(_umoddi3.o)
 .text          0x00000000        0x0 c:/program files (x86)/microchip/xc32/v2.30/bin/bin/../../lib/gcc/pic32mx/4.8.3/../../../../pic32mx/lib\libpic32.a(sbrk.o)
 .data          0x00000000        0x0 c:/program files (x86)/microchip/xc32/v2.30/bin/bin/../../lib/gcc/pic32mx/4.8.3/../../../../pic32mx/lib\libpic32.a(sbrk.o)
 .reginfo       0x00000000       0x18 c:/program files (x86)/microchip/xc32/v2.30/bin/bin/../../lib/gcc/pic32mx/4.8.3/../../../../pic32mx/lib\libpic32.a(sbrk.o)
 .text.getpagesize
                0x00000000        0x8 c:/program files (x86)/microchip/xc32/v2.30/bin/bin/../../lib/gcc/pic32mx/4.8.3/../../../../pic32mx/lib\libpic32.a(sbrk.o)
 .text          0x00000000        0x0 c:/program files (x86)/microchip/xc32/v2.30/bin/bin/../../lib/gcc/pic32mx/4.8.3/../../../../pic32mx/lib\libpic32.a(write.o)
 .data          0x00000000        0x0 c:/program files (x86)/microchip/xc32/v2.30/bin/bin/../../lib/gcc/pic32mx/4.8.3/../../../../pic32mx/lib\libpic32.a(write.o)
 .bss           0x00000000        0x0 c:/program files (x86)/microchip/xc32/v2.30/bin/bin/../../lib/gcc/pic32mx/4.8.3/../../../../pic32mx/lib\libpic32.a(write.o)
 .reginfo       0x00000000       0x18 c:/program files (x86)/microchip/xc32/v2.30/bin/bin/../../lib/gcc/pic32mx/4.8.3/../../../../pic32mx/lib\libpic32.a(write.o)
 .text.write    0x00000000       0x9c c:/program files (x86)/microchip/xc32/v2.30/bin/bin/../../lib/gcc/pic32mx/4.8.3/../../../../pic32mx/lib\libpic32.a(write.o)
 .text          0x00000000        0x0 c:/program files (x86)/microchip/xc32/v2.30/bin/bin/../../lib/gcc/pic32mx/4.8.3/../../../../pic32mx/lib\libpic32.a(errno.o)
 .data          0x00000000        0x0 c:/program files (x86)/microchip/xc32/v2.30/bin/bin/../../lib/gcc/pic32mx/4.8.3/../../../../pic32mx/lib\libpic32.a(errno.o)
 .bss           0x00000000        0x0 c:/program files (x86)/microchip/xc32/v2.30/bin/bin/../../lib/gcc/pic32mx/4.8.3/../../../../pic32mx/lib\libpic32.a(errno.o)
 .reginfo       0x00000000       0x18 c:/program files (x86)/microchip/xc32/v2.30/bin/bin/../../lib/gcc/pic32mx/4.8.3/../../../../pic32mx/lib\libpic32.a(errno.o)
 .text          0x00000000        0x0 c:/program files (x86)/microchip/xc32/v2.30/bin/bin/../../lib/gcc/pic32mx/4.8.3/../../../../pic32mx/lib\libpic32.a(_mon_putc.o)
 .data          0x00000000        0x0 c:/program files (x86)/microchip/xc32/v2.30/bin/bin/../../lib/gcc/pic32mx/4.8.3/../../../../pic32mx/lib\libpic32.a(_mon_putc.o)
 .bss           0x00000000        0x0 c:/program files (x86)/microchip/xc32/v2.30/bin/bin/../../lib/gcc/pic32mx/4.8.3/../../../../pic32mx/lib\libpic32.a(_mon_putc.o)
 .reginfo       0x00000000       0x18 c:/program files (x86)/microchip/xc32/v2.30/bin/bin/../../lib/gcc/pic32mx/4.8.3/../../../../pic32mx/lib\libpic32.a(_mon_putc.o)
 .text._mon_putc
                0x00000000       0xd4 c:/program files (x86)/microchip/xc32/v2.30/bin/bin/../../lib/gcc/pic32mx/4.8.3/../../../../pic32mx/lib\libpic32.a(_mon_putc.o)
 .text          0x00000000        0x0 c:/program files (x86)/microchip/xc32/v2.30/bin/bin/../../lib/gcc/pic32mx/4.8.3/../../../../pic32mx/lib\libpic32.a(xc32_uart.o)
 .data          0x00000000        0x0 c:/program files (x86)/microchip/xc32/v2.30/bin/bin/../../lib/gcc/pic32mx/4.8.3/../../../../pic32mx/lib\libpic32.a(xc32_uart.o)
 .bss           0x00000000        0x0 c:/program files (x86)/microchip/xc32/v2.30/bin/bin/../../lib/gcc/pic32mx/4.8.3/../../../../pic32mx/lib\libpic32.a(xc32_uart.o)
 .reginfo       0x00000000       0x18 c:/program files (x86)/microchip/xc32/v2.30/bin/bin/../../lib/gcc/pic32mx/4.8.3/../../../../pic32mx/lib\libpic32.a(xc32_uart.o)

Memory Configuration

Name             Origin             Length             Attributes
kseg0_program_mem 0x9d000000         0x00080000         xr
kseg0_boot_mem   0x9fc00490         0x00000970
exception_mem    0x9fc01000         0x00001000
kseg1_boot_mem   0xbfc00000         0x00000490
debug_exec_mem   0xbfc02000         0x00000ff0
config3          0xbfc02ff0         0x00000004
config2          0xbfc02ff4         0x00000004
config1          0xbfc02ff8         0x00000004
config0          0xbfc02ffc         0x00000004
kseg1_data_mem   0xa0000000         0x00020000         w !x
sfrs             0xbf800000         0x00100000
configsfrs       0xbfc02ff0         0x00000010
*default*        0x00000000         0xffffffff

Linker script and memory map

LOAD c:/program files (x86)/microchip/xc32/v2.30/bin/bin/../../lib/gcc/pic32mx/4.8.3/../../../../pic32mx/lib\debug-exception-return.o
LOAD build/default/production/_ext/1360937237/app.o
LOAD build/default/production/_ext/1360937237/main.o
LOAD build/default/production/_ext/658260392/jidctint.o
LOAD build/default/production/_ext/1963452113/gfxu_image_jpg_common.o
LOAD build/default/production/_ext/1963452113/gfxu_image_jpg_internal.o
LOAD build/default/production/_ext/1963452113/gfxu_image_jpg_external.o
LOAD build/default/production/_ext/1963452113/gfxu_image_png_external.o
LOAD build/default/production/_ext/1963452113/gfxu_image_png_internal.o
LOAD build/default/production/_ext/308360523/lodepng.o
LOAD build/default/production/_ext/1963452113/gfxu_image.o
LOAD build/default/production/_ext/1963452113/gfxu_image_raw_external.o
LOAD build/default/production/_ext/1963452113/gfxu_image_raw_internal.o
LOAD build/default/production/_ext/1963452113/gfxu_image_rle_external.o
LOAD build/default/production/_ext/1963452113/gfxu_image_rle_internal.o
LOAD build/default/production/_ext/1963452113/gfxu_image_utils.o
LOAD build/default/production/_ext/1963452113/gfxu_palette.o
LOAD build/default/production/_ext/1963452113/gfxu_string.o
LOAD build/default/production/_ext/1963452113/gfxu_string_external.o
LOAD build/default/production/_ext/1963452113/gfxu_stringbuffer_external.o
LOAD build/default/production/_ext/1963452113/gfxu_string_internal.o
LOAD build/default/production/_ext/1963452113/gfxu_string_query.o
LOAD build/default/production/_ext/1963452113/gfxu_string_utils.o
LOAD build/default/production/_ext/1071800814/libaria.o
LOAD build/default/production/_ext/1071800814/libaria_array.o
LOAD build/default/production/_ext/1071800814/libaria_context.o
LOAD build/default/production/_ext/1071800814/libaria_context_paint.o
LOAD build/default/production/_ext/1071800814/libaria_draw.o
LOAD build/default/production/_ext/1071800814/libaria_editwidget.o
LOAD build/default/production/_ext/1071800814/libaria_event.o
LOAD build/default/production/_ext/1071800814/libaria_input.o
LOAD build/default/production/_ext/1071800814/libaria_layer.o
LOAD build/default/production/_ext/1071800814/libaria_list.o
LOAD build/default/production/_ext/1071800814/libaria_rectarray.o
LOAD build/default/production/_ext/1071800814/libaria_scheme.o
LOAD build/default/production/_ext/1071800814/libaria_screen.o
LOAD build/default/production/_ext/1071800814/libaria_string.o
LOAD build/default/production/_ext/1071800814/libaria_utils.o
LOAD build/default/production/_ext/1071800814/libaria_widget.o
LOAD build/default/production/_ext/1071800814/libaria_widget_skin_classic.o
LOAD build/default/production/_ext/1071800814/libaria_widget_skin_classic_common.o
LOAD build/default/production/_ext/1071800814/libaria_widget_arc.o
LOAD build/default/production/_ext/1071800814/libaria_widget_arc_skin_classic.o
LOAD build/default/production/_ext/1071800814/libaria_widget_bar_graph.o
LOAD build/default/production/_ext/1071800814/libaria_widget_bar_graph_skin_classic.o
LOAD build/default/production/_ext/1071800814/libaria_widget_button.o
LOAD build/default/production/_ext/1071800814/libaria_widget_button_skin_classic.o
LOAD build/default/production/_ext/1071800814/libaria_widget_checkbox.o
LOAD build/default/production/_ext/1071800814/libaria_widget_checkbox_skin_classic.o
LOAD build/default/production/_ext/1071800814/libaria_widget_circle.o
LOAD build/default/production/_ext/1071800814/libaria_widget_circle_skin_classic.o
LOAD build/default/production/_ext/1071800814/libaria_widget_circular_gauge.o
LOAD build/default/production/_ext/1071800814/libaria_widget_circular_gauge_skin_classic.o
LOAD build/default/production/_ext/1071800814/libaria_widget_circular_slider.o
LOAD build/default/production/_ext/1071800814/libaria_widget_circular_slider_skin_classic.o
LOAD build/default/production/_ext/1071800814/libaria_widget_drawsurface.o
LOAD build/default/production/_ext/1071800814/libaria_widget_drawsurface_skin_classic.o
LOAD build/default/production/_ext/1071800814/libaria_widget_gradient.o
LOAD build/default/production/_ext/1071800814/libaria_widget_gradient_skin_classic.o
LOAD build/default/production/_ext/1071800814/libaria_widget_groupbox.o
LOAD build/default/production/_ext/1071800814/libaria_widget_groupbox_skin_classic.o
LOAD build/default/production/_ext/1071800814/libaria_widget_image.o
LOAD build/default/production/_ext/1071800814/libaria_widget_image_skin_classic.o
LOAD build/default/production/_ext/1071800814/libaria_widget_imageplus.o
LOAD build/default/production/_ext/1071800814/libaria_widget_imageplus_skin_classic.o
LOAD build/default/production/_ext/1071800814/libaria_widget_imagesequence.o
LOAD build/default/production/_ext/1071800814/libaria_widget_imagesequence_skin_classic.o
LOAD build/default/production/_ext/1071800814/libaria_widget_keypad.o
LOAD build/default/production/_ext/1071800814/libaria_widget_keypad_skin_classic.o
LOAD build/default/production/_ext/1071800814/libaria_widget_label.o
LOAD build/default/production/_ext/1071800814/libaria_widget_label_skin_classic.o
LOAD build/default/production/_ext/1071800814/libaria_widget_line.o
LOAD build/default/production/_ext/1071800814/libaria_widget_line_skin_classic.o
LOAD build/default/production/_ext/1071800814/libaria_widget_line_graph.o
LOAD build/default/production/_ext/1071800814/libaria_widget_line_graph_skin_classic.o
LOAD build/default/production/_ext/1071800814/libaria_widget_list.o
LOAD build/default/production/_ext/1071800814/libaria_widget_list_skin_classic.o
LOAD build/default/production/_ext/1071800814/libaria_widget_listwheel.o
LOAD build/default/production/_ext/1071800814/libaria_widget_listwheel_skin_classic.o
LOAD build/default/production/_ext/1071800814/libaria_widget_pie_chart.o
LOAD build/default/production/_ext/1071800814/libaria_widget_pie_chart_skin_classic.o
LOAD build/default/production/_ext/1071800814/libaria_widget_progressbar.o
LOAD build/default/production/_ext/1071800814/libaria_widget_progressbar_skin_classic.o
LOAD build/default/production/_ext/1071800814/libaria_widget_radial_menu.o
LOAD build/default/production/_ext/1071800814/libaria_widget_radial_menu_skin_classic.o
LOAD build/default/production/_ext/1071800814/libaria_widget_radiobutton.o
LOAD build/default/production/_ext/1071800814/libaria_widget_radiobutton_skin_classic.o
LOAD build/default/production/_ext/1071800814/libaria_radiobutton_group.o
LOAD build/default/production/_ext/1071800814/libaria_widget_rectangle.o
LOAD build/default/production/_ext/1071800814/libaria_widget_rectangle_skin_classic.o
LOAD build/default/production/_ext/1071800814/libaria_widget_scrollbar.o
LOAD build/default/production/_ext/1071800814/libaria_widget_scrollbar_skin_classic.o
LOAD build/default/production/_ext/1071800814/libaria_widget_slider.o
LOAD build/default/production/_ext/1071800814/libaria_widget_slider_skin_classic.o
LOAD build/default/production/_ext/1071800814/libaria_widget_textfield.o
LOAD build/default/production/_ext/1071800814/libaria_widget_textfield_skin_classic.o
LOAD build/default/production/_ext/1071800814/libaria_widget_touchtest.o
LOAD build/default/production/_ext/1071800814/libaria_widget_touchtest_skin_classic.o
LOAD build/default/production/_ext/1071800814/libaria_widget_window.o
LOAD build/default/production/_ext/1071800814/libaria_widget_window_skin_classic.o
LOAD build/default/production/_ext/676789875/gfx.o
LOAD build/default/production/_ext/676789875/gfx_color.o
LOAD build/default/production/_ext/676789875/gfx_context.o
LOAD build/default/production/_ext/676789875/gfx_default_impl.o
LOAD build/default/production/_ext/676789875/gfx_display.o
LOAD build/default/production/_ext/676789875/gfx_driver_interface.o
LOAD build/default/production/_ext/676789875/gfx_get.o
LOAD build/default/production/_ext/676789875/gfx_interface.o
LOAD build/default/production/_ext/676789875/gfx_layer.o
LOAD build/default/production/_ext/676789875/gfx_pixel_buffer.o
LOAD build/default/production/_ext/676789875/gfx_processor_interface.o
LOAD build/default/production/_ext/676789875/gfx_rect.o
LOAD build/default/production/_ext/676789875/gfx_util.o
LOAD build/default/production/_ext/676789875/gfx_set.o
LOAD build/default/production/_ext/676789875/gfx_color_blend.o
LOAD build/default/production/_ext/676789875/gfx_color_convert.o
LOAD build/default/production/_ext/676789875/gfx_color_lerp.o
LOAD build/default/production/_ext/676789875/gfx_color_value.o
LOAD build/default/production/_ext/676789875/gfx_draw_arc.o
LOAD build/default/production/_ext/676789875/gfx_draw_blit.o
LOAD build/default/production/_ext/676789875/gfx_draw_circle.o
LOAD build/default/production/_ext/676789875/gfx_draw_ellipse.o
LOAD build/default/production/_ext/676789875/gfx_draw_line.o
LOAD build/default/production/_ext/676789875/gfx_draw_pixel.o
LOAD build/default/production/_ext/676789875/gfx_draw_rect.o
LOAD build/default/production/_ext/676789875/gfx_draw_stretchblit.o
LOAD build/default/production/_ext/676789875/gfx_math.o
LOAD build/default/production/_ext/231205469/sys_int_pic32.o
LOAD build/default/production/_ext/664138601/drv_pmp_static.o
LOAD build/default/production/_ext/347121368/drv_gfx_ssd1926.o
LOAD build/default/production/_ext/1689523328/drv_gfx_ssd1289.o
LOAD build/default/production/_ext/458109090/libaria_harmony.o
LOAD build/default/production/_ext/458109090/libaria_init.o
LOAD build/default/production/_ext/458109090/libaria_events.o
LOAD build/default/production/_ext/458109090/libaria_macros.o
LOAD build/default/production/_ext/2065038297/gfx_display_def.o
LOAD build/default/production/_ext/2065038297/gfx_driver_def.o
LOAD build/default/production/_ext/2065038297/gfx_processor_def.o
LOAD build/default/production/_ext/639803181/sys_clk_pic32mx.o
LOAD build/default/production/_ext/340578644/sys_devcon.o
LOAD build/default/production/_ext/340578644/sys_devcon_pic32mx.o
LOAD build/default/production/_ext/822048611/sys_ports_static.o
LOAD build/default/production/_ext/74298950/bsp.o
LOAD build/default/production/_ext/1688732426/system_init.o
LOAD build/default/production/_ext/1688732426/system_interrupt.o
LOAD build/default/production/_ext/1688732426/system_exceptions.o
LOAD build/default/production/_ext/1688732426/system_tasks.o
LOAD ..\..\..\..\..\..\microchip\harmony\v2_06\bin\framework\peripheral\PIC32MX795F512L_peripherals.a
                0x00000001                __MPLAB_BUILD = 0x1
                0x00019000                _min_heap_size = 0x19000
LOAD C:\Users\and08479\AppData\Local\Temp\ccFsgLgR.o
LOAD C:\Users\and08479\AppData\Local\Temp\ccw6wH7P.o
LOAD C:\Users\and08479\AppData\Local\Temp\ccubExsT.o
LOAD c:/program files (x86)/microchip/xc32/v2.30/bin/bin/../../lib/gcc/pic32mx/4.8.3/../../../../pic32mx/lib\pic32_software_reset.o
                0x00000400                PROVIDE (_min_stack_size, 0x400)
START GROUP
LOAD c:/program files (x86)/microchip/xc32/v2.30/bin/bin/../../lib/gcc/pic32mx/4.8.3/../../../../pic32mx/lib/./proc/32MX795F512L\processor.o
END GROUP
START GROUP
LOAD libmchp_peripheral.a
END GROUP
START GROUP
LOAD libmchp_peripheral_32MX795F512L.a
END GROUP
                0x00000001                PROVIDE (_vector_spacing, 0x1)
                0x9fc01000                PROVIDE (_ebase_address, 0x9fc01000)
                0xbfc00000                _RESET_ADDR = 0xbfc00000
                0xbfc00380                _BEV_EXCPT_ADDR = 0xbfc00380
                0xbfc00480                _DBG_EXCPT_ADDR = 0xbfc00480
                0xbfc02000                _DBG_CODE_ADDR = 0xbfc02000
                0x00000ff0                _DBG_CODE_SIZE = 0xff0
                0x9fc01180                _GEN_EXCPT_ADDR = (_ebase_address + 0x180)

.config_BFC02FF0
                0xbfc02ff0        0x4
 *(.config_BFC02FF0)
 .config_BFC02FF0
                0xbfc02ff0        0x4 build/default/production/_ext/1688732426/system_init.o

.config_BFC02FF4
                0xbfc02ff4        0x4
 *(.config_BFC02FF4)
 .config_BFC02FF4
                0xbfc02ff4        0x4 build/default/production/_ext/1688732426/system_init.o

.config_BFC02FF8
                0xbfc02ff8        0x4
 *(.config_BFC02FF8)
 .config_BFC02FF8
                0xbfc02ff8        0x4 build/default/production/_ext/1688732426/system_init.o

.config_BFC02FFC
                0xbfc02ffc        0x4
 *(.config_BFC02FFC)
 .config_BFC02FFC
                0xbfc02ffc        0x4 build/default/production/_ext/1688732426/system_init.o
                0xbfc02000                PROVIDE (_DBG_CODE_ADDR, 0xbfc02000)
                0x00000ff0                PROVIDE (_DBG_CODE_SIZE, 0xff0)

.reset          0xbfc00000      0x19c
 *(.reset)
 .reset         0xbfc00000        0x8 C:\Users\and08479\AppData\Local\Temp\ccFsgLgR.o
                0xbfc00000                _reset
 *(.reset.startup)
 .reset.startup
                0xbfc00008      0x194 C:\Users\and08479\AppData\Local\Temp\ccFsgLgR.o
                0xbfc00008                _startup

.bev_excpt      0xbfc00380       0x10
 *(.bev_handler)
 .bev_handler   0xbfc00380       0x10 C:\Users\and08479\AppData\Local\Temp\ccFsgLgR.o

.dbg_excpt      0xbfc00480        0x0
                0xbfc00480                . = (. + DEFINED (_DEBUGGER)?0x8:0x0)

.dbg_code       0xbfc02000        0x0
                0xbfc02000                . = (. + DEFINED (_DEBUGGER)?_DBG_CODE_SIZE:0x0)

.app_excpt      0x9fc01180       0x10
 *(.gen_handler)
 .gen_handler   0x9fc01180       0x10 C:\Users\and08479\AppData\Local\Temp\ccFsgLgR.o

.vector_0       0x9fc01200        0x8
 *(.vector_0)
 .vector_0      0x9fc01200        0x8 c:/program files (x86)/microchip/xc32/v2.30/bin/bin/../../lib/gcc/pic32mx/4.8.3/../../../../pic32mx/lib\libpic32.a(vector0.o)
                0x9fc01200                __vector_dispatch_0
                0x00000001                ASSERT (((_vector_spacing == 0x0) || (SIZEOF (.vector_0) <= (_vector_spacing << 0x5))), function at exception vector 0 too large)

.vector_1       0x9fc01220        0x8
 *(.vector_1)
 .vector_1      0x9fc01220        0x8 c:/program files (x86)/microchip/xc32/v2.30/bin/bin/../../lib/gcc/pic32mx/4.8.3/../../../../pic32mx/lib\libpic32.a(vector1.o)
                0x9fc01220                __vector_dispatch_1
                0x00000001                ASSERT (((_vector_spacing == 0x0) || (SIZEOF (.vector_1) <= (_vector_spacing << 0x5))), function at exception vector 1 too large)

.vector_2       0x9fc01240        0x8
 *(.vector_2)
 .vector_2      0x9fc01240        0x8 c:/program files (x86)/microchip/xc32/v2.30/bin/bin/../../lib/gcc/pic32mx/4.8.3/../../../../pic32mx/lib\libpic32.a(vector2.o)
                0x9fc01240                __vector_dispatch_2
                0x00000001                ASSERT (((_vector_spacing == 0x0) || (SIZEOF (.vector_2) <= (_vector_spacing << 0x5))), function at exception vector 2 too large)

.vector_3       0x9fc01260        0x8
 *(.vector_3)
 .vector_3      0x9fc01260        0x8 c:/program files (x86)/microchip/xc32/v2.30/bin/bin/../../lib/gcc/pic32mx/4.8.3/../../../../pic32mx/lib\libpic32.a(vector3.o)
                0x9fc01260                __vector_dispatch_3
                0x00000001                ASSERT (((_vector_spacing == 0x0) || (SIZEOF (.vector_3) <= (_vector_spacing << 0x5))), function at exception vector 3 too large)

.vector_4       0x9fc01280        0x8
 *(.vector_4)
 .vector_4      0x9fc01280        0x8 c:/program files (x86)/microchip/xc32/v2.30/bin/bin/../../lib/gcc/pic32mx/4.8.3/../../../../pic32mx/lib\libpic32.a(vector4.o)
                0x9fc01280                __vector_dispatch_4
                0x00000001                ASSERT (((_vector_spacing == 0x0) || (SIZEOF (.vector_4) <= (_vector_spacing << 0x5))), function at exception vector 4 too large)

.vector_5       0x9fc012a0        0x8
 *(.vector_5)
 .vector_5      0x9fc012a0        0x8 c:/program files (x86)/microchip/xc32/v2.30/bin/bin/../../lib/gcc/pic32mx/4.8.3/../../../../pic32mx/lib\libpic32.a(vector5.o)
                0x9fc012a0                __vector_dispatch_5
                0x00000001                ASSERT (((_vector_spacing == 0x0) || (SIZEOF (.vector_5) <= (_vector_spacing << 0x5))), function at exception vector 5 too large)

.vector_6       0x9fc012c0        0x8
 *(.vector_6)
 .vector_6      0x9fc012c0        0x8 c:/program files (x86)/microchip/xc32/v2.30/bin/bin/../../lib/gcc/pic32mx/4.8.3/../../../../pic32mx/lib\libpic32.a(vector6.o)
                0x9fc012c0                __vector_dispatch_6
                0x00000001                ASSERT (((_vector_spacing == 0x0) || (SIZEOF (.vector_6) <= (_vector_spacing << 0x5))), function at exception vector 6 too large)

.vector_7       0x9fc012e0        0x8
 *(.vector_7)
 .vector_7      0x9fc012e0        0x8 c:/program files (x86)/microchip/xc32/v2.30/bin/bin/../../lib/gcc/pic32mx/4.8.3/../../../../pic32mx/lib\libpic32.a(vector7.o)
                0x9fc012e0                __vector_dispatch_7
                0x00000001                ASSERT (((_vector_spacing == 0x0) || (SIZEOF (.vector_7) <= (_vector_spacing << 0x5))), function at exception vector 7 too large)

.vector_8       0x9fc01300        0x8
 *(.vector_8)
 .vector_8      0x9fc01300        0x8 c:/program files (x86)/microchip/xc32/v2.30/bin/bin/../../lib/gcc/pic32mx/4.8.3/../../../../pic32mx/lib\libpic32.a(vector8.o)
                0x9fc01300                __vector_dispatch_8
                0x00000001                ASSERT (((_vector_spacing == 0x0) || (SIZEOF (.vector_8) <= (_vector_spacing << 0x5))), function at exception vector 8 too large)

.vector_9       0x9fc01320        0x8
 *(.vector_9)
 .vector_9      0x9fc01320        0x8 c:/program files (x86)/microchip/xc32/v2.30/bin/bin/../../lib/gcc/pic32mx/4.8.3/../../../../pic32mx/lib\libpic32.a(vector9.o)
                0x9fc01320                __vector_dispatch_9
                0x00000001                ASSERT (((_vector_spacing == 0x0) || (SIZEOF (.vector_9) <= (_vector_spacing << 0x5))), function at exception vector 9 too large)

.vector_10      0x9fc01340        0x8
 *(.vector_10)
 .vector_10     0x9fc01340        0x8 c:/program files (x86)/microchip/xc32/v2.30/bin/bin/../../lib/gcc/pic32mx/4.8.3/../../../../pic32mx/lib\libpic32.a(vector10.o)
                0x9fc01340                __vector_dispatch_10
                0x00000001                ASSERT (((_vector_spacing == 0x0) || (SIZEOF (.vector_10) <= (_vector_spacing << 0x5))), function at exception vector 10 too large)

.vector_11      0x9fc01360        0x8
 *(.vector_11)
 .vector_11     0x9fc01360        0x8 c:/program files (x86)/microchip/xc32/v2.30/bin/bin/../../lib/gcc/pic32mx/4.8.3/../../../../pic32mx/lib\libpic32.a(vector11.o)
                0x9fc01360                __vector_dispatch_11
                0x00000001                ASSERT (((_vector_spacing == 0x0) || (SIZEOF (.vector_11) <= (_vector_spacing << 0x5))), function at exception vector 11 too large)

.vector_12      0x9fc01380        0x8
 *(.vector_12)
 .vector_12     0x9fc01380        0x8 c:/program files (x86)/microchip/xc32/v2.30/bin/bin/../../lib/gcc/pic32mx/4.8.3/../../../../pic32mx/lib\libpic32.a(vector12.o)
                0x9fc01380                __vector_dispatch_12
                0x00000001                ASSERT (((_vector_spacing == 0x0) || (SIZEOF (.vector_12) <= (_vector_spacing << 0x5))), function at exception vector 12 too large)

.vector_13      0x9fc013a0        0x8
 *(.vector_13)
 .vector_13     0x9fc013a0        0x8 c:/program files (x86)/microchip/xc32/v2.30/bin/bin/../../lib/gcc/pic32mx/4.8.3/../../../../pic32mx/lib\libpic32.a(vector13.o)
                0x9fc013a0                __vector_dispatch_13
                0x00000001                ASSERT (((_vector_spacing == 0x0) || (SIZEOF (.vector_13) <= (_vector_spacing << 0x5))), function at exception vector 13 too large)

.vector_14      0x9fc013c0        0x8
 *(.vector_14)
 .vector_14     0x9fc013c0        0x8 c:/program files (x86)/microchip/xc32/v2.30/bin/bin/../../lib/gcc/pic32mx/4.8.3/../../../../pic32mx/lib\libpic32.a(vector14.o)
                0x9fc013c0                __vector_dispatch_14
                0x00000001                ASSERT (((_vector_spacing == 0x0) || (SIZEOF (.vector_14) <= (_vector_spacing << 0x5))), function at exception vector 14 too large)

.vector_15      0x9fc013e0        0x8
 *(.vector_15)
 .vector_15     0x9fc013e0        0x8 c:/program files (x86)/microchip/xc32/v2.30/bin/bin/../../lib/gcc/pic32mx/4.8.3/../../../../pic32mx/lib\libpic32.a(vector15.o)
                0x9fc013e0                __vector_dispatch_15
                0x00000001                ASSERT (((_vector_spacing == 0x0) || (SIZEOF (.vector_15) <= (_vector_spacing << 0x5))), function at exception vector 15 too large)

.vector_16      0x9fc01400        0x8
 *(.vector_16)
 .vector_16     0x9fc01400        0x8 c:/program files (x86)/microchip/xc32/v2.30/bin/bin/../../lib/gcc/pic32mx/4.8.3/../../../../pic32mx/lib\libpic32.a(vector16.o)
                0x9fc01400                __vector_dispatch_16
                0x00000001                ASSERT (((_vector_spacing == 0x0) || (SIZEOF (.vector_16) <= (_vector_spacing << 0x5))), function at exception vector 16 too large)

.vector_17      0x9fc01420        0x8
 *(.vector_17)
 .vector_17     0x9fc01420        0x8 c:/program files (x86)/microchip/xc32/v2.30/bin/bin/../../lib/gcc/pic32mx/4.8.3/../../../../pic32mx/lib\libpic32.a(vector17.o)
                0x9fc01420                __vector_dispatch_17
                0x00000001                ASSERT (((_vector_spacing == 0x0) || (SIZEOF (.vector_17) <= (_vector_spacing << 0x5))), function at exception vector 17 too large)

.vector_18      0x9fc01440        0x8
 *(.vector_18)
 .vector_18     0x9fc01440        0x8 c:/program files (x86)/microchip/xc32/v2.30/bin/bin/../../lib/gcc/pic32mx/4.8.3/../../../../pic32mx/lib\libpic32.a(vector18.o)
                0x9fc01440                __vector_dispatch_18
                0x00000001                ASSERT (((_vector_spacing == 0x0) || (SIZEOF (.vector_18) <= (_vector_spacing << 0x5))), function at exception vector 18 too large)

.vector_19      0x9fc01460        0x8
 *(.vector_19)
 .vector_19     0x9fc01460        0x8 c:/program files (x86)/microchip/xc32/v2.30/bin/bin/../../lib/gcc/pic32mx/4.8.3/../../../../pic32mx/lib\libpic32.a(vector19.o)
                0x9fc01460                __vector_dispatch_19
                0x00000001                ASSERT (((_vector_spacing == 0x0) || (SIZEOF (.vector_19) <= (_vector_spacing << 0x5))), function at exception vector 19 too large)

.vector_20      0x9fc01480        0x8
 *(.vector_20)
 .vector_20     0x9fc01480        0x8 c:/program files (x86)/microchip/xc32/v2.30/bin/bin/../../lib/gcc/pic32mx/4.8.3/../../../../pic32mx/lib\libpic32.a(vector20.o)
                0x9fc01480                __vector_dispatch_20
                0x00000001                ASSERT (((_vector_spacing == 0x0) || (SIZEOF (.vector_20) <= (_vector_spacing << 0x5))), function at exception vector 20 too large)

.vector_21      0x9fc014a0        0x8
 *(.vector_21)
 .vector_21     0x9fc014a0        0x8 c:/program files (x86)/microchip/xc32/v2.30/bin/bin/../../lib/gcc/pic32mx/4.8.3/../../../../pic32mx/lib\libpic32.a(vector21.o)
                0x9fc014a0                __vector_dispatch_21
                0x00000001                ASSERT (((_vector_spacing == 0x0) || (SIZEOF (.vector_21) <= (_vector_spacing << 0x5))), function at exception vector 21 too large)

.vector_22      0x9fc014c0        0x8
 *(.vector_22)
 .vector_22     0x9fc014c0        0x8 c:/program files (x86)/microchip/xc32/v2.30/bin/bin/../../lib/gcc/pic32mx/4.8.3/../../../../pic32mx/lib\libpic32.a(vector22.o)
                0x9fc014c0                __vector_dispatch_22
                0x00000001                ASSERT (((_vector_spacing == 0x0) || (SIZEOF (.vector_22) <= (_vector_spacing << 0x5))), function at exception vector 22 too large)

.vector_23      0x9fc014e0        0x8
 *(.vector_23)
 .vector_23     0x9fc014e0        0x8 c:/program files (x86)/microchip/xc32/v2.30/bin/bin/../../lib/gcc/pic32mx/4.8.3/../../../../pic32mx/lib\libpic32.a(vector23.o)
                0x9fc014e0                __vector_dispatch_23
                0x00000001                ASSERT (((_vector_spacing == 0x0) || (SIZEOF (.vector_23) <= (_vector_spacing << 0x5))), function at exception vector 23 too large)

.vector_24      0x9fc01500        0x8
 *(.vector_24)
 .vector_24     0x9fc01500        0x8 c:/program files (x86)/microchip/xc32/v2.30/bin/bin/../../lib/gcc/pic32mx/4.8.3/../../../../pic32mx/lib\libpic32.a(vector24.o)
                0x9fc01500                __vector_dispatch_24
                0x00000001                ASSERT (((_vector_spacing == 0x0) || (SIZEOF (.vector_24) <= (_vector_spacing << 0x5))), function at exception vector 24 too large)

.vector_25      0x9fc01520        0x8
 *(.vector_25)
 .vector_25     0x9fc01520        0x8 c:/program files (x86)/microchip/xc32/v2.30/bin/bin/../../lib/gcc/pic32mx/4.8.3/../../../../pic32mx/lib\libpic32.a(vector25.o)
                0x9fc01520                __vector_dispatch_25
                0x00000001                ASSERT (((_vector_spacing == 0x0) || (SIZEOF (.vector_25) <= (_vector_spacing << 0x5))), function at exception vector 25 too large)

.vector_26      0x9fc01540        0x8
 *(.vector_26)
 .vector_26     0x9fc01540        0x8 c:/program files (x86)/microchip/xc32/v2.30/bin/bin/../../lib/gcc/pic32mx/4.8.3/../../../../pic32mx/lib\libpic32.a(vector26.o)
                0x9fc01540                __vector_dispatch_26
                0x00000001                ASSERT (((_vector_spacing == 0x0) || (SIZEOF (.vector_26) <= (_vector_spacing << 0x5))), function at exception vector 26 too large)

.vector_27      0x9fc01560        0x8
 *(.vector_27)
 .vector_27     0x9fc01560        0x8 c:/program files (x86)/microchip/xc32/v2.30/bin/bin/../../lib/gcc/pic32mx/4.8.3/../../../../pic32mx/lib\libpic32.a(vector27.o)
                0x9fc01560                __vector_dispatch_27
                0x00000001                ASSERT (((_vector_spacing == 0x0) || (SIZEOF (.vector_27) <= (_vector_spacing << 0x5))), function at exception vector 27 too large)

.vector_28      0x9fc01580        0x8
 *(.vector_28)
 .vector_28     0x9fc01580        0x8 c:/program files (x86)/microchip/xc32/v2.30/bin/bin/../../lib/gcc/pic32mx/4.8.3/../../../../pic32mx/lib\libpic32.a(vector28.o)
                0x9fc01580                __vector_dispatch_28
                0x00000001                ASSERT (((_vector_spacing == 0x0) || (SIZEOF (.vector_28) <= (_vector_spacing << 0x5))), function at exception vector 28 too large)

.vector_29      0x9fc015a0        0x8
 *(.vector_29)
 .vector_29     0x9fc015a0        0x8 c:/program files (x86)/microchip/xc32/v2.30/bin/bin/../../lib/gcc/pic32mx/4.8.3/../../../../pic32mx/lib\libpic32.a(vector29.o)
                0x9fc015a0                __vector_dispatch_29
                0x00000001                ASSERT (((_vector_spacing == 0x0) || (SIZEOF (.vector_29) <= (_vector_spacing << 0x5))), function at exception vector 29 too large)

.vector_30      0x9fc015c0        0x8
 *(.vector_30)
 .vector_30     0x9fc015c0        0x8 c:/program files (x86)/microchip/xc32/v2.30/bin/bin/../../lib/gcc/pic32mx/4.8.3/../../../../pic32mx/lib\libpic32.a(vector30.o)
                0x9fc015c0                __vector_dispatch_30
                0x00000001                ASSERT (((_vector_spacing == 0x0) || (SIZEOF (.vector_30) <= (_vector_spacing << 0x5))), function at exception vector 30 too large)

.vector_31      0x9fc015e0        0x8
 *(.vector_31)
 .vector_31     0x9fc015e0        0x8 c:/program files (x86)/microchip/xc32/v2.30/bin/bin/../../lib/gcc/pic32mx/4.8.3/../../../../pic32mx/lib\libpic32.a(vector31.o)
                0x9fc015e0                __vector_dispatch_31
                0x00000001                ASSERT (((_vector_spacing == 0x0) || (SIZEOF (.vector_31) <= (_vector_spacing << 0x5))), function at exception vector 31 too large)

.vector_32      0x9fc01600        0x8
 *(.vector_32)
 .vector_32     0x9fc01600        0x8 c:/program files (x86)/microchip/xc32/v2.30/bin/bin/../../lib/gcc/pic32mx/4.8.3/../../../../pic32mx/lib\libpic32.a(vector32.o)
                0x9fc01600                __vector_dispatch_32
                0x00000001                ASSERT (((_vector_spacing == 0x0) || (SIZEOF (.vector_32) <= (_vector_spacing << 0x5))), function at exception vector 32 too large)

.vector_33      0x9fc01620        0x8
 *(.vector_33)
 .vector_33     0x9fc01620        0x8 c:/program files (x86)/microchip/xc32/v2.30/bin/bin/../../lib/gcc/pic32mx/4.8.3/../../../../pic32mx/lib\libpic32.a(vector33.o)
                0x9fc01620                __vector_dispatch_33
                0x00000001                ASSERT (((_vector_spacing == 0x0) || (SIZEOF (.vector_33) <= (_vector_spacing << 0x5))), function at exception vector 33 too large)

.vector_34      0x9fc01640        0x8
 *(.vector_34)
 .vector_34     0x9fc01640        0x8 c:/program files (x86)/microchip/xc32/v2.30/bin/bin/../../lib/gcc/pic32mx/4.8.3/../../../../pic32mx/lib\libpic32.a(vector34.o)
                0x9fc01640                __vector_dispatch_34
                0x00000001                ASSERT (((_vector_spacing == 0x0) || (SIZEOF (.vector_34) <= (_vector_spacing << 0x5))), function at exception vector 34 too large)

.vector_35      0x9fc01660        0x8
 *(.vector_35)
 .vector_35     0x9fc01660        0x8 c:/program files (x86)/microchip/xc32/v2.30/bin/bin/../../lib/gcc/pic32mx/4.8.3/../../../../pic32mx/lib\libpic32.a(vector35.o)
                0x9fc01660                __vector_dispatch_35
                0x00000001                ASSERT (((_vector_spacing == 0x0) || (SIZEOF (.vector_35) <= (_vector_spacing << 0x5))), function at exception vector 35 too large)

.vector_36      0x9fc01680        0x8
 *(.vector_36)
 .vector_36     0x9fc01680        0x8 c:/program files (x86)/microchip/xc32/v2.30/bin/bin/../../lib/gcc/pic32mx/4.8.3/../../../../pic32mx/lib\libpic32.a(vector36.o)
                0x9fc01680                __vector_dispatch_36
                0x00000001                ASSERT (((_vector_spacing == 0x0) || (SIZEOF (.vector_36) <= (_vector_spacing << 0x5))), function at exception vector 36 too large)

.vector_37      0x9fc016a0        0x8
 *(.vector_37)
 .vector_37     0x9fc016a0        0x8 c:/program files (x86)/microchip/xc32/v2.30/bin/bin/../../lib/gcc/pic32mx/4.8.3/../../../../pic32mx/lib\libpic32.a(vector37.o)
                0x9fc016a0                __vector_dispatch_37
                0x00000001                ASSERT (((_vector_spacing == 0x0) || (SIZEOF (.vector_37) <= (_vector_spacing << 0x5))), function at exception vector 37 too large)

.vector_38      0x9fc016c0        0x8
 *(.vector_38)
 .vector_38     0x9fc016c0        0x8 c:/program files (x86)/microchip/xc32/v2.30/bin/bin/../../lib/gcc/pic32mx/4.8.3/../../../../pic32mx/lib\libpic32.a(vector38.o)
                0x9fc016c0                __vector_dispatch_38
                0x00000001                ASSERT (((_vector_spacing == 0x0) || (SIZEOF (.vector_38) <= (_vector_spacing << 0x5))), function at exception vector 38 too large)

.vector_39      0x9fc016e0        0x8
 *(.vector_39)
 .vector_39     0x9fc016e0        0x8 c:/program files (x86)/microchip/xc32/v2.30/bin/bin/../../lib/gcc/pic32mx/4.8.3/../../../../pic32mx/lib\libpic32.a(vector39.o)
                0x9fc016e0                __vector_dispatch_39
                0x00000001                ASSERT (((_vector_spacing == 0x0) || (SIZEOF (.vector_39) <= (_vector_spacing << 0x5))), function at exception vector 39 too large)

.vector_40      0x9fc01700        0x8
 *(.vector_40)
 .vector_40     0x9fc01700        0x8 c:/program files (x86)/microchip/xc32/v2.30/bin/bin/../../lib/gcc/pic32mx/4.8.3/../../../../pic32mx/lib\libpic32.a(vector40.o)
                0x9fc01700                __vector_dispatch_40
                0x00000001                ASSERT (((_vector_spacing == 0x0) || (SIZEOF (.vector_40) <= (_vector_spacing << 0x5))), function at exception vector 40 too large)

.vector_41      0x9fc01720        0x8
 *(.vector_41)
 .vector_41     0x9fc01720        0x8 c:/program files (x86)/microchip/xc32/v2.30/bin/bin/../../lib/gcc/pic32mx/4.8.3/../../../../pic32mx/lib\libpic32.a(vector41.o)
                0x9fc01720                __vector_dispatch_41
                0x00000001                ASSERT (((_vector_spacing == 0x0) || (SIZEOF (.vector_41) <= (_vector_spacing << 0x5))), function at exception vector 41 too large)

.vector_42      0x9fc01740        0x8
 *(.vector_42)
 .vector_42     0x9fc01740        0x8 c:/program files (x86)/microchip/xc32/v2.30/bin/bin/../../lib/gcc/pic32mx/4.8.3/../../../../pic32mx/lib\libpic32.a(vector42.o)
                0x9fc01740                __vector_dispatch_42
                0x00000001                ASSERT (((_vector_spacing == 0x0) || (SIZEOF (.vector_42) <= (_vector_spacing << 0x5))), function at exception vector 42 too large)

.vector_43      0x9fc01760        0x8
 *(.vector_43)
 .vector_43     0x9fc01760        0x8 c:/program files (x86)/microchip/xc32/v2.30/bin/bin/../../lib/gcc/pic32mx/4.8.3/../../../../pic32mx/lib\libpic32.a(vector43.o)
                0x9fc01760                __vector_dispatch_43
                0x00000001                ASSERT (((_vector_spacing == 0x0) || (SIZEOF (.vector_43) <= (_vector_spacing << 0x5))), function at exception vector 43 too large)

.vector_44      0x9fc01780        0x8
 *(.vector_44)
 .vector_44     0x9fc01780        0x8 c:/program files (x86)/microchip/xc32/v2.30/bin/bin/../../lib/gcc/pic32mx/4.8.3/../../../../pic32mx/lib\libpic32.a(vector44.o)
                0x9fc01780                __vector_dispatch_44
                0x00000001                ASSERT (((_vector_spacing == 0x0) || (SIZEOF (.vector_44) <= (_vector_spacing << 0x5))), function at exception vector 44 too large)

.vector_45      0x9fc017a0        0x8
 *(.vector_45)
 .vector_45     0x9fc017a0        0x8 c:/program files (x86)/microchip/xc32/v2.30/bin/bin/../../lib/gcc/pic32mx/4.8.3/../../../../pic32mx/lib\libpic32.a(vector45.o)
                0x9fc017a0                __vector_dispatch_45
                0x00000001                ASSERT (((_vector_spacing == 0x0) || (SIZEOF (.vector_45) <= (_vector_spacing << 0x5))), function at exception vector 45 too large)

.vector_46      0x9fc017c0        0x8
 *(.vector_46)
 .vector_46     0x9fc017c0        0x8 c:/program files (x86)/microchip/xc32/v2.30/bin/bin/../../lib/gcc/pic32mx/4.8.3/../../../../pic32mx/lib\libpic32.a(vector46.o)
                0x9fc017c0                __vector_dispatch_46
                0x00000001                ASSERT (((_vector_spacing == 0x0) || (SIZEOF (.vector_46) <= (_vector_spacing << 0x5))), function at exception vector 46 too large)

.vector_47      0x9fc017e0        0x8
 *(.vector_47)
 .vector_47     0x9fc017e0        0x8 c:/program files (x86)/microchip/xc32/v2.30/bin/bin/../../lib/gcc/pic32mx/4.8.3/../../../../pic32mx/lib\libpic32.a(vector47.o)
                0x9fc017e0                __vector_dispatch_47
                0x00000001                ASSERT (((_vector_spacing == 0x0) || (SIZEOF (.vector_47) <= (_vector_spacing << 0x5))), function at exception vector 47 too large)

.vector_48      0x9fc01800        0x8
 *(.vector_48)
 .vector_48     0x9fc01800        0x8 c:/program files (x86)/microchip/xc32/v2.30/bin/bin/../../lib/gcc/pic32mx/4.8.3/../../../../pic32mx/lib\libpic32.a(vector48.o)
                0x9fc01800                __vector_dispatch_48
                0x00000001                ASSERT (((_vector_spacing == 0x0) || (SIZEOF (.vector_48) <= (_vector_spacing << 0x5))), function at exception vector 48 too large)

.vector_49      0x9fc01820        0x8
 *(.vector_49)
 .vector_49     0x9fc01820        0x8 c:/program files (x86)/microchip/xc32/v2.30/bin/bin/../../lib/gcc/pic32mx/4.8.3/../../../../pic32mx/lib\libpic32.a(vector49.o)
                0x9fc01820                __vector_dispatch_49
                0x00000001                ASSERT (((_vector_spacing == 0x0) || (SIZEOF (.vector_49) <= (_vector_spacing << 0x5))), function at exception vector 49 too large)

.vector_50      0x9fc01840        0x8
 *(.vector_50)
 .vector_50     0x9fc01840        0x8 c:/program files (x86)/microchip/xc32/v2.30/bin/bin/../../lib/gcc/pic32mx/4.8.3/../../../../pic32mx/lib\libpic32.a(vector50.o)
                0x9fc01840                __vector_dispatch_50
                0x00000001                ASSERT (((_vector_spacing == 0x0) || (SIZEOF (.vector_50) <= (_vector_spacing << 0x5))), function at exception vector 50 too large)

.vector_51      0x9fc01860        0x8
 *(.vector_51)
 .vector_51     0x9fc01860        0x8 c:/program files (x86)/microchip/xc32/v2.30/bin/bin/../../lib/gcc/pic32mx/4.8.3/../../../../pic32mx/lib\libpic32.a(vector51.o)
                0x9fc01860                __vector_dispatch_51
                0x00000001                ASSERT (((_vector_spacing == 0x0) || (SIZEOF (.vector_51) <= (_vector_spacing << 0x5))), function at exception vector 51 too large)

.vector_52      0x9fc01880        0x0
 *(.vector_52)
                0x00000001                ASSERT (((_vector_spacing == 0x0) || (SIZEOF (.vector_52) <= (_vector_spacing << 0x5))), function at exception vector 52 too large)

.vector_53      0x9fc018a0        0x0
 *(.vector_53)
                0x00000001                ASSERT (((_vector_spacing == 0x0) || (SIZEOF (.vector_53) <= (_vector_spacing << 0x5))), function at exception vector 53 too large)

.vector_54      0x9fc018c0        0x0
 *(.vector_54)
                0x00000001                ASSERT (((_vector_spacing == 0x0) || (SIZEOF (.vector_54) <= (_vector_spacing << 0x5))), function at exception vector 54 too large)

.vector_55      0x9fc018e0        0x0
 *(.vector_55)
                0x00000001                ASSERT (((_vector_spacing == 0x0) || (SIZEOF (.vector_55) <= (_vector_spacing << 0x5))), function at exception vector 55 too large)

.vector_56      0x9fc01900        0x0
 *(.vector_56)
                0x00000001                ASSERT (((_vector_spacing == 0x0) || (SIZEOF (.vector_56) <= (_vector_spacing << 0x5))), function at exception vector 56 too large)

.vector_57      0x9fc01920        0x0
 *(.vector_57)
                0x00000001                ASSERT (((_vector_spacing == 0x0) || (SIZEOF (.vector_57) <= (_vector_spacing << 0x5))), function at exception vector 57 too large)

.vector_58      0x9fc01940        0x0
 *(.vector_58)
                0x00000001                ASSERT (((_vector_spacing == 0x0) || (SIZEOF (.vector_58) <= (_vector_spacing << 0x5))), function at exception vector 58 too large)

.vector_59      0x9fc01960        0x0
 *(.vector_59)
                0x00000001                ASSERT (((_vector_spacing == 0x0) || (SIZEOF (.vector_59) <= (_vector_spacing << 0x5))), function at exception vector 59 too large)

.vector_60      0x9fc01980        0x0
 *(.vector_60)
                0x00000001                ASSERT (((_vector_spacing == 0x0) || (SIZEOF (.vector_60) <= (_vector_spacing << 0x5))), function at exception vector 60 too large)

.vector_61      0x9fc019a0        0x0
 *(.vector_61)
                0x00000001                ASSERT (((_vector_spacing == 0x0) || (SIZEOF (.vector_61) <= (_vector_spacing << 0x5))), function at exception vector 61 too large)

.vector_62      0x9fc019c0        0x0
 *(.vector_62)
                0x00000001                ASSERT (((_vector_spacing == 0x0) || (SIZEOF (.vector_62) <= (_vector_spacing << 0x5))), function at exception vector 62 too large)

.vector_63      0x9fc019e0        0x0
 *(.vector_63)
                0x00000001                ASSERT (((_vector_spacing == 0x0) || (SIZEOF (.vector_63) <= (_vector_spacing << 0x5))), function at exception vector 63 too large)

.startup
 *(.startup)

.text           0x9d000000        0x0
 *(.stub .gnu.linkonce.t.*)
 *(.text.*personality*)
 *(.mips16.fn.*)
 *(.mips16.call.*)
 *(.gnu.warning)
                0x9d000000                . = ALIGN (0x4)

.init           0x9d000000        0x0
 *crti.o(.init)
 *crtbegin.o(.init)
 *(EXCLUDE_FILE(*crtn.o *crtend?.o *crtend.o) .init)
 *crtend.o(.init)
 *crtn.o(.init)
                0x9d000000                . = ALIGN (0x4)

.fini           0x9d000000        0x0
 *(.fini)
                0x9d000000                . = ALIGN (0x4)

.preinit_array  0x9d000000        0x0
                0x9d000000                PROVIDE (__preinit_array_start, .)
 *(.preinit_array)
                0x9d000000                PROVIDE (__preinit_array_end, .)
                0x9d000000                . = ALIGN (0x4)

.init_array     0x9d000000        0x0
                0x9d000000                PROVIDE (__init_array_start, .)
 *(SORT(.init_array.*))
 *(.init_array)
                0x9d000000                PROVIDE (__init_array_end, .)
                0x9d000000                . = ALIGN (0x4)

.fini_array     0x9d000000        0x0
                0x9d000000                PROVIDE (__fini_array_start, .)
 *(SORT(.fini_array.*))
 *(.fini_array)
                0x9d000000                PROVIDE (__fini_array_end, .)
                0x9d000000                . = ALIGN (0x4)

.ctors          0x9d000000        0x0
 *crtbegin.o(.ctors)
 *crtbegin?.o(.ctors)
 *(EXCLUDE_FILE(*crtend?.o *crtend.o) .ctors)
 *(SORT(.ctors.*))
 *(.ctors)
                0x9d000000                . = ALIGN (0x4)

.dtors          0x9d000000        0x0
 *crtbegin.o(.dtors)
 *crtbegin?.o(.dtors)
 *(EXCLUDE_FILE(*crtend?.o *crtend.o) .dtors)
 *(SORT(.dtors.*))
 *(.dtors)
                0x9d000000                . = ALIGN (0x4)

.rodata         0x9d000000        0x0
 *(.gnu.linkonce.r.*)
 *(.rodata1)
                0x9d000000                . = ALIGN (0x4)

.sdata2         0x9fc00490        0x0
 *(.sdata2 .sdata2.* .gnu.linkonce.s2.*)
                0x9fc00490                . = ALIGN (0x4)

.sbss2          0x9fc00490        0x0
 *(.sbss2 .sbss2.* .gnu.linkonce.sb2.*)
                0x9fc00490                . = ALIGN (0x4)

.eh_frame_hdr
 *(.eh_frame_hdr)
                0x9fc00490                . = ALIGN (0x4)

.eh_frame
 *(.eh_frame)
                0x9fc00490                . = ALIGN (0x4)

.gcc_except_table
 *(.gcc_except_table .gcc_except_table.*)
                0x9fc00490                . = ALIGN (0x4)

.dbg_data       0xa0000000        0x0
                0xa0000000                . = (. + DEFINED (_DEBUGGER)?0x200:0x0)

.jcr            0xa0000000        0x0
 *(.jcr)
                0xa0000000                . = ALIGN (0x4)

.eh_frame
 *(.eh_frame)
                0xa0000000                . = ALIGN (0x4)

.gcc_except_table
 *(.gcc_except_table .gcc_except_table.*)
                0xa0000000                . = ALIGN (0x4)

.persist        0xa0000000        0x0
                0xa0000000                _persist_begin = .
 *(.persist .persist.*)
 *(.pbss .pbss.*)
                0xa0000000                . = ALIGN (0x4)
                0xa0000000                _persist_end = .

.data           0xa0000000        0x0
 *(.gnu.linkonce.d.*)
 *(.data1)
                0xa0000000                . = ALIGN (0x4)
                0xa0000000                . = .
                0xa0007ff0                _gp = (ALIGN (0x10) + 0x7ff0)

.got            0xa0000000        0x0
 *(.got.plt)
 *(.got)
                0xa0000000                . = ALIGN (0x4)

.sdata          0xa0000000       0x20
                0xa0000000                _sdata_begin = .
 *(.sdata .sdata.* .gnu.linkonce.s.*)
 .sdata         0xa0000000        0x4 build/default/production/_ext/308360523/lodepng.o
                0xa0000000                LODEPNG_VERSION_STRING
 .sdata         0xa0000004       0x10 build/default/production/_ext/1963452113/gfxu_string_utils.o
                0xa0000004                drawGlyphRow
                0xa000000c                getGlyphRowDataSize
 .sdata         0xa0000014        0x4 build/default/production/_ext/347121368/drv_gfx_ssd1926.o
                0xa0000014                DRIVER_NAME
 .sdata         0xa0000018        0x1 build/default/production/_ext/1689523328/drv_gfx_ssd1289.o
 *fill*         0xa0000019        0x3 
 .sdata         0xa000001c        0x4 c:/program files (x86)/microchip/xc32/v2.30/bin/bin/../../lib/gcc/pic32mx/4.8.3/../../../../pic32mx/lib\libpic32.a(xc32_uart.o)
                0xa000001c                __XC_UART
                0xa0000020                . = ALIGN (0x4)
                0xa0000020                _sdata_end = .

.lit8
 *(.lit8)

.lit4
 *(.lit4)
                0xa0000020                . = ALIGN (0x4)
                0xa0000020                _data_end = .
                0xa0000020                _bss_begin = .

.sbss           0xa0000020       0x8c
                0xa0000020                _sbss_begin = .
 *(.dynsbss)
 *(.sbss .sbss.* .gnu.linkonce.sb.*)
 .sbss          0xa0000020       0x30 build/default/production/_ext/1963452113/gfxu_image_jpg_common.o
 .sbss          0xa0000050        0xc build/default/production/_ext/1963452113/gfxu_image_jpg_internal.o
 .sbss          0xa000005c        0xc build/default/production/_ext/1963452113/gfxu_image_jpg_external.o
 .sbss          0xa0000068        0x4 build/default/production/_ext/1071800814/libaria.o
                0xa0000068                _initialized
 .sbss          0xa000006c        0x4 build/default/production/_ext/1071800814/libaria_context.o
                0xa000006c                _activeContext
 .sbss          0xa0000070        0x1 build/default/production/_ext/1071800814/libaria_widget_image_skin_classic.o
                0xa0000070                startCounting
 *fill*         0xa0000071        0x3 
 .sbss          0xa0000074        0x4 build/default/production/_ext/676789875/gfx_context.o
                0xa0000074                _contextActive
 .sbss          0xa0000078        0x8 build/default/production/_ext/676789875/gfx_driver_interface.o
                0xa0000078                GFX_DriverInterfaces
 .sbss          0xa0000080        0x8 build/default/production/_ext/676789875/gfx_draw_ellipse.o
 .sbss          0xa0000088        0x4 build/default/production/_ext/458109090/libaria_harmony.o
 .sbss          0xa000008c        0xc build/default/production/_ext/1688732426/system_exceptions.o
 *(.scommon)
 .scommon       0xa0000098        0x4 build/default/production/_ext/1360937237/app.o
                0xa0000098                appData
 .scommon       0xa000009c        0x4 build/default/production/_ext/458109090/libaria_harmony.o
                0xa000009c                libariaObj
 .scommon       0xa00000a0        0x8 build/default/production/_ext/340578644/sys_devcon.o
                0xa00000a0                sysDevconObj
 .scommon       0xa00000a8        0x4 build/default/production/_ext/1688732426/system_init.o
                0xa00000a8                sysObj
                0xa00000ac                _sbss_end = .
                0xa00000ac                . = ALIGN (0x4)

.bss            0xa00000ac       0x40
 *(.dynbss)
 *(COMMON)
 COMMON         0xa00000ac       0x40 build/default/production/_ext/458109090/libaria_init.o
                0xa00000ac                defaultScheme
                0xa00000ec                . = ALIGN ((. != 0x0)?0x4:0x1)
                0xa00000ec                . = ALIGN (0x4)
                0xa00000ec                _end = .
                0xa00000ec                _bss_end = .
                0x00020000                _bmxdudba_address = 0x20000
                0x00020000                _bmxdupba_address = 0x20000

/DISCARD/
 *(.pdr)
 *(.rel.dyn)
 *(.note.GNU-stack)
 *(.note.GNU-stack)
 *(.gnu_debuglink)
 *(.gnu.lto_*)
 *(.discard)

.gptab.sdata
 *(.gptab.data)
 *(.gptab.sdata)

.gptab.sbss
 *(.gptab.bss)
 *(.gptab.sbss)

.mdebug.abi32   0xa00000ec        0x0
 *(.mdebug.abi32)
 .mdebug.abi32  0xa00000ec        0x0 build/default/production/_ext/1360937237/app.o
 .mdebug.abi32  0xa00000ec        0x0 build/default/production/_ext/1360937237/main.o
 .mdebug.abi32  0xa00000ec        0x0 build/default/production/_ext/658260392/jidctint.o
 .mdebug.abi32  0xa00000ec        0x0 build/default/production/_ext/1963452113/gfxu_image_jpg_common.o
 .mdebug.abi32  0xa00000ec        0x0 build/default/production/_ext/1963452113/gfxu_image_jpg_internal.o
 .mdebug.abi32  0xa00000ec        0x0 build/default/production/_ext/1963452113/gfxu_image_jpg_external.o
 .mdebug.abi32  0xa00000ec        0x0 build/default/production/_ext/1963452113/gfxu_image_png_external.o
 .mdebug.abi32  0xa00000ec        0x0 build/default/production/_ext/1963452113/gfxu_image_png_internal.o
 .mdebug.abi32  0xa00000ec        0x0 build/default/production/_ext/308360523/lodepng.o
 .mdebug.abi32  0xa00000ec        0x0 build/default/production/_ext/1963452113/gfxu_image.o
 .mdebug.abi32  0xa00000ec        0x0 build/default/production/_ext/1963452113/gfxu_image_raw_external.o
 .mdebug.abi32  0xa00000ec        0x0 build/default/production/_ext/1963452113/gfxu_image_raw_internal.o
 .mdebug.abi32  0xa00000ec        0x0 build/default/production/_ext/1963452113/gfxu_image_rle_external.o
 .mdebug.abi32  0xa00000ec        0x0 build/default/production/_ext/1963452113/gfxu_image_rle_internal.o
 .mdebug.abi32  0xa00000ec        0x0 build/default/production/_ext/1963452113/gfxu_image_utils.o
 .mdebug.abi32  0xa00000ec        0x0 build/default/production/_ext/1963452113/gfxu_palette.o
 .mdebug.abi32  0xa00000ec        0x0 build/default/production/_ext/1963452113/gfxu_string.o
 .mdebug.abi32  0xa00000ec        0x0 build/default/production/_ext/1963452113/gfxu_string_external.o
 .mdebug.abi32  0xa00000ec        0x0 build/default/production/_ext/1963452113/gfxu_stringbuffer_external.o
 .mdebug.abi32  0xa00000ec        0x0 build/default/production/_ext/1963452113/gfxu_string_internal.o
 .mdebug.abi32  0xa00000ec        0x0 build/default/production/_ext/1963452113/gfxu_string_query.o
 .mdebug.abi32  0xa00000ec        0x0 build/default/production/_ext/1963452113/gfxu_string_utils.o
 .mdebug.abi32  0xa00000ec        0x0 build/default/production/_ext/1071800814/libaria.o
 .mdebug.abi32  0xa00000ec        0x0 build/default/production/_ext/1071800814/libaria_array.o
 .mdebug.abi32  0xa00000ec        0x0 build/default/production/_ext/1071800814/libaria_context.o
 .mdebug.abi32  0xa00000ec        0x0 build/default/production/_ext/1071800814/libaria_context_paint.o
 .mdebug.abi32  0xa00000ec        0x0 build/default/production/_ext/1071800814/libaria_draw.o
 .mdebug.abi32  0xa00000ec        0x0 build/default/production/_ext/1071800814/libaria_editwidget.o
 .mdebug.abi32  0xa00000ec        0x0 build/default/production/_ext/1071800814/libaria_event.o
 .mdebug.abi32  0xa00000ec        0x0 build/default/production/_ext/1071800814/libaria_input.o
 .mdebug.abi32  0xa00000ec        0x0 build/default/production/_ext/1071800814/libaria_layer.o
 .mdebug.abi32  0xa00000ec        0x0 build/default/production/_ext/1071800814/libaria_list.o
 .mdebug.abi32  0xa00000ec        0x0 build/default/production/_ext/1071800814/libaria_rectarray.o
 .mdebug.abi32  0xa00000ec        0x0 build/default/production/_ext/1071800814/libaria_scheme.o
 .mdebug.abi32  0xa00000ec        0x0 build/default/production/_ext/1071800814/libaria_screen.o
 .mdebug.abi32  0xa00000ec        0x0 build/default/production/_ext/1071800814/libaria_string.o
 .mdebug.abi32  0xa00000ec        0x0 build/default/production/_ext/1071800814/libaria_utils.o
 .mdebug.abi32  0xa00000ec        0x0 build/default/production/_ext/1071800814/libaria_widget.o
 .mdebug.abi32  0xa00000ec        0x0 build/default/production/_ext/1071800814/libaria_widget_skin_classic.o
 .mdebug.abi32  0xa00000ec        0x0 build/default/production/_ext/1071800814/libaria_widget_skin_classic_common.o
 .mdebug.abi32  0xa00000ec        0x0 build/default/production/_ext/1071800814/libaria_widget_arc.o
 .mdebug.abi32  0xa00000ec        0x0 build/default/production/_ext/1071800814/libaria_widget_arc_skin_classic.o
 .mdebug.abi32  0xa00000ec        0x0 build/default/production/_ext/1071800814/libaria_widget_bar_graph.o
 .mdebug.abi32  0xa00000ec        0x0 build/default/production/_ext/1071800814/libaria_widget_bar_graph_skin_classic.o
 .mdebug.abi32  0xa00000ec        0x0 build/default/production/_ext/1071800814/libaria_widget_button.o
 .mdebug.abi32  0xa00000ec        0x0 build/default/production/_ext/1071800814/libaria_widget_button_skin_classic.o
 .mdebug.abi32  0xa00000ec        0x0 build/default/production/_ext/1071800814/libaria_widget_checkbox.o
 .mdebug.abi32  0xa00000ec        0x0 build/default/production/_ext/1071800814/libaria_widget_checkbox_skin_classic.o
 .mdebug.abi32  0xa00000ec        0x0 build/default/production/_ext/1071800814/libaria_widget_circle.o
 .mdebug.abi32  0xa00000ec        0x0 build/default/production/_ext/1071800814/libaria_widget_circle_skin_classic.o
 .mdebug.abi32  0xa00000ec        0x0 build/default/production/_ext/1071800814/libaria_widget_circular_gauge.o
 .mdebug.abi32  0xa00000ec        0x0 build/default/production/_ext/1071800814/libaria_widget_circular_gauge_skin_classic.o
 .mdebug.abi32  0xa00000ec        0x0 build/default/production/_ext/1071800814/libaria_widget_circular_slider.o
 .mdebug.abi32  0xa00000ec        0x0 build/default/production/_ext/1071800814/libaria_widget_circular_slider_skin_classic.o
 .mdebug.abi32  0xa00000ec        0x0 build/default/production/_ext/1071800814/libaria_widget_drawsurface.o
 .mdebug.abi32  0xa00000ec        0x0 build/default/production/_ext/1071800814/libaria_widget_drawsurface_skin_classic.o
 .mdebug.abi32  0xa00000ec        0x0 build/default/production/_ext/1071800814/libaria_widget_gradient.o
 .mdebug.abi32  0xa00000ec        0x0 build/default/production/_ext/1071800814/libaria_widget_gradient_skin_classic.o
 .mdebug.abi32  0xa00000ec        0x0 build/default/production/_ext/1071800814/libaria_widget_groupbox.o
 .mdebug.abi32  0xa00000ec        0x0 build/default/production/_ext/1071800814/libaria_widget_groupbox_skin_classic.o
 .mdebug.abi32  0xa00000ec        0x0 build/default/production/_ext/1071800814/libaria_widget_image.o
 .mdebug.abi32  0xa00000ec        0x0 build/default/production/_ext/1071800814/libaria_widget_image_skin_classic.o
 .mdebug.abi32  0xa00000ec        0x0 build/default/production/_ext/1071800814/libaria_widget_imageplus.o
 .mdebug.abi32  0xa00000ec        0x0 build/default/production/_ext/1071800814/libaria_widget_imageplus_skin_classic.o
 .mdebug.abi32  0xa00000ec        0x0 build/default/production/_ext/1071800814/libaria_widget_imagesequence.o
 .mdebug.abi32  0xa00000ec        0x0 build/default/production/_ext/1071800814/libaria_widget_imagesequence_skin_classic.o
 .mdebug.abi32  0xa00000ec        0x0 build/default/production/_ext/1071800814/libaria_widget_keypad.o
 .mdebug.abi32  0xa00000ec        0x0 build/default/production/_ext/1071800814/libaria_widget_keypad_skin_classic.o
 .mdebug.abi32  0xa00000ec        0x0 build/default/production/_ext/1071800814/libaria_widget_label.o
 .mdebug.abi32  0xa00000ec        0x0 build/default/production/_ext/1071800814/libaria_widget_label_skin_classic.o
 .mdebug.abi32  0xa00000ec        0x0 build/default/production/_ext/1071800814/libaria_widget_line.o
 .mdebug.abi32  0xa00000ec        0x0 build/default/production/_ext/1071800814/libaria_widget_line_skin_classic.o
 .mdebug.abi32  0xa00000ec        0x0 build/default/production/_ext/1071800814/libaria_widget_line_graph.o
 .mdebug.abi32  0xa00000ec        0x0 build/default/production/_ext/1071800814/libaria_widget_line_graph_skin_classic.o
 .mdebug.abi32  0xa00000ec        0x0 build/default/production/_ext/1071800814/libaria_widget_list.o
 .mdebug.abi32  0xa00000ec        0x0 build/default/production/_ext/1071800814/libaria_widget_list_skin_classic.o
 .mdebug.abi32  0xa00000ec        0x0 build/default/production/_ext/1071800814/libaria_widget_listwheel.o
 .mdebug.abi32  0xa00000ec        0x0 build/default/production/_ext/1071800814/libaria_widget_listwheel_skin_classic.o
 .mdebug.abi32  0xa00000ec        0x0 build/default/production/_ext/1071800814/libaria_widget_pie_chart.o
 .mdebug.abi32  0xa00000ec        0x0 build/default/production/_ext/1071800814/libaria_widget_pie_chart_skin_classic.o
 .mdebug.abi32  0xa00000ec        0x0 build/default/production/_ext/1071800814/libaria_widget_progressbar.o
 .mdebug.abi32  0xa00000ec        0x0 build/default/production/_ext/1071800814/libaria_widget_progressbar_skin_classic.o
 .mdebug.abi32  0xa00000ec        0x0 build/default/production/_ext/1071800814/libaria_widget_radial_menu.o
 .mdebug.abi32  0xa00000ec        0x0 build/default/production/_ext/1071800814/libaria_widget_radial_menu_skin_classic.o
 .mdebug.abi32  0xa00000ec        0x0 build/default/production/_ext/1071800814/libaria_widget_radiobutton.o
 .mdebug.abi32  0xa00000ec        0x0 build/default/production/_ext/1071800814/libaria_widget_radiobutton_skin_classic.o
 .mdebug.abi32  0xa00000ec        0x0 build/default/production/_ext/1071800814/libaria_radiobutton_group.o
 .mdebug.abi32  0xa00000ec        0x0 build/default/production/_ext/1071800814/libaria_widget_rectangle.o
 .mdebug.abi32  0xa00000ec        0x0 build/default/production/_ext/1071800814/libaria_widget_rectangle_skin_classic.o
 .mdebug.abi32  0xa00000ec        0x0 build/default/production/_ext/1071800814/libaria_widget_scrollbar.o
 .mdebug.abi32  0xa00000ec        0x0 build/default/production/_ext/1071800814/libaria_widget_scrollbar_skin_classic.o
 .mdebug.abi32  0xa00000ec        0x0 build/default/production/_ext/1071800814/libaria_widget_slider.o
 .mdebug.abi32  0xa00000ec        0x0 build/default/production/_ext/1071800814/libaria_widget_slider_skin_classic.o
 .mdebug.abi32  0xa00000ec        0x0 build/default/production/_ext/1071800814/libaria_widget_textfield.o
 .mdebug.abi32  0xa00000ec        0x0 build/default/production/_ext/1071800814/libaria_widget_textfield_skin_classic.o
 .mdebug.abi32  0xa00000ec        0x0 build/default/production/_ext/1071800814/libaria_widget_touchtest.o
 .mdebug.abi32  0xa00000ec        0x0 build/default/production/_ext/1071800814/libaria_widget_touchtest_skin_classic.o
 .mdebug.abi32  0xa00000ec        0x0 build/default/production/_ext/1071800814/libaria_widget_window.o
 .mdebug.abi32  0xa00000ec        0x0 build/default/production/_ext/1071800814/libaria_widget_window_skin_classic.o
 .mdebug.abi32  0xa00000ec        0x0 build/default/production/_ext/676789875/gfx.o
 .mdebug.abi32  0xa00000ec        0x0 build/default/production/_ext/676789875/gfx_color.o
 .mdebug.abi32  0xa00000ec        0x0 build/default/production/_ext/676789875/gfx_context.o
 .mdebug.abi32  0xa00000ec        0x0 build/default/production/_ext/676789875/gfx_default_impl.o
 .mdebug.abi32  0xa00000ec        0x0 build/default/production/_ext/676789875/gfx_display.o
 .mdebug.abi32  0xa00000ec        0x0 build/default/production/_ext/676789875/gfx_driver_interface.o
 .mdebug.abi32  0xa00000ec        0x0 build/default/production/_ext/676789875/gfx_get.o
 .mdebug.abi32  0xa00000ec        0x0 build/default/production/_ext/676789875/gfx_interface.o
 .mdebug.abi32  0xa00000ec        0x0 build/default/production/_ext/676789875/gfx_layer.o
 .mdebug.abi32  0xa00000ec        0x0 build/default/production/_ext/676789875/gfx_pixel_buffer.o
 .mdebug.abi32  0xa00000ec        0x0 build/default/production/_ext/676789875/gfx_processor_interface.o
 .mdebug.abi32  0xa00000ec        0x0 build/default/production/_ext/676789875/gfx_rect.o
 .mdebug.abi32  0xa00000ec        0x0 build/default/production/_ext/676789875/gfx_util.o
 .mdebug.abi32  0xa00000ec        0x0 build/default/production/_ext/676789875/gfx_set.o
 .mdebug.abi32  0xa00000ec        0x0 build/default/production/_ext/676789875/gfx_color_blend.o
 .mdebug.abi32  0xa00000ec        0x0 build/default/production/_ext/676789875/gfx_color_convert.o
 .mdebug.abi32  0xa00000ec        0x0 build/default/production/_ext/676789875/gfx_color_lerp.o
 .mdebug.abi32  0xa00000ec        0x0 build/default/production/_ext/676789875/gfx_color_value.o
 .mdebug.abi32  0xa00000ec        0x0 build/default/production/_ext/676789875/gfx_draw_arc.o
 .mdebug.abi32  0xa00000ec        0x0 build/default/production/_ext/676789875/gfx_draw_blit.o
 .mdebug.abi32  0xa00000ec        0x0 build/default/production/_ext/676789875/gfx_draw_circle.o
 .mdebug.abi32  0xa00000ec        0x0 build/default/production/_ext/676789875/gfx_draw_ellipse.o
 .mdebug.abi32  0xa00000ec        0x0 build/default/production/_ext/676789875/gfx_draw_line.o
 .mdebug.abi32  0xa00000ec        0x0 build/default/production/_ext/676789875/gfx_draw_pixel.o
 .mdebug.abi32  0xa00000ec        0x0 build/default/production/_ext/676789875/gfx_draw_rect.o
 .mdebug.abi32  0xa00000ec        0x0 build/default/production/_ext/676789875/gfx_draw_stretchblit.o
 .mdebug.abi32  0xa00000ec        0x0 build/default/production/_ext/676789875/gfx_math.o
 .mdebug.abi32  0xa00000ec        0x0 build/default/production/_ext/231205469/sys_int_pic32.o
 .mdebug.abi32  0xa00000ec        0x0 build/default/production/_ext/664138601/drv_pmp_static.o
 .mdebug.abi32  0xa00000ec        0x0 build/default/production/_ext/347121368/drv_gfx_ssd1926.o
 .mdebug.abi32  0xa00000ec        0x0 build/default/production/_ext/1689523328/drv_gfx_ssd1289.o
 .mdebug.abi32  0xa00000ec        0x0 build/default/production/_ext/458109090/libaria_harmony.o
 .mdebug.abi32  0xa00000ec        0x0 build/default/production/_ext/458109090/libaria_init.o
 .mdebug.abi32  0xa00000ec        0x0 build/default/production/_ext/458109090/libaria_events.o
 .mdebug.abi32  0xa00000ec        0x0 build/default/production/_ext/458109090/libaria_macros.o
 .mdebug.abi32  0xa00000ec        0x0 build/default/production/_ext/2065038297/gfx_display_def.o
 .mdebug.abi32  0xa00000ec        0x0 build/default/production/_ext/2065038297/gfx_driver_def.o
 .mdebug.abi32  0xa00000ec        0x0 build/default/production/_ext/2065038297/gfx_processor_def.o
 .mdebug.abi32  0xa00000ec        0x0 build/default/production/_ext/639803181/sys_clk_pic32mx.o
 .mdebug.abi32  0xa00000ec        0x0 build/default/production/_ext/340578644/sys_devcon.o
 .mdebug.abi32  0xa00000ec        0x0 build/default/production/_ext/340578644/sys_devcon_pic32mx.o
 .mdebug.abi32  0xa00000ec        0x0 build/default/production/_ext/822048611/sys_ports_static.o
 .mdebug.abi32  0xa00000ec        0x0 build/default/production/_ext/74298950/bsp.o
 .mdebug.abi32  0xa00000ec        0x0 build/default/production/_ext/1688732426/system_init.o
 .mdebug.abi32  0xa00000ec        0x0 build/default/production/_ext/1688732426/system_interrupt.o
 .mdebug.abi32  0xa00000ec        0x0 build/default/production/_ext/1688732426/system_exceptions.o
 .mdebug.abi32  0xa00000ec        0x0 build/default/production/_ext/1688732426/system_tasks.o
 .mdebug.abi32  0xa00000ec        0x0 c:/program files (x86)/microchip/xc32/v2.30/bin/bin/../../lib/gcc/pic32mx/4.8.3\libgcc.a(floatunsisf.o)
 .mdebug.abi32  0xa00000ec        0x0 c:/program files (x86)/microchip/xc32/v2.30/bin/bin/../../lib/gcc/pic32mx/4.8.3/../../../../pic32mx/lib\libpic32.a(default-bootstrap-exception-handler.o)
 .mdebug.abi32  0xa00000ec        0x0 c:/program files (x86)/microchip/xc32/v2.30/bin/bin/../../lib/gcc/pic32mx/4.8.3/../../../../pic32mx/lib\libpic32.a(default-on-reset.o)
 .mdebug.abi32  0xa00000ec        0x0 c:/program files (x86)/microchip/xc32/v2.30/bin/bin/../../lib/gcc/pic32mx/4.8.3/../../../../pic32mx/lib\libpic32.a(default-on-bootstrap.o)
 .mdebug.abi32  0xa00000ec        0x0 c:/program files (x86)/microchip/xc32/v2.30/bin/bin/../../lib/gcc/pic32mx/4.8.3/../../../../pic32mx/lib\libpic32.a(defaultinterrupt.o)
 .mdebug.abi32  0xa00000ec        0x0 c:/program files (x86)/microchip/xc32/v2.30/bin/bin/../../lib/gcc/pic32mx/4.8.3/../../../../pic32mx/lib\libc.a(fassert.o)
 .mdebug.abi32  0xa00000ec        0x0 c:/program files (x86)/microchip/xc32/v2.30/bin/bin/../../lib/gcc/pic32mx/4.8.3/../../../../pic32mx/lib\libc.a(calloc.o)
 .mdebug.abi32  0xa00000ec        0x0 c:/program files (x86)/microchip/xc32/v2.30/bin/bin/../../lib/gcc/pic32mx/4.8.3/../../../../pic32mx/lib\libc.a(malloc.o)
 .mdebug.abi32  0xa00000ec        0x0 c:/program files (x86)/microchip/xc32/v2.30/bin/bin/../../lib/gcc/pic32mx/4.8.3/../../../../pic32mx/lib\libc.a(signal.o)
 .mdebug.abi32  0xa00000ec        0x0 c:/program files (x86)/microchip/xc32/v2.30/bin/bin/../../lib/gcc/pic32mx/4.8.3/../../../../pic32mx/lib\libc.a(exit.o)
 .mdebug.abi32  0xa00000ec        0x0 c:/program files (x86)/microchip/xc32/v2.30/bin/bin/../../lib/gcc/pic32mx/4.8.3/../../../../pic32mx/lib\libc.a(stdclean_simple.o)
 .mdebug.abi32  0xa00000ec        0x0 c:/program files (x86)/microchip/xc32/v2.30/bin/bin/../../lib/gcc/pic32mx/4.8.3/../../../../pic32mx/lib\libc.a(fprintf_cdnopsuxX.eo)
 .mdebug.abi32  0xa00000ec        0x0 c:/program files (x86)/microchip/xc32/v2.30/bin/bin/../../lib/gcc/pic32mx/4.8.3/../../../../pic32mx/lib\libc.a(sprintf_cdnopuxX.eo)
 .mdebug.abi32  0xa00000ec        0x0 c:/program files (x86)/microchip/xc32/v2.30/bin/bin/../../lib/gcc/pic32mx/4.8.3/../../../../pic32mx/lib\libc.a(_iob.o)
 .mdebug.abi32  0xa00000ec        0x0 c:/program files (x86)/microchip/xc32/v2.30/bin/bin/../../lib/gcc/pic32mx/4.8.3/../../../../pic32mx/lib\libc.a(doprnt_cdnopsuxX.eo)
 .mdebug.abi32  0xa00000ec        0x0 c:/program files (x86)/microchip/xc32/v2.30/bin/bin/../../lib/gcc/pic32mx/4.8.3/../../../../pic32mx/lib\libc.a(_fputc_simple.o)
 .mdebug.abi32  0xa00000ec        0x0 c:/program files (x86)/microchip/xc32/v2.30/bin/bin/../../lib/gcc/pic32mx/4.8.3/../../../../pic32mx/lib\libc.a(ctype.o)
 .mdebug.abi32  0xa00000ec        0x0 c:/program files (x86)/microchip/xc32/v2.30/bin/bin/../../lib/gcc/pic32mx/4.8.3/../../../../pic32mx/lib\libc.a(_flsbuf_simple.o)
 .mdebug.abi32  0xa00000ec        0x0 c:/program files (x86)/microchip/xc32/v2.30/bin/bin/../../lib/gcc/pic32mx/4.8.3\libgcc.a(_udivdi3.o)
 .mdebug.abi32  0xa00000ec        0x0 c:/program files (x86)/microchip/xc32/v2.30/bin/bin/../../lib/gcc/pic32mx/4.8.3\libgcc.a(_umoddi3.o)
 .mdebug.abi32  0xa00000ec        0x0 c:/program files (x86)/microchip/xc32/v2.30/bin/bin/../../lib/gcc/pic32mx/4.8.3/../../../../pic32mx/lib\libpic32.a(sbrk.o)
 .mdebug.abi32  0xa00000ec        0x0 c:/program files (x86)/microchip/xc32/v2.30/bin/bin/../../lib/gcc/pic32mx/4.8.3/../../../../pic32mx/lib\libpic32.a(write.o)
 .mdebug.abi32  0xa00000ec        0x0 c:/program files (x86)/microchip/xc32/v2.30/bin/bin/../../lib/gcc/pic32mx/4.8.3/../../../../pic32mx/lib\libpic32.a(errno.o)
 .mdebug.abi32  0xa00000ec        0x0 c:/program files (x86)/microchip/xc32/v2.30/bin/bin/../../lib/gcc/pic32mx/4.8.3/../../../../pic32mx/lib\libpic32.a(_mon_putc.o)
 .mdebug.abi32  0xa00000ec        0x0 c:/program files (x86)/microchip/xc32/v2.30/bin/bin/../../lib/gcc/pic32mx/4.8.3/../../../../pic32mx/lib\libpic32.a(xc32_uart.o)

.mdebug.abiN32
 *(.mdebug.abiN32)

.mdebug.abi64
 *(.mdebug.abi64)

.mdebug.abiO64
 *(.mdebug.abiO64)

.mdebug.eabi32
 *(.mdebug.eabi32)

.mdebug.eabi64
 *(.mdebug.eabi64)

.gcc_compiled_long32
 *(.gcc_compiled_long32)

.gcc_compiled_long64
 *(.gcc_compiled_long64)

.stab
 *(.stab)

.stabstr
 *(.stabstr)

.stab.excl
 *(.stab.excl)

.stab.exclstr
 *(.stab.exclstr)

.stab.index
 *(.stab.index)

.stab.indexstr
 *(.stab.indexstr)

.comment        0x00000000      0x106
 *(.comment)
 .comment       0x00000000       0x3c build/default/production/_ext/1360937237/app.o
                                 0x3d (size before relaxing)
 .comment       0x00000000       0x3d build/default/production/_ext/1360937237/main.o
 .comment       0x00000000       0x3d build/default/production/_ext/658260392/jidctint.o
 .comment       0x00000000       0x3d build/default/production/_ext/1963452113/gfxu_image_jpg_common.o
 .comment       0x00000000       0x3d build/default/production/_ext/1963452113/gfxu_image_jpg_internal.o
 .comment       0x00000000       0x3d build/default/production/_ext/1963452113/gfxu_image_jpg_external.o
 .comment       0x00000000       0x3d build/default/production/_ext/1963452113/gfxu_image_png_external.o
 .comment       0x00000000       0x3d build/default/production/_ext/1963452113/gfxu_image_png_internal.o
 .comment       0x00000000       0x3d build/default/production/_ext/308360523/lodepng.o
 .comment       0x00000000       0x3d build/default/production/_ext/1963452113/gfxu_image.o
 .comment       0x00000000       0x3d build/default/production/_ext/1963452113/gfxu_image_raw_external.o
 .comment       0x00000000       0x3d build/default/production/_ext/1963452113/gfxu_image_raw_internal.o
 .comment       0x00000000       0x3d build/default/production/_ext/1963452113/gfxu_image_rle_external.o
 .comment       0x00000000       0x3d build/default/production/_ext/1963452113/gfxu_image_rle_internal.o
 .comment       0x00000000       0x3d build/default/production/_ext/1963452113/gfxu_image_utils.o
 .comment       0x00000000       0x3d build/default/production/_ext/1963452113/gfxu_palette.o
 .comment       0x00000000       0x3d build/default/production/_ext/1963452113/gfxu_string.o
 .comment       0x00000000       0x3d build/default/production/_ext/1963452113/gfxu_string_external.o
 .comment       0x00000000       0x3d build/default/production/_ext/1963452113/gfxu_stringbuffer_external.o
 .comment       0x00000000       0x3d build/default/production/_ext/1963452113/gfxu_string_internal.o
 .comment       0x00000000       0x3d build/default/production/_ext/1963452113/gfxu_string_query.o
 .comment       0x00000000       0x3d build/default/production/_ext/1963452113/gfxu_string_utils.o
 .comment       0x00000000       0x3d build/default/production/_ext/1071800814/libaria.o
 .comment       0x00000000       0x3d build/default/production/_ext/1071800814/libaria_array.o
 .comment       0x00000000       0x3d build/default/production/_ext/1071800814/libaria_context.o
 .comment       0x00000000       0x3d build/default/production/_ext/1071800814/libaria_context_paint.o
 .comment       0x00000000       0x3d build/default/production/_ext/1071800814/libaria_draw.o
 .comment       0x00000000       0x3d build/default/production/_ext/1071800814/libaria_editwidget.o
 .comment       0x00000000       0x3d build/default/production/_ext/1071800814/libaria_event.o
 .comment       0x00000000       0x3d build/default/production/_ext/1071800814/libaria_input.o
 .comment       0x00000000       0x3d build/default/production/_ext/1071800814/libaria_layer.o
 .comment       0x00000000       0x3d build/default/production/_ext/1071800814/libaria_list.o
 .comment       0x00000000       0x3d build/default/production/_ext/1071800814/libaria_rectarray.o
 .comment       0x00000000       0x3d build/default/production/_ext/1071800814/libaria_scheme.o
 .comment       0x00000000       0x3d build/default/production/_ext/1071800814/libaria_screen.o
 .comment       0x00000000       0x3d build/default/production/_ext/1071800814/libaria_string.o
 .comment       0x00000000       0x3d build/default/production/_ext/1071800814/libaria_utils.o
 .comment       0x00000000       0x3d build/default/production/_ext/1071800814/libaria_widget.o
 .comment       0x00000000       0x3d build/default/production/_ext/1071800814/libaria_widget_skin_classic.o
 .comment       0x00000000       0x3d build/default/production/_ext/1071800814/libaria_widget_skin_classic_common.o
 .comment       0x00000000       0x3d build/default/production/_ext/1071800814/libaria_widget_arc.o
 .comment       0x00000000       0x3d build/default/production/_ext/1071800814/libaria_widget_arc_skin_classic.o
 .comment       0x00000000       0x3d build/default/production/_ext/1071800814/libaria_widget_bar_graph.o
 .comment       0x00000000       0x3d build/default/production/_ext/1071800814/libaria_widget_bar_graph_skin_classic.o
 .comment       0x00000000       0x3d build/default/production/_ext/1071800814/libaria_widget_button.o
 .comment       0x00000000       0x3d build/default/production/_ext/1071800814/libaria_widget_button_skin_classic.o
 .comment       0x00000000       0x3d build/default/production/_ext/1071800814/libaria_widget_checkbox.o
 .comment       0x00000000       0x3d build/default/production/_ext/1071800814/libaria_widget_checkbox_skin_classic.o
 .comment       0x00000000       0x3d build/default/production/_ext/1071800814/libaria_widget_circle.o
 .comment       0x00000000       0x3d build/default/production/_ext/1071800814/libaria_widget_circle_skin_classic.o
 .comment       0x00000000       0x3d build/default/production/_ext/1071800814/libaria_widget_circular_gauge.o
 .comment       0x00000000       0x3d build/default/production/_ext/1071800814/libaria_widget_circular_gauge_skin_classic.o
 .comment       0x00000000       0x3d build/default/production/_ext/1071800814/libaria_widget_circular_slider.o
 .comment       0x00000000       0x3d build/default/production/_ext/1071800814/libaria_widget_circular_slider_skin_classic.o
 .comment       0x00000000       0x3d build/default/production/_ext/1071800814/libaria_widget_drawsurface.o
 .comment       0x00000000       0x3d build/default/production/_ext/1071800814/libaria_widget_drawsurface_skin_classic.o
 .comment       0x00000000       0x3d build/default/production/_ext/1071800814/libaria_widget_gradient.o
 .comment       0x00000000       0x3d build/default/production/_ext/1071800814/libaria_widget_gradient_skin_classic.o
 .comment       0x00000000       0x3d build/default/production/_ext/1071800814/libaria_widget_groupbox.o
 .comment       0x00000000       0x3d build/default/production/_ext/1071800814/libaria_widget_groupbox_skin_classic.o
 .comment       0x00000000       0x3d build/default/production/_ext/1071800814/libaria_widget_image.o
 .comment       0x00000000       0x3d build/default/production/_ext/1071800814/libaria_widget_image_skin_classic.o
 .comment       0x00000000       0x3d build/default/production/_ext/1071800814/libaria_widget_imageplus.o
 .comment       0x00000000       0x3d build/default/production/_ext/1071800814/libaria_widget_imageplus_skin_classic.o
 .comment       0x00000000       0x3d build/default/production/_ext/1071800814/libaria_widget_imagesequence.o
 .comment       0x00000000       0x3d build/default/production/_ext/1071800814/libaria_widget_imagesequence_skin_classic.o
 .comment       0x00000000       0x3d build/default/production/_ext/1071800814/libaria_widget_keypad.o
 .comment       0x00000000       0x3d build/default/production/_ext/1071800814/libaria_widget_keypad_skin_classic.o
 .comment       0x00000000       0x3d build/default/production/_ext/1071800814/libaria_widget_label.o
 .comment       0x00000000       0x3d build/default/production/_ext/1071800814/libaria_widget_label_skin_classic.o
 .comment       0x00000000       0x3d build/default/production/_ext/1071800814/libaria_widget_line.o
 .comment       0x00000000       0x3d build/default/production/_ext/1071800814/libaria_widget_line_skin_classic.o
 .comment       0x00000000       0x3d build/default/production/_ext/1071800814/libaria_widget_line_graph.o
 .comment       0x00000000       0x3d build/default/production/_ext/1071800814/libaria_widget_line_graph_skin_classic.o
 .comment       0x00000000       0x3d build/default/production/_ext/1071800814/libaria_widget_list.o
 .comment       0x00000000       0x3d build/default/production/_ext/1071800814/libaria_widget_list_skin_classic.o
 .comment       0x00000000       0x3d build/default/production/_ext/1071800814/libaria_widget_listwheel.o
 .comment       0x00000000       0x3d build/default/production/_ext/1071800814/libaria_widget_listwheel_skin_classic.o
 .comment       0x00000000       0x3d build/default/production/_ext/1071800814/libaria_widget_pie_chart.o
 .comment       0x00000000       0x3d build/default/production/_ext/1071800814/libaria_widget_pie_chart_skin_classic.o
 .comment       0x00000000       0x3d build/default/production/_ext/1071800814/libaria_widget_progressbar.o
 .comment       0x00000000       0x3d build/default/production/_ext/1071800814/libaria_widget_progressbar_skin_classic.o
 .comment       0x00000000       0x3d build/default/production/_ext/1071800814/libaria_widget_radial_menu.o
 .comment       0x00000000       0x3d build/default/production/_ext/1071800814/libaria_widget_radial_menu_skin_classic.o
 .comment       0x00000000       0x3d build/default/production/_ext/1071800814/libaria_widget_radiobutton.o
 .comment       0x00000000       0x3d build/default/production/_ext/1071800814/libaria_widget_radiobutton_skin_classic.o
 .comment       0x00000000       0x3d build/default/production/_ext/1071800814/libaria_radiobutton_group.o
 .comment       0x00000000       0x3d build/default/production/_ext/1071800814/libaria_widget_rectangle.o
 .comment       0x00000000       0x3d build/default/production/_ext/1071800814/libaria_widget_rectangle_skin_classic.o
 .comment       0x00000000       0x3d build/default/production/_ext/1071800814/libaria_widget_scrollbar.o
 .comment       0x00000000       0x3d build/default/production/_ext/1071800814/libaria_widget_scrollbar_skin_classic.o
 .comment       0x00000000       0x3d build/default/production/_ext/1071800814/libaria_widget_slider.o
 .comment       0x00000000       0x3d build/default/production/_ext/1071800814/libaria_widget_slider_skin_classic.o
 .comment       0x00000000       0x3d build/default/production/_ext/1071800814/libaria_widget_textfield.o
 .comment       0x00000000       0x3d build/default/production/_ext/1071800814/libaria_widget_textfield_skin_classic.o
 .comment       0x00000000       0x3d build/default/production/_ext/1071800814/libaria_widget_touchtest.o
 .comment       0x00000000       0x3d build/default/production/_ext/1071800814/libaria_widget_touchtest_skin_classic.o
 .comment       0x00000000       0x3d build/default/production/_ext/1071800814/libaria_widget_window.o
 .comment       0x00000000       0x3d build/default/production/_ext/1071800814/libaria_widget_window_skin_classic.o
 .comment       0x00000000       0x3d build/default/production/_ext/676789875/gfx.o
 .comment       0x00000000       0x3d build/default/production/_ext/676789875/gfx_color.o
 .comment       0x00000000       0x3d build/default/production/_ext/676789875/gfx_context.o
 .comment       0x00000000       0x3d build/default/production/_ext/676789875/gfx_default_impl.o
 .comment       0x00000000       0x3d build/default/production/_ext/676789875/gfx_display.o
 .comment       0x00000000       0x3d build/default/production/_ext/676789875/gfx_driver_interface.o
 .comment       0x00000000       0x3d build/default/production/_ext/676789875/gfx_get.o
 .comment       0x00000000       0x3d build/default/production/_ext/676789875/gfx_interface.o
 .comment       0x00000000       0x3d build/default/production/_ext/676789875/gfx_layer.o
 .comment       0x00000000       0x3d build/default/production/_ext/676789875/gfx_pixel_buffer.o
 .comment       0x00000000       0x3d build/default/production/_ext/676789875/gfx_processor_interface.o
 .comment       0x00000000       0x3d build/default/production/_ext/676789875/gfx_rect.o
 .comment       0x00000000       0x3d build/default/production/_ext/676789875/gfx_util.o
 .comment       0x00000000       0x3d build/default/production/_ext/676789875/gfx_set.o
 .comment       0x00000000       0x3d build/default/production/_ext/676789875/gfx_color_blend.o
 .comment       0x00000000       0x3d build/default/production/_ext/676789875/gfx_color_convert.o
 .comment       0x00000000       0x3d build/default/production/_ext/676789875/gfx_color_lerp.o
 .comment       0x00000000       0x3d build/default/production/_ext/676789875/gfx_color_value.o
 .comment       0x00000000       0x3d build/default/production/_ext/676789875/gfx_draw_arc.o
 .comment       0x00000000       0x3d build/default/production/_ext/676789875/gfx_draw_blit.o
 .comment       0x00000000       0x3d build/default/production/_ext/676789875/gfx_draw_circle.o
 .comment       0x00000000       0x3d build/default/production/_ext/676789875/gfx_draw_ellipse.o
 .comment       0x00000000       0x3d build/default/production/_ext/676789875/gfx_draw_line.o
 .comment       0x00000000       0x3d build/default/production/_ext/676789875/gfx_draw_pixel.o
 .comment       0x00000000       0x3d build/default/production/_ext/676789875/gfx_draw_rect.o
 .comment       0x00000000       0x3d build/default/production/_ext/676789875/gfx_draw_stretchblit.o
 .comment       0x00000000       0x3d build/default/production/_ext/676789875/gfx_math.o
 .comment       0x00000000       0x3d build/default/production/_ext/231205469/sys_int_pic32.o
 .comment       0x00000000       0x3d build/default/production/_ext/664138601/drv_pmp_static.o
 .comment       0x00000000       0x3d build/default/production/_ext/347121368/drv_gfx_ssd1926.o
 .comment       0x00000000       0x3d build/default/production/_ext/1689523328/drv_gfx_ssd1289.o
 .comment       0x00000000       0x3d build/default/production/_ext/458109090/libaria_harmony.o
 .comment       0x00000000       0x3d build/default/production/_ext/458109090/libaria_init.o
 .comment       0x00000000       0x3d build/default/production/_ext/458109090/libaria_events.o
 .comment       0x00000000       0x3d build/default/production/_ext/458109090/libaria_macros.o
 .comment       0x00000000       0x3d build/default/production/_ext/2065038297/gfx_display_def.o
 .comment       0x00000000       0x3d build/default/production/_ext/2065038297/gfx_driver_def.o
 .comment       0x00000000       0x3d build/default/production/_ext/2065038297/gfx_processor_def.o
 .comment       0x00000000       0x3d build/default/production/_ext/639803181/sys_clk_pic32mx.o
 .comment       0x00000000       0x3d build/default/production/_ext/340578644/sys_devcon.o
 .comment       0x00000000       0x3d build/default/production/_ext/340578644/sys_devcon_pic32mx.o
 .comment       0x00000000       0x3d build/default/production/_ext/822048611/sys_ports_static.o
 .comment       0x00000000       0x3d build/default/production/_ext/74298950/bsp.o
 .comment       0x00000000       0x3d build/default/production/_ext/1688732426/system_init.o
 .comment       0x00000000       0x3d build/default/production/_ext/1688732426/system_interrupt.o
 .comment       0x00000000       0x3d build/default/production/_ext/1688732426/system_exceptions.o
 .comment       0x00000000       0x3d build/default/production/_ext/1688732426/system_tasks.o
 .comment       0x00000000       0x3d c:/program files (x86)/microchip/xc32/v2.30/bin/bin/../../lib/gcc/pic32mx/4.8.3\libgcc.a(floatunsisf.o)
 .comment       0x0000003c       0x18 c:/program files (x86)/microchip/xc32/v2.30/bin/bin/../../lib/gcc/pic32mx/4.8.3/../../../../pic32mx/lib\libpic32.a(memset.o)
                                 0x19 (size before relaxing)
 .comment       0x00000054       0x19 c:/program files (x86)/microchip/xc32/v2.30/bin/bin/../../lib/gcc/pic32mx/4.8.3/../../../../pic32mx/lib\libpic32.a(strcpy.o)
                                 0x1a (size before relaxing)
 .comment       0x00000000       0x3d c:/program files (x86)/microchip/xc32/v2.30/bin/bin/../../lib/gcc/pic32mx/4.8.3/../../../../pic32mx/lib\libpic32.a(default-bootstrap-exception-handler.o)
 .comment       0x00000000       0x3d c:/program files (x86)/microchip/xc32/v2.30/bin/bin/../../lib/gcc/pic32mx/4.8.3/../../../../pic32mx/lib\libpic32.a(default-on-reset.o)
 .comment       0x00000000       0x3d c:/program files (x86)/microchip/xc32/v2.30/bin/bin/../../lib/gcc/pic32mx/4.8.3/../../../../pic32mx/lib\libpic32.a(default-on-bootstrap.o)
 .comment       0x00000000       0x3d c:/program files (x86)/microchip/xc32/v2.30/bin/bin/../../lib/gcc/pic32mx/4.8.3/../../../../pic32mx/lib\libpic32.a(defaultinterrupt.o)
 .comment       0x00000000       0x3d c:/program files (x86)/microchip/xc32/v2.30/bin/bin/../../lib/gcc/pic32mx/4.8.3/../../../../pic32mx/lib\libc.a(fassert.o)
 .comment       0x00000000       0x3d c:/program files (x86)/microchip/xc32/v2.30/bin/bin/../../lib/gcc/pic32mx/4.8.3/../../../../pic32mx/lib\libc.a(calloc.o)
 .comment       0x00000000       0x3d c:/program files (x86)/microchip/xc32/v2.30/bin/bin/../../lib/gcc/pic32mx/4.8.3/../../../../pic32mx/lib\libc.a(malloc.o)
 .comment       0x00000000       0x3d c:/program files (x86)/microchip/xc32/v2.30/bin/bin/../../lib/gcc/pic32mx/4.8.3/../../../../pic32mx/lib\libc.a(signal.o)
 .comment       0x00000000       0x3d c:/program files (x86)/microchip/xc32/v2.30/bin/bin/../../lib/gcc/pic32mx/4.8.3/../../../../pic32mx/lib\libc.a(exit.o)
 .comment       0x00000000       0x3d c:/program files (x86)/microchip/xc32/v2.30/bin/bin/../../lib/gcc/pic32mx/4.8.3/../../../../pic32mx/lib\libc.a(stdclean_simple.o)
 .comment       0x00000000       0x3d c:/program files (x86)/microchip/xc32/v2.30/bin/bin/../../lib/gcc/pic32mx/4.8.3/../../../../pic32mx/lib\libc.a(fprintf_cdnopsuxX.eo)
 .comment       0x00000000       0x3d c:/program files (x86)/microchip/xc32/v2.30/bin/bin/../../lib/gcc/pic32mx/4.8.3/../../../../pic32mx/lib\libc.a(sprintf_cdnopuxX.eo)
 .comment       0x00000000       0x3d c:/program files (x86)/microchip/xc32/v2.30/bin/bin/../../lib/gcc/pic32mx/4.8.3/../../../../pic32mx/lib\libc.a(_iob.o)
 .comment       0x00000000       0x3d c:/program files (x86)/microchip/xc32/v2.30/bin/bin/../../lib/gcc/pic32mx/4.8.3/../../../../pic32mx/lib\libc.a(doprnt_cdnopsuxX.eo)
 .comment       0x00000000       0x3d c:/program files (x86)/microchip/xc32/v2.30/bin/bin/../../lib/gcc/pic32mx/4.8.3/../../../../pic32mx/lib\libc.a(_fputc_simple.o)
 .comment       0x0000006d       0x4e c:/program files (x86)/microchip/xc32/v2.30/bin/bin/../../lib/gcc/pic32mx/4.8.3/../../../../pic32mx/lib\libc.a(ctype.o)
                                 0x8b (size before relaxing)
 .comment       0x00000000       0x3d c:/program files (x86)/microchip/xc32/v2.30/bin/bin/../../lib/gcc/pic32mx/4.8.3/../../../../pic32mx/lib\libc.a(_flsbuf_simple.o)
 .comment       0x00000000       0x3d c:/program files (x86)/microchip/xc32/v2.30/bin/bin/../../lib/gcc/pic32mx/4.8.3\libgcc.a(_udivdi3.o)
 .comment       0x00000000       0x3d c:/program files (x86)/microchip/xc32/v2.30/bin/bin/../../lib/gcc/pic32mx/4.8.3\libgcc.a(_umoddi3.o)
 .comment       0x000000bb       0x4b c:/program files (x86)/microchip/xc32/v2.30/bin/bin/../../lib/gcc/pic32mx/4.8.3/../../../../pic32mx/lib\libpic32.a(sbrk.o)
                                 0x88 (size before relaxing)
 .comment       0x00000000       0x3d c:/program files (x86)/microchip/xc32/v2.30/bin/bin/../../lib/gcc/pic32mx/4.8.3/../../../../pic32mx/lib\libpic32.a(write.o)
 .comment       0x00000000       0x3d c:/program files (x86)/microchip/xc32/v2.30/bin/bin/../../lib/gcc/pic32mx/4.8.3/../../../../pic32mx/lib\libpic32.a(errno.o)
 .comment       0x00000000       0x3d c:/program files (x86)/microchip/xc32/v2.30/bin/bin/../../lib/gcc/pic32mx/4.8.3/../../../../pic32mx/lib\libpic32.a(_mon_putc.o)
 .comment       0x00000000       0x3d c:/program files (x86)/microchip/xc32/v2.30/bin/bin/../../lib/gcc/pic32mx/4.8.3/../../../../pic32mx/lib\libpic32.a(xc32_uart.o)

.debug
 *(.debug)

.line
 *(.line)

.debug_srcinfo
 *(.debug_srcinfo)

.debug_sfnames
 *(.debug_sfnames)

.debug_aranges  0x00000000     0x50c8
 *(.debug_aranges)
 .debug_aranges
                0x00000000       0x28 build/default/production/_ext/1360937237/app.o
 .debug_aranges
                0x00000028       0x20 build/default/production/_ext/1360937237/main.o
 .debug_aranges
                0x00000048       0x20 build/default/production/_ext/658260392/jidctint.o
 .debug_aranges
                0x00000068       0x80 build/default/production/_ext/1963452113/gfxu_image_jpg_common.o
 .debug_aranges
                0x000000e8       0x28 build/default/production/_ext/1963452113/gfxu_image_jpg_internal.o
 .debug_aranges
                0x00000110       0x28 build/default/production/_ext/1963452113/gfxu_image_jpg_external.o
 .debug_aranges
                0x00000138       0x20 build/default/production/_ext/1963452113/gfxu_image_png_external.o
 .debug_aranges
                0x00000158       0x38 build/default/production/_ext/1963452113/gfxu_image_png_internal.o
 .debug_aranges
                0x00000190      0x3f0 build/default/production/_ext/308360523/lodepng.o
 .debug_aranges
                0x00000580       0x28 build/default/production/_ext/1963452113/gfxu_image.o
 .debug_aranges
                0x000005a8       0x38 build/default/production/_ext/1963452113/gfxu_image_raw_external.o
 .debug_aranges
                0x000005e0       0x20 build/default/production/_ext/1963452113/gfxu_image_raw_internal.o
 .debug_aranges
                0x00000600       0x48 build/default/production/_ext/1963452113/gfxu_image_rle_external.o
 .debug_aranges
                0x00000648       0x20 build/default/production/_ext/1963452113/gfxu_image_rle_internal.o
 .debug_aranges
                0x00000668       0x88 build/default/production/_ext/1963452113/gfxu_image_utils.o
 .debug_aranges
                0x000006f0       0x20 build/default/production/_ext/1963452113/gfxu_palette.o
 .debug_aranges
                0x00000710       0x48 build/default/production/_ext/1963452113/gfxu_string.o
 .debug_aranges
                0x00000758       0x38 build/default/production/_ext/1963452113/gfxu_string_external.o
 .debug_aranges
                0x00000790       0x38 build/default/production/_ext/1963452113/gfxu_stringbuffer_external.o
 .debug_aranges
                0x000007c8       0x38 build/default/production/_ext/1963452113/gfxu_string_internal.o
 .debug_aranges
                0x00000800       0x80 build/default/production/_ext/1963452113/gfxu_string_query.o
 .debug_aranges
                0x00000880       0xc0 build/default/production/_ext/1963452113/gfxu_string_utils.o
 .debug_aranges
                0x00000940       0x30 build/default/production/_ext/1071800814/libaria.o
 .debug_aranges
                0x00000970       0xa0 build/default/production/_ext/1071800814/libaria_array.o
 .debug_aranges
                0x00000a10      0x118 build/default/production/_ext/1071800814/libaria_context.o
 .debug_aranges
                0x00000b28       0x38 build/default/production/_ext/1071800814/libaria_context_paint.o
 .debug_aranges
                0x00000b60       0x38 build/default/production/_ext/1071800814/libaria_draw.o
 .debug_aranges
                0x00000b98       0x98 build/default/production/_ext/1071800814/libaria_editwidget.o
 .debug_aranges
                0x00000c30       0x40 build/default/production/_ext/1071800814/libaria_event.o
 .debug_aranges
                0x00000c70       0x68 build/default/production/_ext/1071800814/libaria_input.o
 .debug_aranges
                0x00000cd8      0x120 build/default/production/_ext/1071800814/libaria_layer.o
 .debug_aranges
                0x00000df8       0x80 build/default/production/_ext/1071800814/libaria_list.o
 .debug_aranges
                0x00000e78       0xa0 build/default/production/_ext/1071800814/libaria_rectarray.o
 .debug_aranges
                0x00000f18       0x20 build/default/production/_ext/1071800814/libaria_scheme.o
 .debug_aranges
                0x00000f38       0xa0 build/default/production/_ext/1071800814/libaria_screen.o
 .debug_aranges
                0x00000fd8      0x148 build/default/production/_ext/1071800814/libaria_string.o
 .debug_aranges
                0x00001120      0x118 build/default/production/_ext/1071800814/libaria_utils.o
 .debug_aranges
                0x00001238      0x250 build/default/production/_ext/1071800814/libaria_widget.o
 .debug_aranges
                0x00001488       0x30 build/default/production/_ext/1071800814/libaria_widget_skin_classic.o
 .debug_aranges
                0x000014b8       0xd8 build/default/production/_ext/1071800814/libaria_widget_skin_classic_common.o
 .debug_aranges
                0x00001590       0x80 build/default/production/_ext/1071800814/libaria_widget_arc.o
 .debug_aranges
                0x00001610       0x48 build/default/production/_ext/1071800814/libaria_widget_arc_skin_classic.o
 .debug_aranges
                0x00001658      0x188 build/default/production/_ext/1071800814/libaria_widget_bar_graph.o
 .debug_aranges
                0x000017e0       0x60 build/default/production/_ext/1071800814/libaria_widget_bar_graph_skin_classic.o
 .debug_aranges
                0x00001840      0x118 build/default/production/_ext/1071800814/libaria_widget_button.o
 .debug_aranges
                0x00001958       0x70 build/default/production/_ext/1071800814/libaria_widget_button_skin_classic.o
 .debug_aranges
                0x000019c8      0x108 build/default/production/_ext/1071800814/libaria_widget_checkbox.o
 .debug_aranges
                0x00001ad0       0x68 build/default/production/_ext/1071800814/libaria_widget_checkbox_skin_classic.o
 .debug_aranges
                0x00001b38       0x50 build/default/production/_ext/1071800814/libaria_widget_circle.o
 .debug_aranges
                0x00001b88       0x40 build/default/production/_ext/1071800814/libaria_widget_circle_skin_classic.o
 .debug_aranges
                0x00001bc8      0x180 build/default/production/_ext/1071800814/libaria_widget_circular_gauge.o
 .debug_aranges
                0x00001d48       0x50 build/default/production/_ext/1071800814/libaria_widget_circular_gauge_skin_classic.o
 .debug_aranges
                0x00001d98      0x140 build/default/production/_ext/1071800814/libaria_widget_circular_slider.o
 .debug_aranges
                0x00001ed8       0x40 build/default/production/_ext/1071800814/libaria_widget_circular_slider_skin_classic.o
 .debug_aranges
                0x00001f18       0x40 build/default/production/_ext/1071800814/libaria_widget_drawsurface.o
 .debug_aranges
                0x00001f58       0x40 build/default/production/_ext/1071800814/libaria_widget_drawsurface_skin_classic.o
 .debug_aranges
                0x00001f98       0x40 build/default/production/_ext/1071800814/libaria_widget_gradient.o
 .debug_aranges
                0x00001fd8       0x38 build/default/production/_ext/1071800814/libaria_widget_gradient_skin_classic.o
 .debug_aranges
                0x00002010       0x58 build/default/production/_ext/1071800814/libaria_widget_groupbox.o
 .debug_aranges
                0x00002068       0x60 build/default/production/_ext/1071800814/libaria_widget_groupbox_skin_classic.o
 .debug_aranges
                0x000020c8       0x78 build/default/production/_ext/1071800814/libaria_widget_image.o
 .debug_aranges
                0x00002140       0x50 build/default/production/_ext/1071800814/libaria_widget_image_skin_classic.o
 .debug_aranges
                0x00002190       0xe8 build/default/production/_ext/1071800814/libaria_widget_imageplus.o
 .debug_aranges
                0x00002278       0x48 build/default/production/_ext/1071800814/libaria_widget_imageplus_skin_classic.o
 .debug_aranges
                0x000022c0       0xe0 build/default/production/_ext/1071800814/libaria_widget_imagesequence.o
 .debug_aranges
                0x000023a0       0x50 build/default/production/_ext/1071800814/libaria_widget_imagesequence_skin_classic.o
 .debug_aranges
                0x000023f0      0x108 build/default/production/_ext/1071800814/libaria_widget_keypad.o
 .debug_aranges
                0x000024f8       0x40 build/default/production/_ext/1071800814/libaria_widget_keypad_skin_classic.o
 .debug_aranges
                0x00002538       0x70 build/default/production/_ext/1071800814/libaria_widget_label.o
 .debug_aranges
                0x000025a8       0x50 build/default/production/_ext/1071800814/libaria_widget_label_skin_classic.o
 .debug_aranges
                0x000025f8       0x50 build/default/production/_ext/1071800814/libaria_widget_line.o
 .debug_aranges
                0x00002648       0x40 build/default/production/_ext/1071800814/libaria_widget_line_skin_classic.o
 .debug_aranges
                0x00002688      0x1d8 build/default/production/_ext/1071800814/libaria_widget_line_graph.o
 .debug_aranges
                0x00002860       0x68 build/default/production/_ext/1071800814/libaria_widget_line_graph_skin_classic.o
 .debug_aranges
                0x000028c8      0x170 build/default/production/_ext/1071800814/libaria_widget_list.o
 .debug_aranges
                0x00002a38       0x90 build/default/production/_ext/1071800814/libaria_widget_list_skin_classic.o
 .debug_aranges
                0x00002ac8      0x1c8 build/default/production/_ext/1071800814/libaria_widget_listwheel.o
 .debug_aranges
                0x00002c90       0x90 build/default/production/_ext/1071800814/libaria_widget_listwheel_skin_classic.o
 .debug_aranges
                0x00002d20       0xf0 build/default/production/_ext/1071800814/libaria_widget_pie_chart.o
 .debug_aranges
                0x00002e10       0x40 build/default/production/_ext/1071800814/libaria_widget_pie_chart_skin_classic.o
 .debug_aranges
                0x00002e50       0x60 build/default/production/_ext/1071800814/libaria_widget_progressbar.o
 .debug_aranges
                0x00002eb0       0x48 build/default/production/_ext/1071800814/libaria_widget_progressbar_skin_classic.o
 .debug_aranges
                0x00002ef8      0x148 build/default/production/_ext/1071800814/libaria_widget_radial_menu.o
 .debug_aranges
                0x00003040       0x48 build/default/production/_ext/1071800814/libaria_widget_radial_menu_skin_classic.o
 .debug_aranges
                0x00003088      0x118 build/default/production/_ext/1071800814/libaria_widget_radiobutton.o
 .debug_aranges
                0x000031a0       0x68 build/default/production/_ext/1071800814/libaria_widget_radiobutton_skin_classic.o
 .debug_aranges
                0x00003208       0x40 build/default/production/_ext/1071800814/libaria_radiobutton_group.o
 .debug_aranges
                0x00003248       0x38 build/default/production/_ext/1071800814/libaria_widget_rectangle.o
 .debug_aranges
                0x00003280       0x48 build/default/production/_ext/1071800814/libaria_widget_rectangle_skin_classic.o
 .debug_aranges
                0x000032c8      0x100 build/default/production/_ext/1071800814/libaria_widget_scrollbar.o
 .debug_aranges
                0x000033c8       0x70 build/default/production/_ext/1071800814/libaria_widget_scrollbar_skin_classic.o
 .debug_aranges
                0x00003438       0xe0 build/default/production/_ext/1071800814/libaria_widget_slider.o
 .debug_aranges
                0x00003518       0x58 build/default/production/_ext/1071800814/libaria_widget_slider_skin_classic.o
 .debug_aranges
                0x00003570      0x110 build/default/production/_ext/1071800814/libaria_widget_textfield.o
 .debug_aranges
                0x00003680       0x60 build/default/production/_ext/1071800814/libaria_widget_textfield_skin_classic.o
 .debug_aranges
                0x000036e0       0x70 build/default/production/_ext/1071800814/libaria_widget_touchtest.o
 .debug_aranges
                0x00003750       0x48 build/default/production/_ext/1071800814/libaria_widget_touchtest_skin_classic.o
 .debug_aranges
                0x00003798       0x78 build/default/production/_ext/1071800814/libaria_widget_window.o
 .debug_aranges
                0x00003810       0x78 build/default/production/_ext/1071800814/libaria_widget_window_skin_classic.o
 .debug_aranges
                0x00003888       0x80 build/default/production/_ext/676789875/gfx.o
 .debug_aranges
                0x00003908       0x40 build/default/production/_ext/676789875/gfx_color.o
 .debug_aranges
                0x00003948       0x30 build/default/production/_ext/676789875/gfx_context.o
 .debug_aranges
                0x00003978      0x368 build/default/production/_ext/676789875/gfx_default_impl.o
 .debug_aranges
                0x00003ce0       0x20 build/default/production/_ext/676789875/gfx_display.o
 .debug_aranges
                0x00003d00       0x30 build/default/production/_ext/676789875/gfx_driver_interface.o
 .debug_aranges
                0x00003d30      0x190 build/default/production/_ext/676789875/gfx_get.o
 .debug_aranges
                0x00003ec0       0x18 build/default/production/_ext/676789875/gfx_interface.o
 .debug_aranges
                0x00003ed8       0x70 build/default/production/_ext/676789875/gfx_layer.o
 .debug_aranges
                0x00003f48      0x100 build/default/production/_ext/676789875/gfx_pixel_buffer.o
 .debug_aranges
                0x00004048       0x18 build/default/production/_ext/676789875/gfx_processor_interface.o
 .debug_aranges
                0x00004060       0x70 build/default/production/_ext/676789875/gfx_rect.o
 .debug_aranges
                0x000040d0       0xa8 build/default/production/_ext/676789875/gfx_util.o
 .debug_aranges
                0x00004178      0x168 build/default/production/_ext/676789875/gfx_set.o
 .debug_aranges
                0x000042e0       0x20 build/default/production/_ext/676789875/gfx_color_blend.o
 .debug_aranges
                0x00004300      0x208 build/default/production/_ext/676789875/gfx_color_convert.o
 .debug_aranges
                0x00004508       0x60 build/default/production/_ext/676789875/gfx_color_lerp.o
 .debug_aranges
                0x00004568       0x20 build/default/production/_ext/676789875/gfx_color_value.o
 .debug_aranges
                0x00004588       0x48 build/default/production/_ext/676789875/gfx_draw_arc.o
 .debug_aranges
                0x000045d0       0x40 build/default/production/_ext/676789875/gfx_draw_blit.o
 .debug_aranges
                0x00004610       0x28 build/default/production/_ext/676789875/gfx_draw_circle.o
 .debug_aranges
                0x00004638       0x28 build/default/production/_ext/676789875/gfx_draw_ellipse.o
 .debug_aranges
                0x00004660       0x60 build/default/production/_ext/676789875/gfx_draw_line.o
 .debug_aranges
                0x000046c0       0x38 build/default/production/_ext/676789875/gfx_draw_pixel.o
 .debug_aranges
                0x000046f8       0x68 build/default/production/_ext/676789875/gfx_draw_rect.o
 .debug_aranges
                0x00004760       0x30 build/default/production/_ext/676789875/gfx_draw_stretchblit.o
 .debug_aranges
                0x00004790       0xb8 build/default/production/_ext/676789875/gfx_math.o
 .debug_aranges
                0x00004848       0x48 build/default/production/_ext/231205469/sys_int_pic32.o
 .debug_aranges
                0x00004890       0x40 build/default/production/_ext/664138601/drv_pmp_static.o
 .debug_aranges
                0x000048d0       0xf0 build/default/production/_ext/347121368/drv_gfx_ssd1926.o
 .debug_aranges
                0x000049c0       0x40 build/default/production/_ext/1689523328/drv_gfx_ssd1289.o
 .debug_aranges
                0x00004a00       0x28 build/default/production/_ext/458109090/libaria_harmony.o
 .debug_aranges
                0x00004a28       0x28 build/default/production/_ext/458109090/libaria_init.o
 .debug_aranges
                0x00004a50       0x18 build/default/production/_ext/458109090/libaria_events.o
 .debug_aranges
                0x00004a68       0x18 build/default/production/_ext/458109090/libaria_macros.o
 .debug_aranges
                0x00004a80       0x18 build/default/production/_ext/2065038297/gfx_display_def.o
 .debug_aranges
                0x00004a98       0x20 build/default/production/_ext/2065038297/gfx_driver_def.o
 .debug_aranges
                0x00004ab8       0x20 build/default/production/_ext/2065038297/gfx_processor_def.o
 .debug_aranges
                0x00004ad8       0x50 build/default/production/_ext/639803181/sys_clk_pic32mx.o
 .debug_aranges
                0x00004b28       0x78 build/default/production/_ext/340578644/sys_devcon.o
 .debug_aranges
                0x00004ba0       0x20 build/default/production/_ext/340578644/sys_devcon_pic32mx.o
 .debug_aranges
                0x00004bc0      0x148 build/default/production/_ext/822048611/sys_ports_static.o
 .debug_aranges
                0x00004d08       0x68 build/default/production/_ext/74298950/bsp.o
 .debug_aranges
                0x00004d70       0x20 build/default/production/_ext/1688732426/system_init.o
 .debug_aranges
                0x00004d90       0x18 build/default/production/_ext/1688732426/system_interrupt.o
 .debug_aranges
                0x00004da8       0x20 build/default/production/_ext/1688732426/system_exceptions.o
 .debug_aranges
                0x00004dc8       0x20 build/default/production/_ext/1688732426/system_tasks.o
 .debug_aranges
                0x00004de8       0x20 c:/program files (x86)/microchip/xc32/v2.30/bin/bin/../../lib/gcc/pic32mx/4.8.3\libgcc.a(floatunsisf.o)
 .debug_aranges
                0x00004e08       0x20 c:/program files (x86)/microchip/xc32/v2.30/bin/bin/../../lib/gcc/pic32mx/4.8.3/../../../../pic32mx/lib\libpic32.a(default-bootstrap-exception-handler.o)
 .debug_aranges
                0x00004e28       0x20 c:/program files (x86)/microchip/xc32/v2.30/bin/bin/../../lib/gcc/pic32mx/4.8.3/../../../../pic32mx/lib\libpic32.a(default-on-reset.o)
 .debug_aranges
                0x00004e48       0x20 c:/program files (x86)/microchip/xc32/v2.30/bin/bin/../../lib/gcc/pic32mx/4.8.3/../../../../pic32mx/lib\libpic32.a(default-on-bootstrap.o)
 .debug_aranges
                0x00004e68       0x20 c:/program files (x86)/microchip/xc32/v2.30/bin/bin/../../lib/gcc/pic32mx/4.8.3/../../../../pic32mx/lib\libpic32.a(defaultinterrupt.o)
 .debug_aranges
                0x00004e88       0x20 c:/program files (x86)/microchip/xc32/v2.30/bin/bin/../../lib/gcc/pic32mx/4.8.3/../../../../pic32mx/lib\libc.a(fassert.o)
 .debug_aranges
                0x00004ea8       0x20 c:/program files (x86)/microchip/xc32/v2.30/bin/bin/../../lib/gcc/pic32mx/4.8.3/../../../../pic32mx/lib\libc.a(calloc.o)
 .debug_aranges
                0x00004ec8       0x30 c:/program files (x86)/microchip/xc32/v2.30/bin/bin/../../lib/gcc/pic32mx/4.8.3/../../../../pic32mx/lib\libc.a(malloc.o)
 .debug_aranges
                0x00004ef8       0x30 c:/program files (x86)/microchip/xc32/v2.30/bin/bin/../../lib/gcc/pic32mx/4.8.3/../../../../pic32mx/lib\libc.a(signal.o)
 .debug_aranges
                0x00004f28       0x20 c:/program files (x86)/microchip/xc32/v2.30/bin/bin/../../lib/gcc/pic32mx/4.8.3/../../../../pic32mx/lib\libc.a(exit.o)
 .debug_aranges
                0x00004f48       0x20 c:/program files (x86)/microchip/xc32/v2.30/bin/bin/../../lib/gcc/pic32mx/4.8.3/../../../../pic32mx/lib\libc.a(stdclean_simple.o)
 .debug_aranges
                0x00004f68       0x20 c:/program files (x86)/microchip/xc32/v2.30/bin/bin/../../lib/gcc/pic32mx/4.8.3/../../../../pic32mx/lib\libc.a(fprintf_cdnopsuxX.eo)
 .debug_aranges
                0x00004f88       0x20 c:/program files (x86)/microchip/xc32/v2.30/bin/bin/../../lib/gcc/pic32mx/4.8.3/../../../../pic32mx/lib\libc.a(sprintf_cdnopuxX.eo)
 .debug_aranges
                0x00004fa8       0x20 c:/program files (x86)/microchip/xc32/v2.30/bin/bin/../../lib/gcc/pic32mx/4.8.3/../../../../pic32mx/lib\libc.a(doprnt_cdnopsuxX.eo)
 .debug_aranges
                0x00004fc8       0x20 c:/program files (x86)/microchip/xc32/v2.30/bin/bin/../../lib/gcc/pic32mx/4.8.3/../../../../pic32mx/lib\libc.a(_fputc_simple.o)
 .debug_aranges
                0x00004fe8       0x20 c:/program files (x86)/microchip/xc32/v2.30/bin/bin/../../lib/gcc/pic32mx/4.8.3/../../../../pic32mx/lib\libc.a(_flsbuf_simple.o)
 .debug_aranges
                0x00005008       0x20 c:/program files (x86)/microchip/xc32/v2.30/bin/bin/../../lib/gcc/pic32mx/4.8.3\libgcc.a(_udivdi3.o)
 .debug_aranges
                0x00005028       0x20 c:/program files (x86)/microchip/xc32/v2.30/bin/bin/../../lib/gcc/pic32mx/4.8.3\libgcc.a(_umoddi3.o)
 .debug_aranges
                0x00005048       0x40 c:/program files (x86)/microchip/xc32/v2.30/bin/bin/../../lib/gcc/pic32mx/4.8.3/../../../../pic32mx/lib\libpic32.a(sbrk.o)
 .debug_aranges
                0x00005088       0x20 c:/program files (x86)/microchip/xc32/v2.30/bin/bin/../../lib/gcc/pic32mx/4.8.3/../../../../pic32mx/lib\libpic32.a(write.o)
 .debug_aranges
                0x000050a8       0x20 c:/program files (x86)/microchip/xc32/v2.30/bin/bin/../../lib/gcc/pic32mx/4.8.3/../../../../pic32mx/lib\libpic32.a(_mon_putc.o)

.debug_pubnames
 *(.debug_pubnames)

.debug_info     0x00000000   0x1c5643
 *(.debug_info .gnu.linkonce.wi.*)
 .debug_info    0x00000000     0x129c build/default/production/_ext/1360937237/app.o
 .debug_info    0x0000129c      0x1a7 build/default/production/_ext/1360937237/main.o
 .debug_info    0x00001443      0x4a3 build/default/production/_ext/658260392/jidctint.o
 .debug_info    0x000018e6     0x2823 build/default/production/_ext/1963452113/gfxu_image_jpg_common.o
 .debug_info    0x00004109     0x1f18 build/default/production/_ext/1963452113/gfxu_image_jpg_internal.o
 .debug_info    0x00006021     0x1ad4 build/default/production/_ext/1963452113/gfxu_image_jpg_external.o
 .debug_info    0x00007af5     0x41c5 build/default/production/_ext/1963452113/gfxu_image_png_external.o
 .debug_info    0x0000bcba     0x3e8f build/default/production/_ext/1963452113/gfxu_image_png_internal.o
 .debug_info    0x0000fb49     0xcdb0 build/default/production/_ext/308360523/lodepng.o
 .debug_info    0x0001c8f9     0x1df9 build/default/production/_ext/1963452113/gfxu_image.o
 .debug_info    0x0001e6f2     0x1d80 build/default/production/_ext/1963452113/gfxu_image_raw_external.o
 .debug_info    0x00020472     0x154f build/default/production/_ext/1963452113/gfxu_image_raw_internal.o
 .debug_info    0x000219c1     0x1f8d build/default/production/_ext/1963452113/gfxu_image_rle_external.o
 .debug_info    0x0002394e     0x4085 build/default/production/_ext/1963452113/gfxu_image_rle_internal.o
 .debug_info    0x000279d3     0x16ff build/default/production/_ext/1963452113/gfxu_image_utils.o
 .debug_info    0x000290d2      0xdab build/default/production/_ext/1963452113/gfxu_palette.o
 .debug_info    0x00029e7d     0x1c31 build/default/production/_ext/1963452113/gfxu_string.o
 .debug_info    0x0002baae     0x17f4 build/default/production/_ext/1963452113/gfxu_string_external.o
 .debug_info    0x0002d2a2     0x14d4 build/default/production/_ext/1963452113/gfxu_stringbuffer_external.o
 .debug_info    0x0002e776     0x1191 build/default/production/_ext/1963452113/gfxu_string_internal.o
 .debug_info    0x0002f907     0x1a8b build/default/production/_ext/1963452113/gfxu_string_query.o
 .debug_info    0x00031392     0x2501 build/default/production/_ext/1963452113/gfxu_string_utils.o
 .debug_info    0x00033893     0x30e2 build/default/production/_ext/1071800814/libaria.o
 .debug_info    0x00036975     0x2f4c build/default/production/_ext/1071800814/libaria_array.o
 .debug_info    0x000398c1     0x4c5c build/default/production/_ext/1071800814/libaria_context.o
 .debug_info    0x0003e51d     0x40f1 build/default/production/_ext/1071800814/libaria_context_paint.o
 .debug_info    0x0004260e     0x11b5 build/default/production/_ext/1071800814/libaria_draw.o
 .debug_info    0x000437c3     0x217b build/default/production/_ext/1071800814/libaria_editwidget.o
 .debug_info    0x0004593e     0x2cec build/default/production/_ext/1071800814/libaria_event.o
 .debug_info    0x0004862a     0x3d58 build/default/production/_ext/1071800814/libaria_input.o
 .debug_info    0x0004c382     0x4b5a build/default/production/_ext/1071800814/libaria_layer.o
 .debug_info    0x00050edc     0x2fbb build/default/production/_ext/1071800814/libaria_list.o
 .debug_info    0x00053e97     0x312b build/default/production/_ext/1071800814/libaria_rectarray.o
 .debug_info    0x00056fc2      0xccb build/default/production/_ext/1071800814/libaria_scheme.o
 .debug_info    0x00057c8d     0x3db6 build/default/production/_ext/1071800814/libaria_screen.o
 .debug_info    0x0005ba43     0x46d3 build/default/production/_ext/1071800814/libaria_string.o
 .debug_info    0x00060116     0x4684 build/default/production/_ext/1071800814/libaria_utils.o
 .debug_info    0x0006479a     0x5050 build/default/production/_ext/1071800814/libaria_widget.o
 .debug_info    0x000697ea     0x2bab build/default/production/_ext/1071800814/libaria_widget_skin_classic.o
 .debug_info    0x0006c395     0x41a4 build/default/production/_ext/1071800814/libaria_widget_skin_classic_common.o
 .debug_info    0x00070539     0x2ef7 build/default/production/_ext/1071800814/libaria_widget_arc.o
 .debug_info    0x00073430     0x39ea build/default/production/_ext/1071800814/libaria_widget_arc_skin_classic.o
 .debug_info    0x00076e1a     0x45c4 build/default/production/_ext/1071800814/libaria_widget_bar_graph.o
 .debug_info    0x0007b3de     0x4ed3 build/default/production/_ext/1071800814/libaria_widget_bar_graph_skin_classic.o
 .debug_info    0x000802b1     0x472e build/default/production/_ext/1071800814/libaria_widget_button.o
 .debug_info    0x000849df     0x48ba build/default/production/_ext/1071800814/libaria_widget_button_skin_classic.o
 .debug_info    0x00089299     0x4359 build/default/production/_ext/1071800814/libaria_widget_checkbox.o
 .debug_info    0x0008d5f2     0x44fd build/default/production/_ext/1071800814/libaria_widget_checkbox_skin_classic.o
 .debug_info    0x00091aef     0x2d14 build/default/production/_ext/1071800814/libaria_widget_circle.o
 .debug_info    0x00094803     0x37c3 build/default/production/_ext/1071800814/libaria_widget_circle_skin_classic.o
 .debug_info    0x00097fc6     0x448c build/default/production/_ext/1071800814/libaria_widget_circular_gauge.o
 .debug_info    0x0009c452     0x48f7 build/default/production/_ext/1071800814/libaria_widget_circular_gauge_skin_classic.o
 .debug_info    0x000a0d49     0x40a0 build/default/production/_ext/1071800814/libaria_widget_circular_slider.o
 .debug_info    0x000a4de9     0x411a build/default/production/_ext/1071800814/libaria_widget_circular_slider_skin_classic.o
 .debug_info    0x000a8f03     0x2cb1 build/default/production/_ext/1071800814/libaria_widget_drawsurface.o
 .debug_info    0x000abbb4     0x2d7d build/default/production/_ext/1071800814/libaria_widget_drawsurface_skin_classic.o
 .debug_info    0x000ae931     0x2d04 build/default/production/_ext/1071800814/libaria_widget_gradient.o
 .debug_info    0x000b1635     0x382e build/default/production/_ext/1071800814/libaria_widget_gradient_skin_classic.o
 .debug_info    0x000b4e63     0x346e build/default/production/_ext/1071800814/libaria_widget_groupbox.o
 .debug_info    0x000b82d1     0x4010 build/default/production/_ext/1071800814/libaria_widget_groupbox_skin_classic.o
 .debug_info    0x000bc2e1     0x379d build/default/production/_ext/1071800814/libaria_widget_image.o
 .debug_info    0x000bfa7e     0x39b4 build/default/production/_ext/1071800814/libaria_widget_image_skin_classic.o
 .debug_info    0x000c3432     0x3df3 build/default/production/_ext/1071800814/libaria_widget_imageplus.o
 .debug_info    0x000c7225     0x390e build/default/production/_ext/1071800814/libaria_widget_imageplus_skin_classic.o
 .debug_info    0x000cab33     0x3907 build/default/production/_ext/1071800814/libaria_widget_imagesequence.o
 .debug_info    0x000ce43a     0x3a1f build/default/production/_ext/1071800814/libaria_widget_imagesequence_skin_classic.o
 .debug_info    0x000d1e59     0x4b15 build/default/production/_ext/1071800814/libaria_widget_keypad.o
 .debug_info    0x000d696e     0x2faf build/default/production/_ext/1071800814/libaria_widget_keypad_skin_classic.o
 .debug_info    0x000d991d     0x357c build/default/production/_ext/1071800814/libaria_widget_label.o
 .debug_info    0x000dce99     0x3ec3 build/default/production/_ext/1071800814/libaria_widget_label_skin_classic.o
 .debug_info    0x000e0d5c     0x2d25 build/default/production/_ext/1071800814/libaria_widget_line.o
 .debug_info    0x000e3a81     0x385c build/default/production/_ext/1071800814/libaria_widget_line_skin_classic.o
 .debug_info    0x000e72dd     0x4ca6 build/default/production/_ext/1071800814/libaria_widget_line_graph.o
 .debug_info    0x000ebf83     0x55ce build/default/production/_ext/1071800814/libaria_widget_line_graph_skin_classic.o
 .debug_info    0x000f1551     0x5768 build/default/production/_ext/1071800814/libaria_widget_list.o
 .debug_info    0x000f6cb9     0x4d03 build/default/production/_ext/1071800814/libaria_widget_list_skin_classic.o
 .debug_info    0x000fb9bc     0x52ec build/default/production/_ext/1071800814/libaria_widget_listwheel.o
 .debug_info    0x00100ca8     0x5cee build/default/production/_ext/1071800814/libaria_widget_listwheel_skin_classic.o
 .debug_info    0x00106996     0x3ae3 build/default/production/_ext/1071800814/libaria_widget_pie_chart.o
 .debug_info    0x0010a479     0x3e89 build/default/production/_ext/1071800814/libaria_widget_pie_chart_skin_classic.o
 .debug_info    0x0010e302     0x34ae build/default/production/_ext/1071800814/libaria_widget_progressbar.o
 .debug_info    0x001117b0     0x3a1a build/default/production/_ext/1071800814/libaria_widget_progressbar_skin_classic.o
 .debug_info    0x001151ca     0x5c47 build/default/production/_ext/1071800814/libaria_widget_radial_menu.o
 .debug_info    0x0011ae11     0x430f build/default/production/_ext/1071800814/libaria_widget_radial_menu_skin_classic.o
 .debug_info    0x0011f120     0x478f build/default/production/_ext/1071800814/libaria_widget_radiobutton.o
 .debug_info    0x001238af     0x4e53 build/default/production/_ext/1071800814/libaria_widget_radiobutton_skin_classic.o
 .debug_info    0x00128702     0x3455 build/default/production/_ext/1071800814/libaria_radiobutton_group.o
 .debug_info    0x0012bb57     0x2c53 build/default/production/_ext/1071800814/libaria_widget_rectangle.o
 .debug_info    0x0012e7aa     0x3a31 build/default/production/_ext/1071800814/libaria_widget_rectangle_skin_classic.o
 .debug_info    0x001321db     0x4240 build/default/production/_ext/1071800814/libaria_widget_scrollbar.o
 .debug_info    0x0013641b     0x443d build/default/production/_ext/1071800814/libaria_widget_scrollbar_skin_classic.o
 .debug_info    0x0013a858     0x3e14 build/default/production/_ext/1071800814/libaria_widget_slider.o
 .debug_info    0x0013e66c     0x371f build/default/production/_ext/1071800814/libaria_widget_slider_skin_classic.o
 .debug_info    0x00141d8b     0x42ac build/default/production/_ext/1071800814/libaria_widget_textfield.o
 .debug_info    0x00146037     0x3f4a build/default/production/_ext/1071800814/libaria_widget_textfield_skin_classic.o
 .debug_info    0x00149f81     0x3681 build/default/production/_ext/1071800814/libaria_widget_touchtest.o
 .debug_info    0x0014d602     0x3b00 build/default/production/_ext/1071800814/libaria_widget_touchtest_skin_classic.o
 .debug_info    0x00151102     0x384e build/default/production/_ext/1071800814/libaria_widget_window.o
 .debug_info    0x00154950     0x4346 build/default/production/_ext/1071800814/libaria_widget_window_skin_classic.o
 .debug_info    0x00158c96     0x3e8e build/default/production/_ext/676789875/gfx.o
 .debug_info    0x0015cb24      0x77f build/default/production/_ext/676789875/gfx_color.o
 .debug_info    0x0015d2a3     0x3205 build/default/production/_ext/676789875/gfx_context.o
 .debug_info    0x001604a8     0x589e build/default/production/_ext/676789875/gfx_default_impl.o
 .debug_info    0x00165d46      0x98b build/default/production/_ext/676789875/gfx_display.o
 .debug_info    0x001666d1     0x33a3 build/default/production/_ext/676789875/gfx_driver_interface.o
 .debug_info    0x00169a74     0x49e5 build/default/production/_ext/676789875/gfx_get.o
 .debug_info    0x0016e459      0x7cf build/default/production/_ext/676789875/gfx_interface.o
 .debug_info    0x0016ec28     0x359c build/default/production/_ext/676789875/gfx_layer.o
 .debug_info    0x001721c4     0x1c2c build/default/production/_ext/676789875/gfx_pixel_buffer.o
 .debug_info    0x00173df0      0x693 build/default/production/_ext/676789875/gfx_processor_interface.o
 .debug_info    0x00174483      0x82f build/default/production/_ext/676789875/gfx_rect.o
 .debug_info    0x00174cb2      0xf2d build/default/production/_ext/676789875/gfx_util.o
 .debug_info    0x00175bdf     0x466d build/default/production/_ext/676789875/gfx_set.o
 .debug_info    0x0017a24c      0x892 build/default/production/_ext/676789875/gfx_color_blend.o
 .debug_info    0x0017aade     0x4762 build/default/production/_ext/676789875/gfx_color_convert.o
 .debug_info    0x0017f240     0x112c build/default/production/_ext/676789875/gfx_color_lerp.o
 .debug_info    0x0018036c      0x865 build/default/production/_ext/676789875/gfx_color_value.o
 .debug_info    0x00180bd1     0x43d7 build/default/production/_ext/676789875/gfx_draw_arc.o
 .debug_info    0x00184fa8     0x38eb build/default/production/_ext/676789875/gfx_draw_blit.o
 .debug_info    0x00188893     0x341e build/default/production/_ext/676789875/gfx_draw_circle.o
 .debug_info    0x0018bcb1     0x3573 build/default/production/_ext/676789875/gfx_draw_ellipse.o
 .debug_info    0x0018f224     0x3bd1 build/default/production/_ext/676789875/gfx_draw_line.o
 .debug_info    0x00192df5     0x349e build/default/production/_ext/676789875/gfx_draw_pixel.o
 .debug_info    0x00196293     0x3951 build/default/production/_ext/676789875/gfx_draw_rect.o
 .debug_info    0x00199be4     0x3aa0 build/default/production/_ext/676789875/gfx_draw_stretchblit.o
 .debug_info    0x0019d684      0xb67 build/default/production/_ext/676789875/gfx_math.o
 .debug_info    0x0019e1eb     0x15a0 build/default/production/_ext/231205469/sys_int_pic32.o
 .debug_info    0x0019f78b     0x1632 build/default/production/_ext/664138601/drv_pmp_static.o
 .debug_info    0x001a0dbd     0x4c0c build/default/production/_ext/347121368/drv_gfx_ssd1926.o
 .debug_info    0x001a59c9     0x198b build/default/production/_ext/1689523328/drv_gfx_ssd1289.o
 .debug_info    0x001a7354     0x3b2b build/default/production/_ext/458109090/libaria_harmony.o
 .debug_info    0x001aae7f     0x331f build/default/production/_ext/458109090/libaria_init.o
 .debug_info    0x001ae19e     0x11e0 build/default/production/_ext/458109090/libaria_events.o
 .debug_info    0x001af37e     0x11e0 build/default/production/_ext/458109090/libaria_macros.o
 .debug_info    0x001b055e      0x922 build/default/production/_ext/2065038297/gfx_display_def.o
 .debug_info    0x001b0e80     0x3274 build/default/production/_ext/2065038297/gfx_driver_def.o
 .debug_info    0x001b40f4      0x6ca build/default/production/_ext/2065038297/gfx_processor_def.o
 .debug_info    0x001b47be     0x1d7a build/default/production/_ext/639803181/sys_clk_pic32mx.o
 .debug_info    0x001b6538     0x177d build/default/production/_ext/340578644/sys_devcon.o
 .debug_info    0x001b7cb5     0x18c0 build/default/production/_ext/340578644/sys_devcon_pic32mx.o
 .debug_info    0x001b9575     0x410c build/default/production/_ext/822048611/sys_ports_static.o
 .debug_info    0x001bd681     0x124d build/default/production/_ext/74298950/bsp.o
 .debug_info    0x001be8ce     0x17af build/default/production/_ext/1688732426/system_init.o
 .debug_info    0x001c007d     0x11cc build/default/production/_ext/1688732426/system_interrupt.o
 .debug_info    0x001c1249     0x127c build/default/production/_ext/1688732426/system_exceptions.o
 .debug_info    0x001c24c5     0x125e build/default/production/_ext/1688732426/system_tasks.o
 .debug_info    0x001c3723      0x129 c:/program files (x86)/microchip/xc32/v2.30/bin/bin/../../lib/gcc/pic32mx/4.8.3\libgcc.a(floatunsisf.o)
 .debug_info    0x001c384c       0xf4 c:/program files (x86)/microchip/xc32/v2.30/bin/bin/../../lib/gcc/pic32mx/4.8.3/../../../../pic32mx/lib\libpic32.a(default-bootstrap-exception-handler.o)
 .debug_info    0x001c3940       0xcd c:/program files (x86)/microchip/xc32/v2.30/bin/bin/../../lib/gcc/pic32mx/4.8.3/../../../../pic32mx/lib\libpic32.a(default-on-reset.o)
 .debug_info    0x001c3a0d       0xd5 c:/program files (x86)/microchip/xc32/v2.30/bin/bin/../../lib/gcc/pic32mx/4.8.3/../../../../pic32mx/lib\libpic32.a(default-on-bootstrap.o)
 .debug_info    0x001c3ae2       0xe7 c:/program files (x86)/microchip/xc32/v2.30/bin/bin/../../lib/gcc/pic32mx/4.8.3/../../../../pic32mx/lib\libpic32.a(defaultinterrupt.o)
 .debug_info    0x001c3bc9       0xc7 c:/program files (x86)/microchip/xc32/v2.30/bin/bin/../../lib/gcc/pic32mx/4.8.3/../../../../pic32mx/lib\libc.a(fassert.o)
 .debug_info    0x001c3c90       0xc4 c:/program files (x86)/microchip/xc32/v2.30/bin/bin/../../lib/gcc/pic32mx/4.8.3/../../../../pic32mx/lib\libc.a(calloc.o)
 .debug_info    0x001c3d54       0xf5 c:/program files (x86)/microchip/xc32/v2.30/bin/bin/../../lib/gcc/pic32mx/4.8.3/../../../../pic32mx/lib\libc.a(malloc.o)
 .debug_info    0x001c3e49       0xee c:/program files (x86)/microchip/xc32/v2.30/bin/bin/../../lib/gcc/pic32mx/4.8.3/../../../../pic32mx/lib\libc.a(signal.o)
 .debug_info    0x001c3f37       0xc0 c:/program files (x86)/microchip/xc32/v2.30/bin/bin/../../lib/gcc/pic32mx/4.8.3/../../../../pic32mx/lib\libc.a(exit.o)
 .debug_info    0x001c3ff7       0xc8 c:/program files (x86)/microchip/xc32/v2.30/bin/bin/../../lib/gcc/pic32mx/4.8.3/../../../../pic32mx/lib\libc.a(stdclean_simple.o)
 .debug_info    0x001c40bf       0xd1 c:/program files (x86)/microchip/xc32/v2.30/bin/bin/../../lib/gcc/pic32mx/4.8.3/../../../../pic32mx/lib\libc.a(fprintf_cdnopsuxX.eo)
 .debug_info    0x001c4190       0xd0 c:/program files (x86)/microchip/xc32/v2.30/bin/bin/../../lib/gcc/pic32mx/4.8.3/../../../../pic32mx/lib\libc.a(sprintf_cdnopuxX.eo)
 .debug_info    0x001c4260       0xd2 c:/program files (x86)/microchip/xc32/v2.30/bin/bin/../../lib/gcc/pic32mx/4.8.3/../../../../pic32mx/lib\libc.a(doprnt_cdnopsuxX.eo)
 .debug_info    0x001c4332       0xc2 c:/program files (x86)/microchip/xc32/v2.30/bin/bin/../../lib/gcc/pic32mx/4.8.3/../../../../pic32mx/lib\libc.a(_fputc_simple.o)
 .debug_info    0x001c43f4       0xc5 c:/program files (x86)/microchip/xc32/v2.30/bin/bin/../../lib/gcc/pic32mx/4.8.3/../../../../pic32mx/lib\libc.a(_flsbuf_simple.o)
 .debug_info    0x001c44b9      0x74b c:/program files (x86)/microchip/xc32/v2.30/bin/bin/../../lib/gcc/pic32mx/4.8.3\libgcc.a(_udivdi3.o)
 .debug_info    0x001c4c04      0x788 c:/program files (x86)/microchip/xc32/v2.30/bin/bin/../../lib/gcc/pic32mx/4.8.3\libgcc.a(_umoddi3.o)
 .debug_info    0x001c538c      0x131 c:/program files (x86)/microchip/xc32/v2.30/bin/bin/../../lib/gcc/pic32mx/4.8.3/../../../../pic32mx/lib\libpic32.a(sbrk.o)
 .debug_info    0x001c54bd       0xbf c:/program files (x86)/microchip/xc32/v2.30/bin/bin/../../lib/gcc/pic32mx/4.8.3/../../../../pic32mx/lib\libpic32.a(write.o)
 .debug_info    0x001c557c       0xc7 c:/program files (x86)/microchip/xc32/v2.30/bin/bin/../../lib/gcc/pic32mx/4.8.3/../../../../pic32mx/lib\libpic32.a(_mon_putc.o)

.debug_abbrev   0x00000000    0x1a116
 *(.debug_abbrev)
 .debug_abbrev  0x00000000      0x18c build/default/production/_ext/1360937237/app.o
 .debug_abbrev  0x0000018c       0x93 build/default/production/_ext/1360937237/main.o
 .debug_abbrev  0x0000021f       0xb1 build/default/production/_ext/658260392/jidctint.o
 .debug_abbrev  0x000002d0      0x3f8 build/default/production/_ext/1963452113/gfxu_image_jpg_common.o
 .debug_abbrev  0x000006c8      0x254 build/default/production/_ext/1963452113/gfxu_image_jpg_internal.o
 .debug_abbrev  0x0000091c      0x234 build/default/production/_ext/1963452113/gfxu_image_jpg_external.o
 .debug_abbrev  0x00000b50      0x27b build/default/production/_ext/1963452113/gfxu_image_png_external.o
 .debug_abbrev  0x00000dcb      0x2c2 build/default/production/_ext/1963452113/gfxu_image_png_internal.o
 .debug_abbrev  0x0000108d      0x520 build/default/production/_ext/308360523/lodepng.o
 .debug_abbrev  0x000015ad      0x233 build/default/production/_ext/1963452113/gfxu_image.o
 .debug_abbrev  0x000017e0      0x2cb build/default/production/_ext/1963452113/gfxu_image_raw_external.o
 .debug_abbrev  0x00001aab      0x245 build/default/production/_ext/1963452113/gfxu_image_raw_internal.o
 .debug_abbrev  0x00001cf0      0x323 build/default/production/_ext/1963452113/gfxu_image_rle_external.o
 .debug_abbrev  0x00002013      0x2cb build/default/production/_ext/1963452113/gfxu_image_rle_internal.o
 .debug_abbrev  0x000022de      0x212 build/default/production/_ext/1963452113/gfxu_image_utils.o
 .debug_abbrev  0x000024f0      0x139 build/default/production/_ext/1963452113/gfxu_palette.o
 .debug_abbrev  0x00002629      0x215 build/default/production/_ext/1963452113/gfxu_string.o
 .debug_abbrev  0x0000283e      0x2eb build/default/production/_ext/1963452113/gfxu_string_external.o
 .debug_abbrev  0x00002b29      0x2d3 build/default/production/_ext/1963452113/gfxu_stringbuffer_external.o
 .debug_abbrev  0x00002dfc      0x1bc build/default/production/_ext/1963452113/gfxu_string_internal.o
 .debug_abbrev  0x00002fb8      0x2cc build/default/production/_ext/1963452113/gfxu_string_query.o
 .debug_abbrev  0x00003284      0x32a build/default/production/_ext/1963452113/gfxu_string_utils.o
 .debug_abbrev  0x000035ae      0x296 build/default/production/_ext/1071800814/libaria.o
 .debug_abbrev  0x00003844      0x2b8 build/default/production/_ext/1071800814/libaria_array.o
 .debug_abbrev  0x00003afc      0x4c2 build/default/production/_ext/1071800814/libaria_context.o
 .debug_abbrev  0x00003fbe      0x3cc build/default/production/_ext/1071800814/libaria_context_paint.o
 .debug_abbrev  0x0000438a      0x1c1 build/default/production/_ext/1071800814/libaria_draw.o
 .debug_abbrev  0x0000454b      0x2da build/default/production/_ext/1071800814/libaria_editwidget.o
 .debug_abbrev  0x00004825      0x2f0 build/default/production/_ext/1071800814/libaria_event.o
 .debug_abbrev  0x00004b15      0x319 build/default/production/_ext/1071800814/libaria_input.o
 .debug_abbrev  0x00004e2e      0x40b build/default/production/_ext/1071800814/libaria_layer.o
 .debug_abbrev  0x00005239      0x2e5 build/default/production/_ext/1071800814/libaria_list.o
 .debug_abbrev  0x0000551e      0x2ef build/default/production/_ext/1071800814/libaria_rectarray.o
 .debug_abbrev  0x0000580d      0x198 build/default/production/_ext/1071800814/libaria_scheme.o
 .debug_abbrev  0x000059a5      0x34a build/default/production/_ext/1071800814/libaria_screen.o
 .debug_abbrev  0x00005cef      0x42e build/default/production/_ext/1071800814/libaria_string.o
 .debug_abbrev  0x0000611d      0x40a build/default/production/_ext/1071800814/libaria_utils.o
 .debug_abbrev  0x00006527      0x4b6 build/default/production/_ext/1071800814/libaria_widget.o
 .debug_abbrev  0x000069dd      0x268 build/default/production/_ext/1071800814/libaria_widget_skin_classic.o
 .debug_abbrev  0x00006c45      0x2d3 build/default/production/_ext/1071800814/libaria_widget_skin_classic_common.o
 .debug_abbrev  0x00006f18      0x2a6 build/default/production/_ext/1071800814/libaria_widget_arc.o
 .debug_abbrev  0x000071be      0x2eb build/default/production/_ext/1071800814/libaria_widget_arc_skin_classic.o
 .debug_abbrev  0x000074a9      0x375 build/default/production/_ext/1071800814/libaria_widget_bar_graph.o
 .debug_abbrev  0x0000781e      0x44f build/default/production/_ext/1071800814/libaria_widget_bar_graph_skin_classic.o
 .debug_abbrev  0x00007c6d      0x421 build/default/production/_ext/1071800814/libaria_widget_button.o
 .debug_abbrev  0x0000808e      0x37b build/default/production/_ext/1071800814/libaria_widget_button_skin_classic.o
 .debug_abbrev  0x00008409      0x40c build/default/production/_ext/1071800814/libaria_widget_checkbox.o
 .debug_abbrev  0x00008815      0x399 build/default/production/_ext/1071800814/libaria_widget_checkbox_skin_classic.o
 .debug_abbrev  0x00008bae      0x297 build/default/production/_ext/1071800814/libaria_widget_circle.o
 .debug_abbrev  0x00008e45      0x2c6 build/default/production/_ext/1071800814/libaria_widget_circle_skin_classic.o
 .debug_abbrev  0x0000910b      0x364 build/default/production/_ext/1071800814/libaria_widget_circular_gauge.o
 .debug_abbrev  0x0000946f      0x3a0 build/default/production/_ext/1071800814/libaria_widget_circular_gauge_skin_classic.o
 .debug_abbrev  0x0000980f      0x423 build/default/production/_ext/1071800814/libaria_widget_circular_slider.o
 .debug_abbrev  0x00009c32      0x33d build/default/production/_ext/1071800814/libaria_widget_circular_slider_skin_classic.o
 .debug_abbrev  0x00009f6f      0x297 build/default/production/_ext/1071800814/libaria_widget_drawsurface.o
 .debug_abbrev  0x0000a206      0x2ad build/default/production/_ext/1071800814/libaria_widget_drawsurface_skin_classic.o
 .debug_abbrev  0x0000a4b3      0x297 build/default/production/_ext/1071800814/libaria_widget_gradient.o
 .debug_abbrev  0x0000a74a      0x2c6 build/default/production/_ext/1071800814/libaria_widget_gradient_skin_classic.o
 .debug_abbrev  0x0000aa10      0x361 build/default/production/_ext/1071800814/libaria_widget_groupbox.o
 .debug_abbrev  0x0000ad71      0x352 build/default/production/_ext/1071800814/libaria_widget_groupbox_skin_classic.o
 .debug_abbrev  0x0000b0c3      0x32b build/default/production/_ext/1071800814/libaria_widget_image.o
 .debug_abbrev  0x0000b3ee      0x2fa build/default/production/_ext/1071800814/libaria_widget_image_skin_classic.o
 .debug_abbrev  0x0000b6e8      0x36c build/default/production/_ext/1071800814/libaria_widget_imageplus.o
 .debug_abbrev  0x0000ba54      0x2d5 build/default/production/_ext/1071800814/libaria_widget_imageplus_skin_classic.o
 .debug_abbrev  0x0000bd29      0x30e build/default/production/_ext/1071800814/libaria_widget_imagesequence.o
 .debug_abbrev  0x0000c037      0x2ef build/default/production/_ext/1071800814/libaria_widget_imagesequence_skin_classic.o
 .debug_abbrev  0x0000c326      0x39e build/default/production/_ext/1071800814/libaria_widget_keypad.o
 .debug_abbrev  0x0000c6c4      0x291 build/default/production/_ext/1071800814/libaria_widget_keypad_skin_classic.o
 .debug_abbrev  0x0000c955      0x340 build/default/production/_ext/1071800814/libaria_widget_label.o
 .debug_abbrev  0x0000cc95      0x361 build/default/production/_ext/1071800814/libaria_widget_label_skin_classic.o
 .debug_abbrev  0x0000cff6      0x2b5 build/default/production/_ext/1071800814/libaria_widget_line.o
 .debug_abbrev  0x0000d2ab      0x2c6 build/default/production/_ext/1071800814/libaria_widget_line_skin_classic.o
 .debug_abbrev  0x0000d571      0x375 build/default/production/_ext/1071800814/libaria_widget_line_graph.o
 .debug_abbrev  0x0000d8e6      0x435 build/default/production/_ext/1071800814/libaria_widget_line_graph_skin_classic.o
 .debug_abbrev  0x0000dd1b      0x4bd build/default/production/_ext/1071800814/libaria_widget_list.o
 .debug_abbrev  0x0000e1d8      0x3d0 build/default/production/_ext/1071800814/libaria_widget_list_skin_classic.o
 .debug_abbrev  0x0000e5a8      0x4f3 build/default/production/_ext/1071800814/libaria_widget_listwheel.o
 .debug_abbrev  0x0000ea9b      0x46d build/default/production/_ext/1071800814/libaria_widget_listwheel_skin_classic.o
 .debug_abbrev  0x0000ef08      0x459 build/default/production/_ext/1071800814/libaria_widget_pie_chart.o
 .debug_abbrev  0x0000f361      0x359 build/default/production/_ext/1071800814/libaria_widget_pie_chart_skin_classic.o
 .debug_abbrev  0x0000f6ba      0x31f build/default/production/_ext/1071800814/libaria_widget_progressbar.o
 .debug_abbrev  0x0000f9d9      0x2c6 build/default/production/_ext/1071800814/libaria_widget_progressbar_skin_classic.o
 .debug_abbrev  0x0000fc9f      0x4a0 build/default/production/_ext/1071800814/libaria_widget_radial_menu.o
 .debug_abbrev  0x0001013f      0x375 build/default/production/_ext/1071800814/libaria_widget_radial_menu_skin_classic.o
 .debug_abbrev  0x000104b4      0x431 build/default/production/_ext/1071800814/libaria_widget_radiobutton.o
 .debug_abbrev  0x000108e5      0x404 build/default/production/_ext/1071800814/libaria_widget_radiobutton_skin_classic.o
 .debug_abbrev  0x00010ce9      0x2c8 build/default/production/_ext/1071800814/libaria_radiobutton_group.o
 .debug_abbrev  0x00010fb1      0x2e7 build/default/production/_ext/1071800814/libaria_widget_rectangle.o
 .debug_abbrev  0x00011298      0x2d9 build/default/production/_ext/1071800814/libaria_widget_rectangle_skin_classic.o
 .debug_abbrev  0x00011571      0x3a3 build/default/production/_ext/1071800814/libaria_widget_scrollbar.o
 .debug_abbrev  0x00011914      0x365 build/default/production/_ext/1071800814/libaria_widget_scrollbar_skin_classic.o
 .debug_abbrev  0x00011c79      0x3a1 build/default/production/_ext/1071800814/libaria_widget_slider.o
 .debug_abbrev  0x0001201a      0x2e2 build/default/production/_ext/1071800814/libaria_widget_slider_skin_classic.o
 .debug_abbrev  0x000122fc      0x472 build/default/production/_ext/1071800814/libaria_widget_textfield.o
 .debug_abbrev  0x0001276e      0x2f3 build/default/production/_ext/1071800814/libaria_widget_textfield_skin_classic.o
 .debug_abbrev  0x00012a61      0x306 build/default/production/_ext/1071800814/libaria_widget_touchtest.o
 .debug_abbrev  0x00012d67      0x308 build/default/production/_ext/1071800814/libaria_widget_touchtest_skin_classic.o
 .debug_abbrev  0x0001306f      0x340 build/default/production/_ext/1071800814/libaria_widget_window.o
 .debug_abbrev  0x000133af      0x390 build/default/production/_ext/1071800814/libaria_widget_window_skin_classic.o
 .debug_abbrev  0x0001373f      0x367 build/default/production/_ext/676789875/gfx.o
 .debug_abbrev  0x00013aa6       0xd9 build/default/production/_ext/676789875/gfx_color.o
 .debug_abbrev  0x00013b7f      0x1c2 build/default/production/_ext/676789875/gfx_context.o
 .debug_abbrev  0x00013d41      0x3d0 build/default/production/_ext/676789875/gfx_default_impl.o
 .debug_abbrev  0x00014111      0x125 build/default/production/_ext/676789875/gfx_display.o
 .debug_abbrev  0x00014236      0x1b0 build/default/production/_ext/676789875/gfx_driver_interface.o
 .debug_abbrev  0x000143e6      0x293 build/default/production/_ext/676789875/gfx_get.o
 .debug_abbrev  0x00014679       0x9f build/default/production/_ext/676789875/gfx_interface.o
 .debug_abbrev  0x00014718      0x2a0 build/default/production/_ext/676789875/gfx_layer.o
 .debug_abbrev  0x000149b8      0x2dd build/default/production/_ext/676789875/gfx_pixel_buffer.o
 .debug_abbrev  0x00014c95       0xd8 build/default/production/_ext/676789875/gfx_processor_interface.o
 .debug_abbrev  0x00014d6d      0x16f build/default/production/_ext/676789875/gfx_rect.o
 .debug_abbrev  0x00014edc      0x204 build/default/production/_ext/676789875/gfx_util.o
 .debug_abbrev  0x000150e0      0x24b build/default/production/_ext/676789875/gfx_set.o
 .debug_abbrev  0x0001532b      0x16a build/default/production/_ext/676789875/gfx_color_blend.o
 .debug_abbrev  0x00015495      0x2b3 build/default/production/_ext/676789875/gfx_color_convert.o
 .debug_abbrev  0x00015748      0x1e5 build/default/production/_ext/676789875/gfx_color_lerp.o
 .debug_abbrev  0x0001592d      0x111 build/default/production/_ext/676789875/gfx_color_value.o
 .debug_abbrev  0x00015a3e      0x34c build/default/production/_ext/676789875/gfx_draw_arc.o
 .debug_abbrev  0x00015d8a      0x2b3 build/default/production/_ext/676789875/gfx_draw_blit.o
 .debug_abbrev  0x0001603d      0x292 build/default/production/_ext/676789875/gfx_draw_circle.o
 .debug_abbrev  0x000162cf      0x2a8 build/default/production/_ext/676789875/gfx_draw_ellipse.o
 .debug_abbrev  0x00016577      0x344 build/default/production/_ext/676789875/gfx_draw_line.o
 .debug_abbrev  0x000168bb      0x284 build/default/production/_ext/676789875/gfx_draw_pixel.o
 .debug_abbrev  0x00016b3f      0x2c4 build/default/production/_ext/676789875/gfx_draw_rect.o
 .debug_abbrev  0x00016e03      0x2ca build/default/production/_ext/676789875/gfx_draw_stretchblit.o
 .debug_abbrev  0x000170cd      0x1eb build/default/production/_ext/676789875/gfx_math.o
 .debug_abbrev  0x000172b8      0x237 build/default/production/_ext/231205469/sys_int_pic32.o
 .debug_abbrev  0x000174ef      0x1ca build/default/production/_ext/664138601/drv_pmp_static.o
 .debug_abbrev  0x000176b9      0x4f9 build/default/production/_ext/347121368/drv_gfx_ssd1926.o
 .debug_abbrev  0x00017bb2      0x1d4 build/default/production/_ext/1689523328/drv_gfx_ssd1289.o
 .debug_abbrev  0x00017d86      0x29e build/default/production/_ext/458109090/libaria_harmony.o
 .debug_abbrev  0x00018024      0x2aa build/default/production/_ext/458109090/libaria_init.o
 .debug_abbrev  0x000182ce      0x122 build/default/production/_ext/458109090/libaria_events.o
 .debug_abbrev  0x000183f0      0x122 build/default/production/_ext/458109090/libaria_macros.o
 .debug_abbrev  0x00018512       0xda build/default/production/_ext/2065038297/gfx_display_def.o
 .debug_abbrev  0x000185ec      0x197 build/default/production/_ext/2065038297/gfx_driver_def.o
 .debug_abbrev  0x00018783       0xf8 build/default/production/_ext/2065038297/gfx_processor_def.o
 .debug_abbrev  0x0001887b      0x2ca build/default/production/_ext/639803181/sys_clk_pic32mx.o
 .debug_abbrev  0x00018b45      0x27b build/default/production/_ext/340578644/sys_devcon.o
 .debug_abbrev  0x00018dc0      0x20f build/default/production/_ext/340578644/sys_devcon_pic32mx.o
 .debug_abbrev  0x00018fcf      0x282 build/default/production/_ext/822048611/sys_ports_static.o
 .debug_abbrev  0x00019251      0x28a build/default/production/_ext/74298950/bsp.o
 .debug_abbrev  0x000194db      0x239 build/default/production/_ext/1688732426/system_init.o
 .debug_abbrev  0x00019714      0x122 build/default/production/_ext/1688732426/system_interrupt.o
 .debug_abbrev  0x00019836      0x158 build/default/production/_ext/1688732426/system_exceptions.o
 .debug_abbrev  0x0001998e      0x176 build/default/production/_ext/1688732426/system_tasks.o
 .debug_abbrev  0x00019b04       0x62 c:/program files (x86)/microchip/xc32/v2.30/bin/bin/../../lib/gcc/pic32mx/4.8.3\libgcc.a(floatunsisf.o)
 .debug_abbrev  0x00019b66       0x28 c:/program files (x86)/microchip/xc32/v2.30/bin/bin/../../lib/gcc/pic32mx/4.8.3/../../../../pic32mx/lib\libpic32.a(default-bootstrap-exception-handler.o)
 .debug_abbrev  0x00019b8e       0x28 c:/program files (x86)/microchip/xc32/v2.30/bin/bin/../../lib/gcc/pic32mx/4.8.3/../../../../pic32mx/lib\libpic32.a(default-on-reset.o)
 .debug_abbrev  0x00019bb6       0x28 c:/program files (x86)/microchip/xc32/v2.30/bin/bin/../../lib/gcc/pic32mx/4.8.3/../../../../pic32mx/lib\libpic32.a(default-on-bootstrap.o)
 .debug_abbrev  0x00019bde       0x28 c:/program files (x86)/microchip/xc32/v2.30/bin/bin/../../lib/gcc/pic32mx/4.8.3/../../../../pic32mx/lib\libpic32.a(defaultinterrupt.o)
 .debug_abbrev  0x00019c06       0x28 c:/program files (x86)/microchip/xc32/v2.30/bin/bin/../../lib/gcc/pic32mx/4.8.3/../../../../pic32mx/lib\libc.a(fassert.o)
 .debug_abbrev  0x00019c2e       0x28 c:/program files (x86)/microchip/xc32/v2.30/bin/bin/../../lib/gcc/pic32mx/4.8.3/../../../../pic32mx/lib\libc.a(calloc.o)
 .debug_abbrev  0x00019c56       0x47 c:/program files (x86)/microchip/xc32/v2.30/bin/bin/../../lib/gcc/pic32mx/4.8.3/../../../../pic32mx/lib\libc.a(malloc.o)
 .debug_abbrev  0x00019c9d       0x3e c:/program files (x86)/microchip/xc32/v2.30/bin/bin/../../lib/gcc/pic32mx/4.8.3/../../../../pic32mx/lib\libc.a(signal.o)
 .debug_abbrev  0x00019cdb       0x28 c:/program files (x86)/microchip/xc32/v2.30/bin/bin/../../lib/gcc/pic32mx/4.8.3/../../../../pic32mx/lib\libc.a(exit.o)
 .debug_abbrev  0x00019d03       0x28 c:/program files (x86)/microchip/xc32/v2.30/bin/bin/../../lib/gcc/pic32mx/4.8.3/../../../../pic32mx/lib\libc.a(stdclean_simple.o)
 .debug_abbrev  0x00019d2b       0x28 c:/program files (x86)/microchip/xc32/v2.30/bin/bin/../../lib/gcc/pic32mx/4.8.3/../../../../pic32mx/lib\libc.a(fprintf_cdnopsuxX.eo)
 .debug_abbrev  0x00019d53       0x28 c:/program files (x86)/microchip/xc32/v2.30/bin/bin/../../lib/gcc/pic32mx/4.8.3/../../../../pic32mx/lib\libc.a(sprintf_cdnopuxX.eo)
 .debug_abbrev  0x00019d7b       0x28 c:/program files (x86)/microchip/xc32/v2.30/bin/bin/../../lib/gcc/pic32mx/4.8.3/../../../../pic32mx/lib\libc.a(doprnt_cdnopsuxX.eo)
 .debug_abbrev  0x00019da3       0x28 c:/program files (x86)/microchip/xc32/v2.30/bin/bin/../../lib/gcc/pic32mx/4.8.3/../../../../pic32mx/lib\libc.a(_fputc_simple.o)
 .debug_abbrev  0x00019dcb       0x28 c:/program files (x86)/microchip/xc32/v2.30/bin/bin/../../lib/gcc/pic32mx/4.8.3/../../../../pic32mx/lib\libc.a(_flsbuf_simple.o)
 .debug_abbrev  0x00019df3      0x138 c:/program files (x86)/microchip/xc32/v2.30/bin/bin/../../lib/gcc/pic32mx/4.8.3\libgcc.a(_udivdi3.o)
 .debug_abbrev  0x00019f2b      0x147 c:/program files (x86)/microchip/xc32/v2.30/bin/bin/../../lib/gcc/pic32mx/4.8.3\libgcc.a(_umoddi3.o)
 .debug_abbrev  0x0001a072       0x54 c:/program files (x86)/microchip/xc32/v2.30/bin/bin/../../lib/gcc/pic32mx/4.8.3/../../../../pic32mx/lib\libpic32.a(sbrk.o)
 .debug_abbrev  0x0001a0c6       0x28 c:/program files (x86)/microchip/xc32/v2.30/bin/bin/../../lib/gcc/pic32mx/4.8.3/../../../../pic32mx/lib\libpic32.a(write.o)
 .debug_abbrev  0x0001a0ee       0x28 c:/program files (x86)/microchip/xc32/v2.30/bin/bin/../../lib/gcc/pic32mx/4.8.3/../../../../pic32mx/lib\libpic32.a(_mon_putc.o)

.debug_line     0x00000000    0x2ff61
 *(.debug_line)
 .debug_line    0x00000000      0x1be build/default/production/_ext/1360937237/app.o
 .debug_line    0x000001be       0xc9 build/default/production/_ext/1360937237/main.o
 .debug_line    0x00000287      0x1fa build/default/production/_ext/658260392/jidctint.o
 .debug_line    0x00000481      0x5fe build/default/production/_ext/1963452113/gfxu_image_jpg_common.o
 .debug_line    0x00000a7f      0x34d build/default/production/_ext/1963452113/gfxu_image_jpg_internal.o
 .debug_line    0x00000dcc      0x2fd build/default/production/_ext/1963452113/gfxu_image_jpg_external.o
 .debug_line    0x000010c9      0x3bd build/default/production/_ext/1963452113/gfxu_image_png_external.o
 .debug_line    0x00001486      0x3e7 build/default/production/_ext/1963452113/gfxu_image_png_internal.o
 .debug_line    0x0000186d     0x1d45 build/default/production/_ext/308360523/lodepng.o
 .debug_line    0x000035b2      0x357 build/default/production/_ext/1963452113/gfxu_image.o
 .debug_line    0x00003909      0x3c3 build/default/production/_ext/1963452113/gfxu_image_raw_external.o
 .debug_line    0x00003ccc      0x2d3 build/default/production/_ext/1963452113/gfxu_image_raw_internal.o
 .debug_line    0x00003f9f      0x40b build/default/production/_ext/1963452113/gfxu_image_rle_external.o
 .debug_line    0x000043aa      0x39b build/default/production/_ext/1963452113/gfxu_image_rle_internal.o
 .debug_line    0x00004745      0x3a0 build/default/production/_ext/1963452113/gfxu_image_utils.o
 .debug_line    0x00004ae5      0x258 build/default/production/_ext/1963452113/gfxu_palette.o
 .debug_line    0x00004d3d      0x35b build/default/production/_ext/1963452113/gfxu_string.o
 .debug_line    0x00005098      0x340 build/default/production/_ext/1963452113/gfxu_string_external.o
 .debug_line    0x000053d8      0x34b build/default/production/_ext/1963452113/gfxu_stringbuffer_external.o
 .debug_line    0x00005723      0x2ac build/default/production/_ext/1963452113/gfxu_string_internal.o
 .debug_line    0x000059cf      0x441 build/default/production/_ext/1963452113/gfxu_string_query.o
 .debug_line    0x00005e10      0x56f build/default/production/_ext/1963452113/gfxu_string_utils.o
 .debug_line    0x0000637f      0x43b build/default/production/_ext/1071800814/libaria.o
 .debug_line    0x000067ba      0x570 build/default/production/_ext/1071800814/libaria_array.o
 .debug_line    0x00006d2a      0x7f3 build/default/production/_ext/1071800814/libaria_context.o
 .debug_line    0x0000751d      0x575 build/default/production/_ext/1071800814/libaria_context_paint.o
 .debug_line    0x00007a92      0x29f build/default/production/_ext/1071800814/libaria_draw.o
 .debug_line    0x00007d31      0x44a build/default/production/_ext/1071800814/libaria_editwidget.o
 .debug_line    0x0000817b      0x43f build/default/production/_ext/1071800814/libaria_event.o
 .debug_line    0x000085ba      0x5c8 build/default/production/_ext/1071800814/libaria_input.o
 .debug_line    0x00008b82      0x7ec build/default/production/_ext/1071800814/libaria_layer.o
 .debug_line    0x0000936e      0x56a build/default/production/_ext/1071800814/libaria_list.o
 .debug_line    0x000098d8      0x5c3 build/default/production/_ext/1071800814/libaria_rectarray.o
 .debug_line    0x00009e9b      0x229 build/default/production/_ext/1071800814/libaria_scheme.o
 .debug_line    0x0000a0c4      0x5f4 build/default/production/_ext/1071800814/libaria_screen.o
 .debug_line    0x0000a6b8      0x89e build/default/production/_ext/1071800814/libaria_string.o
 .debug_line    0x0000af56      0x7b7 build/default/production/_ext/1071800814/libaria_utils.o
 .debug_line    0x0000b70d      0xae0 build/default/production/_ext/1071800814/libaria_widget.o
 .debug_line    0x0000c1ed      0x43f build/default/production/_ext/1071800814/libaria_widget_skin_classic.o
 .debug_line    0x0000c62c      0x691 build/default/production/_ext/1071800814/libaria_widget_skin_classic_common.o
 .debug_line    0x0000ccbd      0x518 build/default/production/_ext/1071800814/libaria_widget_arc.o
 .debug_line    0x0000d1d5      0x577 build/default/production/_ext/1071800814/libaria_widget_arc_skin_classic.o
 .debug_line    0x0000d74c      0x8c4 build/default/production/_ext/1071800814/libaria_widget_bar_graph.o
 .debug_line    0x0000e010      0x7ed build/default/production/_ext/1071800814/libaria_widget_bar_graph_skin_classic.o
 .debug_line    0x0000e7fd      0x7a5 build/default/production/_ext/1071800814/libaria_widget_button.o
 .debug_line    0x0000efa2      0x6b2 build/default/production/_ext/1071800814/libaria_widget_button_skin_classic.o
 .debug_line    0x0000f654      0x707 build/default/production/_ext/1071800814/libaria_widget_checkbox.o
 .debug_line    0x0000fd5b      0x64a build/default/production/_ext/1071800814/libaria_widget_checkbox_skin_classic.o
 .debug_line    0x000103a5      0x48d build/default/production/_ext/1071800814/libaria_widget_circle.o
 .debug_line    0x00010832      0x53a build/default/production/_ext/1071800814/libaria_widget_circle_skin_classic.o
 .debug_line    0x00010d6c      0x8b4 build/default/production/_ext/1071800814/libaria_widget_circular_gauge.o
 .debug_line    0x00011620      0x6f7 build/default/production/_ext/1071800814/libaria_widget_circular_gauge_skin_classic.o
 .debug_line    0x00011d17      0x885 build/default/production/_ext/1071800814/libaria_widget_circular_slider.o
 .debug_line    0x0001259c      0x5b7 build/default/production/_ext/1071800814/libaria_widget_circular_slider_skin_classic.o
 .debug_line    0x00012b53      0x466 build/default/production/_ext/1071800814/libaria_widget_drawsurface.o
 .debug_line    0x00012fb9      0x4bd build/default/production/_ext/1071800814/libaria_widget_drawsurface_skin_classic.o
 .debug_line    0x00013476      0x461 build/default/production/_ext/1071800814/libaria_widget_gradient.o
 .debug_line    0x000138d7      0x530 build/default/production/_ext/1071800814/libaria_widget_gradient_skin_classic.o
 .debug_line    0x00013e07      0x4ec build/default/production/_ext/1071800814/libaria_widget_groupbox.o
 .debug_line    0x000142f3      0x5e6 build/default/production/_ext/1071800814/libaria_widget_groupbox_skin_classic.o
 .debug_line    0x000148d9      0x556 build/default/production/_ext/1071800814/libaria_widget_image.o
 .debug_line    0x00014e2f      0x559 build/default/production/_ext/1071800814/libaria_widget_image_skin_classic.o
 .debug_line    0x00015388      0x6ea build/default/production/_ext/1071800814/libaria_widget_imageplus.o
 .debug_line    0x00015a72      0x5a4 build/default/production/_ext/1071800814/libaria_widget_imageplus_skin_classic.o
 .debug_line    0x00016016      0x68a build/default/production/_ext/1071800814/libaria_widget_imagesequence.o
 .debug_line    0x000166a0      0x561 build/default/production/_ext/1071800814/libaria_widget_imagesequence_skin_classic.o
 .debug_line    0x00016c01      0x747 build/default/production/_ext/1071800814/libaria_widget_keypad.o
 .debug_line    0x00017348      0x49a build/default/production/_ext/1071800814/libaria_widget_keypad_skin_classic.o
 .debug_line    0x000177e2      0x526 build/default/production/_ext/1071800814/libaria_widget_label.o
 .debug_line    0x00017d08      0x5e4 build/default/production/_ext/1071800814/libaria_widget_label_skin_classic.o
 .debug_line    0x000182ec      0x488 build/default/production/_ext/1071800814/libaria_widget_line.o
 .debug_line    0x00018774      0x53e build/default/production/_ext/1071800814/libaria_widget_line_skin_classic.o
 .debug_line    0x00018cb2      0x9da build/default/production/_ext/1071800814/libaria_widget_line_graph.o
 .debug_line    0x0001968c      0x934 build/default/production/_ext/1071800814/libaria_widget_line_graph_skin_classic.o
 .debug_line    0x00019fc0      0x958 build/default/production/_ext/1071800814/libaria_widget_list.o
 .debug_line    0x0001a918      0x728 build/default/production/_ext/1071800814/libaria_widget_list_skin_classic.o
 .debug_line    0x0001b040      0xa13 build/default/production/_ext/1071800814/libaria_widget_listwheel.o
 .debug_line    0x0001ba53      0x849 build/default/production/_ext/1071800814/libaria_widget_listwheel_skin_classic.o
 .debug_line    0x0001c29c      0x724 build/default/production/_ext/1071800814/libaria_widget_pie_chart.o
 .debug_line    0x0001c9c0      0x5ff build/default/production/_ext/1071800814/libaria_widget_pie_chart_skin_classic.o
 .debug_line    0x0001cfbf      0x506 build/default/production/_ext/1071800814/libaria_widget_progressbar.o
 .debug_line    0x0001d4c5      0x580 build/default/production/_ext/1071800814/libaria_widget_progressbar_skin_classic.o
 .debug_line    0x0001da45      0x9fa build/default/production/_ext/1071800814/libaria_widget_radial_menu.o
 .debug_line    0x0001e43f      0x5e8 build/default/production/_ext/1071800814/libaria_widget_radial_menu_skin_classic.o
 .debug_line    0x0001ea27      0x780 build/default/production/_ext/1071800814/libaria_widget_radiobutton.o
 .debug_line    0x0001f1a7      0x6d6 build/default/production/_ext/1071800814/libaria_widget_radiobutton_skin_classic.o
 .debug_line    0x0001f87d      0x4c3 build/default/production/_ext/1071800814/libaria_radiobutton_group.o
 .debug_line    0x0001fd40      0x455 build/default/production/_ext/1071800814/libaria_widget_rectangle.o
 .debug_line    0x00020195      0x58a build/default/production/_ext/1071800814/libaria_widget_rectangle_skin_classic.o
 .debug_line    0x0002071f      0x72c build/default/production/_ext/1071800814/libaria_widget_scrollbar.o
 .debug_line    0x00020e4b      0x660 build/default/production/_ext/1071800814/libaria_widget_scrollbar_skin_classic.o
 .debug_line    0x000214ab      0x6aa build/default/production/_ext/1071800814/libaria_widget_slider.o
 .debug_line    0x00021b55      0x54f build/default/production/_ext/1071800814/libaria_widget_slider_skin_classic.o
 .debug_line    0x000220a4      0x714 build/default/production/_ext/1071800814/libaria_widget_textfield.o
 .debug_line    0x000227b8      0x5be build/default/production/_ext/1071800814/libaria_widget_textfield_skin_classic.o
 .debug_line    0x00022d76      0x544 build/default/production/_ext/1071800814/libaria_widget_touchtest.o
 .debug_line    0x000232ba      0x584 build/default/production/_ext/1071800814/libaria_widget_touchtest_skin_classic.o
 .debug_line    0x0002383e      0x559 build/default/production/_ext/1071800814/libaria_widget_window.o
 .debug_line    0x00023d97      0x63a build/default/production/_ext/1071800814/libaria_widget_window_skin_classic.o
 .debug_line    0x000243d1      0x4a9 build/default/production/_ext/676789875/gfx.o
 .debug_line    0x0002487a      0x1e7 build/default/production/_ext/676789875/gfx_color.o
 .debug_line    0x00024a61      0x271 build/default/production/_ext/676789875/gfx_context.o
 .debug_line    0x00024cd2      0xbdf build/default/production/_ext/676789875/gfx_default_impl.o
 .debug_line    0x000258b1      0x1ad build/default/production/_ext/676789875/gfx_display.o
 .debug_line    0x00025a5e      0x29b build/default/production/_ext/676789875/gfx_driver_interface.o
 .debug_line    0x00025cf9      0x63d build/default/production/_ext/676789875/gfx_get.o
 .debug_line    0x00026336      0x1da build/default/production/_ext/676789875/gfx_interface.o
 .debug_line    0x00026510      0x3a9 build/default/production/_ext/676789875/gfx_layer.o
 .debug_line    0x000268b9      0x51b build/default/production/_ext/676789875/gfx_pixel_buffer.o
 .debug_line    0x00026dd4      0x149 build/default/production/_ext/676789875/gfx_processor_interface.o
 .debug_line    0x00026f1d      0x2da build/default/production/_ext/676789875/gfx_rect.o
 .debug_line    0x000271f7      0x331 build/default/production/_ext/676789875/gfx_util.o
 .debug_line    0x00027528      0x5b8 build/default/production/_ext/676789875/gfx_set.o
 .debug_line    0x00027ae0      0x1fc build/default/production/_ext/676789875/gfx_color_blend.o
 .debug_line    0x00027cdc      0x727 build/default/production/_ext/676789875/gfx_color_convert.o
 .debug_line    0x00028403      0x2b6 build/default/production/_ext/676789875/gfx_color_lerp.o
 .debug_line    0x000286b9      0x1a4 build/default/production/_ext/676789875/gfx_color_value.o
 .debug_line    0x0002885d      0x4c2 build/default/production/_ext/676789875/gfx_draw_arc.o
 .debug_line    0x00028d1f      0x35b build/default/production/_ext/676789875/gfx_draw_blit.o
 .debug_line    0x0002907a      0x2b2 build/default/production/_ext/676789875/gfx_draw_circle.o
 .debug_line    0x0002932c      0x2cf build/default/production/_ext/676789875/gfx_draw_ellipse.o
 .debug_line    0x000295fb      0x3b1 build/default/production/_ext/676789875/gfx_draw_line.o
 .debug_line    0x000299ac      0x2d6 build/default/production/_ext/676789875/gfx_draw_pixel.o
 .debug_line    0x00029c82      0x3bd build/default/production/_ext/676789875/gfx_draw_rect.o
 .debug_line    0x0002a03f      0x369 build/default/production/_ext/676789875/gfx_draw_stretchblit.o
 .debug_line    0x0002a3a8      0x3a2 build/default/production/_ext/676789875/gfx_math.o
 .debug_line    0x0002a74a      0x325 build/default/production/_ext/231205469/sys_int_pic32.o
 .debug_line    0x0002aa6f      0x449 build/default/production/_ext/664138601/drv_pmp_static.o
 .debug_line    0x0002aeb8      0x7d0 build/default/production/_ext/347121368/drv_gfx_ssd1926.o
 .debug_line    0x0002b688      0x311 build/default/production/_ext/1689523328/drv_gfx_ssd1289.o
 .debug_line    0x0002b999      0x4dd build/default/production/_ext/458109090/libaria_harmony.o
 .debug_line    0x0002be76      0x3f0 build/default/production/_ext/458109090/libaria_init.o
 .debug_line    0x0002c266      0x149 build/default/production/_ext/458109090/libaria_events.o
 .debug_line    0x0002c3af      0x149 build/default/production/_ext/458109090/libaria_macros.o
 .debug_line    0x0002c4f8      0x1c7 build/default/production/_ext/2065038297/gfx_display_def.o
 .debug_line    0x0002c6bf      0x297 build/default/production/_ext/2065038297/gfx_driver_def.o
 .debug_line    0x0002c956      0x1d4 build/default/production/_ext/2065038297/gfx_processor_def.o
 .debug_line    0x0002cb2a      0x4ec build/default/production/_ext/639803181/sys_clk_pic32mx.o
 .debug_line    0x0002d016      0x6f5 build/default/production/_ext/340578644/sys_devcon.o
 .debug_line    0x0002d70b      0x519 build/default/production/_ext/340578644/sys_devcon_pic32mx.o
 .debug_line    0x0002dc24      0x7bb build/default/production/_ext/822048611/sys_ports_static.o
 .debug_line    0x0002e3df      0x3d7 build/default/production/_ext/74298950/bsp.o
 .debug_line    0x0002e7b6      0x5bd build/default/production/_ext/1688732426/system_init.o
 .debug_line    0x0002ed73      0x149 build/default/production/_ext/1688732426/system_interrupt.o
 .debug_line    0x0002eebc      0x1c7 build/default/production/_ext/1688732426/system_exceptions.o
 .debug_line    0x0002f083      0x2ce build/default/production/_ext/1688732426/system_tasks.o
 .debug_line    0x0002f351       0x94 c:/program files (x86)/microchip/xc32/v2.30/bin/bin/../../lib/gcc/pic32mx/4.8.3\libgcc.a(floatunsisf.o)
 .debug_line    0x0002f3e5       0xa6 c:/program files (x86)/microchip/xc32/v2.30/bin/bin/../../lib/gcc/pic32mx/4.8.3/../../../../pic32mx/lib\libpic32.a(default-bootstrap-exception-handler.o)
 .debug_line    0x0002f48b       0x93 c:/program files (x86)/microchip/xc32/v2.30/bin/bin/../../lib/gcc/pic32mx/4.8.3/../../../../pic32mx/lib\libpic32.a(default-on-reset.o)
 .debug_line    0x0002f51e       0x97 c:/program files (x86)/microchip/xc32/v2.30/bin/bin/../../lib/gcc/pic32mx/4.8.3/../../../../pic32mx/lib\libpic32.a(default-on-bootstrap.o)
 .debug_line    0x0002f5b5       0xa5 c:/program files (x86)/microchip/xc32/v2.30/bin/bin/../../lib/gcc/pic32mx/4.8.3/../../../../pic32mx/lib\libpic32.a(defaultinterrupt.o)
 .debug_line    0x0002f65a       0x7f c:/program files (x86)/microchip/xc32/v2.30/bin/bin/../../lib/gcc/pic32mx/4.8.3/../../../../pic32mx/lib\libc.a(fassert.o)
 .debug_line    0x0002f6d9       0x7e c:/program files (x86)/microchip/xc32/v2.30/bin/bin/../../lib/gcc/pic32mx/4.8.3/../../../../pic32mx/lib\libc.a(calloc.o)
 .debug_line    0x0002f757       0x7e c:/program files (x86)/microchip/xc32/v2.30/bin/bin/../../lib/gcc/pic32mx/4.8.3/../../../../pic32mx/lib\libc.a(malloc.o)
 .debug_line    0x0002f7d5       0x7e c:/program files (x86)/microchip/xc32/v2.30/bin/bin/../../lib/gcc/pic32mx/4.8.3/../../../../pic32mx/lib\libc.a(signal.o)
 .debug_line    0x0002f853       0x7c c:/program files (x86)/microchip/xc32/v2.30/bin/bin/../../lib/gcc/pic32mx/4.8.3/../../../../pic32mx/lib\libc.a(exit.o)
 .debug_line    0x0002f8cf       0x80 c:/program files (x86)/microchip/xc32/v2.30/bin/bin/../../lib/gcc/pic32mx/4.8.3/../../../../pic32mx/lib\libc.a(stdclean_simple.o)
 .debug_line    0x0002f94f       0x7f c:/program files (x86)/microchip/xc32/v2.30/bin/bin/../../lib/gcc/pic32mx/4.8.3/../../../../pic32mx/lib\libc.a(fprintf_cdnopsuxX.eo)
 .debug_line    0x0002f9ce       0x7f c:/program files (x86)/microchip/xc32/v2.30/bin/bin/../../lib/gcc/pic32mx/4.8.3/../../../../pic32mx/lib\libc.a(sprintf_cdnopuxX.eo)
 .debug_line    0x0002fa4d        0x0 c:/program files (x86)/microchip/xc32/v2.30/bin/bin/../../lib/gcc/pic32mx/4.8.3/../../../../pic32mx/lib\libc.a(_iob.o)
 .debug_line    0x0002fa4d       0x7e c:/program files (x86)/microchip/xc32/v2.30/bin/bin/../../lib/gcc/pic32mx/4.8.3/../../../../pic32mx/lib\libc.a(doprnt_cdnopsuxX.eo)
 .debug_line    0x0002facb       0x7d c:/program files (x86)/microchip/xc32/v2.30/bin/bin/../../lib/gcc/pic32mx/4.8.3/../../../../pic32mx/lib\libc.a(_fputc_simple.o)
 .debug_line    0x0002fb48        0x0 c:/program files (x86)/microchip/xc32/v2.30/bin/bin/../../lib/gcc/pic32mx/4.8.3/../../../../pic32mx/lib\libc.a(ctype.o)
 .debug_line    0x0002fb48       0x7e c:/program files (x86)/microchip/xc32/v2.30/bin/bin/../../lib/gcc/pic32mx/4.8.3/../../../../pic32mx/lib\libc.a(_flsbuf_simple.o)
 .debug_line    0x0002fbc6       0xf7 c:/program files (x86)/microchip/xc32/v2.30/bin/bin/../../lib/gcc/pic32mx/4.8.3\libgcc.a(_udivdi3.o)
 .debug_line    0x0002fcbd      0x109 c:/program files (x86)/microchip/xc32/v2.30/bin/bin/../../lib/gcc/pic32mx/4.8.3\libgcc.a(_umoddi3.o)
 .debug_line    0x0002fdc6       0x87 c:/program files (x86)/microchip/xc32/v2.30/bin/bin/../../lib/gcc/pic32mx/4.8.3/../../../../pic32mx/lib\libpic32.a(sbrk.o)
 .debug_line    0x0002fe4d       0x88 c:/program files (x86)/microchip/xc32/v2.30/bin/bin/../../lib/gcc/pic32mx/4.8.3/../../../../pic32mx/lib\libpic32.a(write.o)
 .debug_line    0x0002fed5        0x0 c:/program files (x86)/microchip/xc32/v2.30/bin/bin/../../lib/gcc/pic32mx/4.8.3/../../../../pic32mx/lib\libpic32.a(errno.o)
 .debug_line    0x0002fed5       0x8c c:/program files (x86)/microchip/xc32/v2.30/bin/bin/../../lib/gcc/pic32mx/4.8.3/../../../../pic32mx/lib\libpic32.a(_mon_putc.o)
 .debug_line    0x0002ff61        0x0 c:/program files (x86)/microchip/xc32/v2.30/bin/bin/../../lib/gcc/pic32mx/4.8.3/../../../../pic32mx/lib\libpic32.a(xc32_uart.o)

.debug_frame    0x00000000     0xe660
 *(.debug_frame)
 .debug_frame   0x00000000       0x30 build/default/production/_ext/1360937237/app.o
 .debug_frame   0x00000030       0x28 build/default/production/_ext/1360937237/main.o
 .debug_frame   0x00000058       0x30 build/default/production/_ext/658260392/jidctint.o
 .debug_frame   0x00000088      0x1a0 build/default/production/_ext/1963452113/gfxu_image_jpg_common.o
 .debug_frame   0x00000228       0x50 build/default/production/_ext/1963452113/gfxu_image_jpg_internal.o
 .debug_frame   0x00000278       0x58 build/default/production/_ext/1963452113/gfxu_image_jpg_external.o
 .debug_frame   0x000002d0       0x40 build/default/production/_ext/1963452113/gfxu_image_png_external.o
 .debug_frame   0x00000310       0x90 build/default/production/_ext/1963452113/gfxu_image_png_internal.o
 .debug_frame   0x000003a0      0xe94 build/default/production/_ext/308360523/lodepng.o
 .debug_frame   0x00001234       0x54 build/default/production/_ext/1963452113/gfxu_image.o
 .debug_frame   0x00001288       0x80 build/default/production/_ext/1963452113/gfxu_image_raw_external.o
 .debug_frame   0x00001308       0x38 build/default/production/_ext/1963452113/gfxu_image_raw_internal.o
 .debug_frame   0x00001340       0xc0 build/default/production/_ext/1963452113/gfxu_image_rle_external.o
 .debug_frame   0x00001400       0x40 build/default/production/_ext/1963452113/gfxu_image_rle_internal.o
 .debug_frame   0x00001440      0x120 build/default/production/_ext/1963452113/gfxu_image_utils.o
 .debug_frame   0x00001560       0x20 build/default/production/_ext/1963452113/gfxu_palette.o
 .debug_frame   0x00001580       0xe8 build/default/production/_ext/1963452113/gfxu_string.o
 .debug_frame   0x00001668       0x84 build/default/production/_ext/1963452113/gfxu_string_external.o
 .debug_frame   0x000016ec       0x84 build/default/production/_ext/1963452113/gfxu_stringbuffer_external.o
 .debug_frame   0x00001770       0xa8 build/default/production/_ext/1963452113/gfxu_string_internal.o
 .debug_frame   0x00001818      0x220 build/default/production/_ext/1963452113/gfxu_string_query.o
 .debug_frame   0x00001a38      0x260 build/default/production/_ext/1963452113/gfxu_string_utils.o
 .debug_frame   0x00001c98       0x64 build/default/production/_ext/1071800814/libaria.o
 .debug_frame   0x00001cfc      0x1c0 build/default/production/_ext/1071800814/libaria_array.o
 .debug_frame   0x00001ebc      0x338 build/default/production/_ext/1071800814/libaria_context.o
 .debug_frame   0x000021f4       0x9c build/default/production/_ext/1071800814/libaria_context_paint.o
 .debug_frame   0x00002290       0x9c build/default/production/_ext/1071800814/libaria_draw.o
 .debug_frame   0x0000232c      0x17c build/default/production/_ext/1071800814/libaria_editwidget.o
 .debug_frame   0x000024a8       0xa8 build/default/production/_ext/1071800814/libaria_event.o
 .debug_frame   0x00002550      0x154 build/default/production/_ext/1071800814/libaria_input.o
 .debug_frame   0x000026a4      0x344 build/default/production/_ext/1071800814/libaria_layer.o
 .debug_frame   0x000029e8      0x174 build/default/production/_ext/1071800814/libaria_list.o
 .debug_frame   0x00002b5c      0x208 build/default/production/_ext/1071800814/libaria_rectarray.o
 .debug_frame   0x00002d64       0x38 build/default/production/_ext/1071800814/libaria_scheme.o
 .debug_frame   0x00002d9c      0x190 build/default/production/_ext/1071800814/libaria_screen.o
 .debug_frame   0x00002f2c      0x488 build/default/production/_ext/1071800814/libaria_string.o
 .debug_frame   0x000033b4      0x2ec build/default/production/_ext/1071800814/libaria_utils.o
 .debug_frame   0x000036a0      0x6d8 build/default/production/_ext/1071800814/libaria_widget.o
 .debug_frame   0x00003d78       0x64 build/default/production/_ext/1071800814/libaria_widget_skin_classic.o
 .debug_frame   0x00003ddc      0x334 build/default/production/_ext/1071800814/libaria_widget_skin_classic_common.o
 .debug_frame   0x00004110      0x154 build/default/production/_ext/1071800814/libaria_widget_arc.o
 .debug_frame   0x00004264       0xc0 build/default/production/_ext/1071800814/libaria_widget_arc_skin_classic.o
 .debug_frame   0x00004324      0x51c build/default/production/_ext/1071800814/libaria_widget_bar_graph.o
 .debug_frame   0x00004840      0x140 build/default/production/_ext/1071800814/libaria_widget_bar_graph_skin_classic.o
 .debug_frame   0x00004980      0x320 build/default/production/_ext/1071800814/libaria_widget_button.o
 .debug_frame   0x00004ca0      0x18c build/default/production/_ext/1071800814/libaria_widget_button_skin_classic.o
 .debug_frame   0x00004e2c      0x2f0 build/default/production/_ext/1071800814/libaria_widget_checkbox.o
 .debug_frame   0x0000511c      0x154 build/default/production/_ext/1071800814/libaria_widget_checkbox_skin_classic.o
 .debug_frame   0x00005270       0xc4 build/default/production/_ext/1071800814/libaria_widget_circle.o
 .debug_frame   0x00005334       0x9c build/default/production/_ext/1071800814/libaria_widget_circle_skin_classic.o
 .debug_frame   0x000053d0      0x4e4 build/default/production/_ext/1071800814/libaria_widget_circular_gauge.o
 .debug_frame   0x000058b4       0xf8 build/default/production/_ext/1071800814/libaria_widget_circular_gauge_skin_classic.o
 .debug_frame   0x000059ac      0x398 build/default/production/_ext/1071800814/libaria_widget_circular_slider.o
 .debug_frame   0x00005d44       0xa4 build/default/production/_ext/1071800814/libaria_widget_circular_slider_skin_classic.o
 .debug_frame   0x00005de8       0x98 build/default/production/_ext/1071800814/libaria_widget_drawsurface.o
 .debug_frame   0x00005e80       0x98 build/default/production/_ext/1071800814/libaria_widget_drawsurface_skin_classic.o
 .debug_frame   0x00005f18       0x98 build/default/production/_ext/1071800814/libaria_widget_gradient.o
 .debug_frame   0x00005fb0       0x84 build/default/production/_ext/1071800814/libaria_widget_gradient_skin_classic.o
 .debug_frame   0x00006034       0xf8 build/default/production/_ext/1071800814/libaria_widget_groupbox.o
 .debug_frame   0x0000612c      0x130 build/default/production/_ext/1071800814/libaria_widget_groupbox_skin_classic.o
 .debug_frame   0x0000625c      0x130 build/default/production/_ext/1071800814/libaria_widget_image.o
 .debug_frame   0x0000638c       0xe8 build/default/production/_ext/1071800814/libaria_widget_image_skin_classic.o
 .debug_frame   0x00006474      0x27c build/default/production/_ext/1071800814/libaria_widget_imageplus.o
 .debug_frame   0x000066f0       0xc0 build/default/production/_ext/1071800814/libaria_widget_imageplus_skin_classic.o
 .debug_frame   0x000067b0      0x240 build/default/production/_ext/1071800814/libaria_widget_imagesequence.o
 .debug_frame   0x000069f0       0xe8 build/default/production/_ext/1071800814/libaria_widget_imagesequence_skin_classic.o
 .debug_frame   0x00006ad8      0x3dc build/default/production/_ext/1071800814/libaria_widget_keypad.o
 .debug_frame   0x00006eb4       0x98 build/default/production/_ext/1071800814/libaria_widget_keypad_skin_classic.o
 .debug_frame   0x00006f4c      0x140 build/default/production/_ext/1071800814/libaria_widget_label.o
 .debug_frame   0x0000708c       0xf8 build/default/production/_ext/1071800814/libaria_widget_label_skin_classic.o
 .debug_frame   0x00007184       0xbc build/default/production/_ext/1071800814/libaria_widget_line.o
 .debug_frame   0x00007240       0x9c build/default/production/_ext/1071800814/libaria_widget_line_skin_classic.o
 .debug_frame   0x000072dc      0x660 build/default/production/_ext/1071800814/libaria_widget_line_graph.o
 .debug_frame   0x0000793c      0x164 build/default/production/_ext/1071800814/libaria_widget_line_graph_skin_classic.o
 .debug_frame   0x00007aa0      0x4b0 build/default/production/_ext/1071800814/libaria_widget_list.o
 .debug_frame   0x00007f50      0x1e0 build/default/production/_ext/1071800814/libaria_widget_list_skin_classic.o
 .debug_frame   0x00008130      0x554 build/default/production/_ext/1071800814/libaria_widget_listwheel.o
 .debug_frame   0x00008684      0x210 build/default/production/_ext/1071800814/libaria_widget_listwheel_skin_classic.o
 .debug_frame   0x00008894      0x328 build/default/production/_ext/1071800814/libaria_widget_pie_chart.o
 .debug_frame   0x00008bbc       0xac build/default/production/_ext/1071800814/libaria_widget_pie_chart_skin_classic.o
 .debug_frame   0x00008c68       0xe8 build/default/production/_ext/1071800814/libaria_widget_progressbar.o
 .debug_frame   0x00008d50       0xc8 build/default/production/_ext/1071800814/libaria_widget_progressbar_skin_classic.o
 .debug_frame   0x00008e18      0x47c build/default/production/_ext/1071800814/libaria_widget_radial_menu.o
 .debug_frame   0x00009294       0xc8 build/default/production/_ext/1071800814/libaria_widget_radial_menu_skin_classic.o
 .debug_frame   0x0000935c      0x324 build/default/production/_ext/1071800814/libaria_widget_radiobutton.o
 .debug_frame   0x00009680      0x158 build/default/production/_ext/1071800814/libaria_widget_radiobutton_skin_classic.o
 .debug_frame   0x000097d8       0xac build/default/production/_ext/1071800814/libaria_radiobutton_group.o
 .debug_frame   0x00009884       0x78 build/default/production/_ext/1071800814/libaria_widget_rectangle.o
 .debug_frame   0x000098fc       0xc4 build/default/production/_ext/1071800814/libaria_widget_rectangle_skin_classic.o
 .debug_frame   0x000099c0      0x300 build/default/production/_ext/1071800814/libaria_widget_scrollbar.o
 .debug_frame   0x00009cc0      0x168 build/default/production/_ext/1071800814/libaria_widget_scrollbar_skin_classic.o
 .debug_frame   0x00009e28      0x298 build/default/production/_ext/1071800814/libaria_widget_slider.o
 .debug_frame   0x0000a0c0       0xfc build/default/production/_ext/1071800814/libaria_widget_slider_skin_classic.o
 .debug_frame   0x0000a1bc      0x33c build/default/production/_ext/1071800814/libaria_widget_textfield.o
 .debug_frame   0x0000a4f8      0x12c build/default/production/_ext/1071800814/libaria_widget_textfield_skin_classic.o
 .debug_frame   0x0000a624      0x138 build/default/production/_ext/1071800814/libaria_widget_touchtest.o
 .debug_frame   0x0000a75c       0xcc build/default/production/_ext/1071800814/libaria_widget_touchtest_skin_classic.o
 .debug_frame   0x0000a828      0x164 build/default/production/_ext/1071800814/libaria_widget_window.o
 .debug_frame   0x0000a98c      0x19c build/default/production/_ext/1071800814/libaria_widget_window_skin_classic.o
 .debug_frame   0x0000ab28      0x1cc build/default/production/_ext/676789875/gfx.o
 .debug_frame   0x0000acf4       0x60 build/default/production/_ext/676789875/gfx_color.o
 .debug_frame   0x0000ad54       0x40 build/default/production/_ext/676789875/gfx_context.o
 .debug_frame   0x0000ad94      0xbc4 build/default/production/_ext/676789875/gfx_default_impl.o
 .debug_frame   0x0000b958       0x20 build/default/production/_ext/676789875/gfx_display.o
 .debug_frame   0x0000b978       0x4c build/default/production/_ext/676789875/gfx_driver_interface.o
 .debug_frame   0x0000b9c4      0x51c build/default/production/_ext/676789875/gfx_get.o
 .debug_frame   0x0000bee0       0xdc build/default/production/_ext/676789875/gfx_layer.o
 .debug_frame   0x0000bfbc      0x318 build/default/production/_ext/676789875/gfx_pixel_buffer.o
 .debug_frame   0x0000c2d4       0xf0 build/default/production/_ext/676789875/gfx_rect.o
 .debug_frame   0x0000c3c4      0x148 build/default/production/_ext/676789875/gfx_util.o
 .debug_frame   0x0000c50c      0x49c build/default/production/_ext/676789875/gfx_set.o
 .debug_frame   0x0000c9a8       0x34 build/default/production/_ext/676789875/gfx_color_blend.o
 .debug_frame   0x0000c9dc      0x48c build/default/production/_ext/676789875/gfx_color_convert.o
 .debug_frame   0x0000ce68      0x158 build/default/production/_ext/676789875/gfx_color_lerp.o
 .debug_frame   0x0000cfc0       0x2c build/default/production/_ext/676789875/gfx_color_value.o
 .debug_frame   0x0000cfec       0xc8 build/default/production/_ext/676789875/gfx_draw_arc.o
 .debug_frame   0x0000d0b4       0xd4 build/default/production/_ext/676789875/gfx_draw_blit.o
 .debug_frame   0x0000d188       0x5c build/default/production/_ext/676789875/gfx_draw_circle.o
 .debug_frame   0x0000d1e4       0x64 build/default/production/_ext/676789875/gfx_draw_ellipse.o
 .debug_frame   0x0000d248      0x128 build/default/production/_ext/676789875/gfx_draw_line.o
 .debug_frame   0x0000d370       0x98 build/default/production/_ext/676789875/gfx_draw_pixel.o
 .debug_frame   0x0000d408      0x110 build/default/production/_ext/676789875/gfx_draw_rect.o
 .debug_frame   0x0000d518       0x98 build/default/production/_ext/676789875/gfx_draw_stretchblit.o
 .debug_frame   0x0000d5b0      0x1e0 build/default/production/_ext/676789875/gfx_math.o
 .debug_frame   0x0000d790       0xa0 build/default/production/_ext/231205469/sys_int_pic32.o
 .debug_frame   0x0000d830       0x60 build/default/production/_ext/664138601/drv_pmp_static.o
 .debug_frame   0x0000d890      0x260 build/default/production/_ext/347121368/drv_gfx_ssd1926.o
 .debug_frame   0x0000daf0       0xac build/default/production/_ext/1689523328/drv_gfx_ssd1289.o
 .debug_frame   0x0000db9c       0x48 build/default/production/_ext/458109090/libaria_harmony.o
 .debug_frame   0x0000dbe4       0x4c build/default/production/_ext/458109090/libaria_init.o
 .debug_frame   0x0000dc30       0x20 build/default/production/_ext/2065038297/gfx_driver_def.o
 .debug_frame   0x0000dc50       0x20 build/default/production/_ext/2065038297/gfx_processor_def.o
 .debug_frame   0x0000dc70       0xa4 build/default/production/_ext/639803181/sys_clk_pic32mx.o
 .debug_frame   0x0000dd14       0xf4 build/default/production/_ext/340578644/sys_devcon.o
 .debug_frame   0x0000de08       0x2c build/default/production/_ext/340578644/sys_devcon_pic32mx.o
 .debug_frame   0x0000de34      0x270 build/default/production/_ext/822048611/sys_ports_static.o
 .debug_frame   0x0000e0a4       0xbc build/default/production/_ext/74298950/bsp.o
 .debug_frame   0x0000e160       0x2c build/default/production/_ext/1688732426/system_init.o
 .debug_frame   0x0000e18c       0x28 build/default/production/_ext/1688732426/system_exceptions.o
 .debug_frame   0x0000e1b4       0x2c build/default/production/_ext/1688732426/system_tasks.o
 .debug_frame   0x0000e1e0       0x30 c:/program files (x86)/microchip/xc32/v2.30/bin/bin/../../lib/gcc/pic32mx/4.8.3\libgcc.a(floatunsisf.o)
 .debug_frame   0x0000e210       0x2c c:/program files (x86)/microchip/xc32/v2.30/bin/bin/../../lib/gcc/pic32mx/4.8.3/../../../../pic32mx/lib\libpic32.a(default-bootstrap-exception-handler.o)
 .debug_frame   0x0000e23c       0x20 c:/program files (x86)/microchip/xc32/v2.30/bin/bin/../../lib/gcc/pic32mx/4.8.3/../../../../pic32mx/lib\libpic32.a(default-on-reset.o)
 .debug_frame   0x0000e25c       0x20 c:/program files (x86)/microchip/xc32/v2.30/bin/bin/../../lib/gcc/pic32mx/4.8.3/../../../../pic32mx/lib\libpic32.a(default-on-bootstrap.o)
 .debug_frame   0x0000e27c       0x20 c:/program files (x86)/microchip/xc32/v2.30/bin/bin/../../lib/gcc/pic32mx/4.8.3/../../../../pic32mx/lib\libpic32.a(defaultinterrupt.o)
 .debug_frame   0x0000e29c       0x28 c:/program files (x86)/microchip/xc32/v2.30/bin/bin/../../lib/gcc/pic32mx/4.8.3/../../../../pic32mx/lib\libc.a(fassert.o)
 .debug_frame   0x0000e2c4       0x2c c:/program files (x86)/microchip/xc32/v2.30/bin/bin/../../lib/gcc/pic32mx/4.8.3/../../../../pic32mx/lib\libc.a(calloc.o)
 .debug_frame   0x0000e2f0       0x7c c:/program files (x86)/microchip/xc32/v2.30/bin/bin/../../lib/gcc/pic32mx/4.8.3/../../../../pic32mx/lib\libc.a(malloc.o)
 .debug_frame   0x0000e36c       0x5c c:/program files (x86)/microchip/xc32/v2.30/bin/bin/../../lib/gcc/pic32mx/4.8.3/../../../../pic32mx/lib\libc.a(signal.o)
 .debug_frame   0x0000e3c8       0x28 c:/program files (x86)/microchip/xc32/v2.30/bin/bin/../../lib/gcc/pic32mx/4.8.3/../../../../pic32mx/lib\libc.a(exit.o)
 .debug_frame   0x0000e3f0       0x20 c:/program files (x86)/microchip/xc32/v2.30/bin/bin/../../lib/gcc/pic32mx/4.8.3/../../../../pic32mx/lib\libc.a(stdclean_simple.o)
 .debug_frame   0x0000e410       0x2c c:/program files (x86)/microchip/xc32/v2.30/bin/bin/../../lib/gcc/pic32mx/4.8.3/../../../../pic32mx/lib\libc.a(fprintf_cdnopsuxX.eo)
 .debug_frame   0x0000e43c       0x2c c:/program files (x86)/microchip/xc32/v2.30/bin/bin/../../lib/gcc/pic32mx/4.8.3/../../../../pic32mx/lib\libc.a(sprintf_cdnopuxX.eo)
 .debug_frame   0x0000e468       0x40 c:/program files (x86)/microchip/xc32/v2.30/bin/bin/../../lib/gcc/pic32mx/4.8.3/../../../../pic32mx/lib\libc.a(doprnt_cdnopsuxX.eo)
 .debug_frame   0x0000e4a8       0x30 c:/program files (x86)/microchip/xc32/v2.30/bin/bin/../../lib/gcc/pic32mx/4.8.3/../../../../pic32mx/lib\libc.a(_fputc_simple.o)
 .debug_frame   0x0000e4d8       0x38 c:/program files (x86)/microchip/xc32/v2.30/bin/bin/../../lib/gcc/pic32mx/4.8.3/../../../../pic32mx/lib\libc.a(_flsbuf_simple.o)
 .debug_frame   0x0000e510       0x20 c:/program files (x86)/microchip/xc32/v2.30/bin/bin/../../lib/gcc/pic32mx/4.8.3\libgcc.a(_udivdi3.o)
 .debug_frame   0x0000e530       0x20 c:/program files (x86)/microchip/xc32/v2.30/bin/bin/../../lib/gcc/pic32mx/4.8.3\libgcc.a(_umoddi3.o)
 .debug_frame   0x0000e550       0xa4 c:/program files (x86)/microchip/xc32/v2.30/bin/bin/../../lib/gcc/pic32mx/4.8.3/../../../../pic32mx/lib\libpic32.a(sbrk.o)
 .debug_frame   0x0000e5f4       0x38 c:/program files (x86)/microchip/xc32/v2.30/bin/bin/../../lib/gcc/pic32mx/4.8.3/../../../../pic32mx/lib\libpic32.a(write.o)
 .debug_frame   0x0000e62c       0x34 c:/program files (x86)/microchip/xc32/v2.30/bin/bin/../../lib/gcc/pic32mx/4.8.3/../../../../pic32mx/lib\libpic32.a(_mon_putc.o)

.debug_str      0x00000000     0x3a7c
 *(.debug_str)
 .debug_str     0x00000000        0x0 build/default/production/_ext/1360937237/app.o
 .debug_str     0x00000000        0x0 build/default/production/_ext/1360937237/main.o
 .debug_str     0x00000000        0x0 build/default/production/_ext/658260392/jidctint.o
 .debug_str     0x00000000       0x32 build/default/production/_ext/1963452113/gfxu_image_jpg_common.o
 .debug_str     0x00000032        0xf build/default/production/_ext/1963452113/gfxu_image_jpg_internal.o
 .debug_str     0x00000041        0xf build/default/production/_ext/1963452113/gfxu_image_jpg_external.o
 .debug_str     0x00000050       0x7c build/default/production/_ext/1963452113/gfxu_image_png_external.o
 .debug_str     0x000000cc       0x7c build/default/production/_ext/1963452113/gfxu_image_png_internal.o
 .debug_str     0x00000148      0x482 build/default/production/_ext/308360523/lodepng.o
 .debug_str     0x000005ca        0xd build/default/production/_ext/1963452113/gfxu_image.o
 .debug_str     0x000005d7       0x1b build/default/production/_ext/1963452113/gfxu_image_raw_external.o
 .debug_str     0x000005f2       0x3e build/default/production/_ext/1963452113/gfxu_image_raw_internal.o
 .debug_str     0x00000630       0x1b build/default/production/_ext/1963452113/gfxu_image_rle_external.o
 .debug_str     0x0000064b       0xb8 build/default/production/_ext/1963452113/gfxu_image_rle_internal.o
 .debug_str     0x00000703        0x6 build/default/production/_ext/1963452113/gfxu_image_utils.o
 .debug_str     0x00000709        0x0 build/default/production/_ext/1963452113/gfxu_palette.o
 .debug_str     0x00000709       0x4a build/default/production/_ext/1963452113/gfxu_string.o
 .debug_str     0x00000753       0x38 build/default/production/_ext/1963452113/gfxu_string_external.o
 .debug_str     0x0000078b       0x31 build/default/production/_ext/1963452113/gfxu_stringbuffer_external.o
 .debug_str     0x000007bc       0x4c build/default/production/_ext/1963452113/gfxu_string_internal.o
 .debug_str     0x00000808       0x52 build/default/production/_ext/1963452113/gfxu_string_query.o
 .debug_str     0x0000085a       0xc0 build/default/production/_ext/1963452113/gfxu_string_utils.o
 .debug_str     0x0000091a       0x4d build/default/production/_ext/1071800814/libaria.o
 .debug_str     0x00000967       0x39 build/default/production/_ext/1071800814/libaria_array.o
 .debug_str     0x000009a0       0x9e build/default/production/_ext/1071800814/libaria_context.o
 .debug_str     0x00000a3e       0x82 build/default/production/_ext/1071800814/libaria_context_paint.o
 .debug_str     0x00000ac0       0x3e build/default/production/_ext/1071800814/libaria_draw.o
 .debug_str     0x00000afe       0x43 build/default/production/_ext/1071800814/libaria_editwidget.o
 .debug_str     0x00000b41       0x41 build/default/production/_ext/1071800814/libaria_event.o
 .debug_str     0x00000b82       0x61 build/default/production/_ext/1071800814/libaria_input.o
 .debug_str     0x00000be3       0x69 build/default/production/_ext/1071800814/libaria_layer.o
 .debug_str     0x00000c4c       0x44 build/default/production/_ext/1071800814/libaria_list.o
 .debug_str     0x00000c90       0x42 build/default/production/_ext/1071800814/libaria_rectarray.o
 .debug_str     0x00000cd2        0x0 build/default/production/_ext/1071800814/libaria_scheme.o
 .debug_str     0x00000cd2       0x58 build/default/production/_ext/1071800814/libaria_screen.o
 .debug_str     0x00000d2a       0x78 build/default/production/_ext/1071800814/libaria_string.o
 .debug_str     0x00000da2       0xf0 build/default/production/_ext/1071800814/libaria_utils.o
 .debug_str     0x00000e92       0x81 build/default/production/_ext/1071800814/libaria_widget.o
 .debug_str     0x00000f13       0x39 build/default/production/_ext/1071800814/libaria_widget_skin_classic.o
 .debug_str     0x00000f4c       0x9c build/default/production/_ext/1071800814/libaria_widget_skin_classic_common.o
 .debug_str     0x00000fe8       0x4c build/default/production/_ext/1071800814/libaria_widget_arc.o
 .debug_str     0x00001034       0x54 build/default/production/_ext/1071800814/libaria_widget_arc_skin_classic.o
 .debug_str     0x00001088       0xa4 build/default/production/_ext/1071800814/libaria_widget_bar_graph.o
 .debug_str     0x0000112c      0x104 build/default/production/_ext/1071800814/libaria_widget_bar_graph_skin_classic.o
 .debug_str     0x00001230       0x9e build/default/production/_ext/1071800814/libaria_widget_button.o
 .debug_str     0x000012ce       0xa6 build/default/production/_ext/1071800814/libaria_widget_button_skin_classic.o
 .debug_str     0x00001374       0x90 build/default/production/_ext/1071800814/libaria_widget_checkbox.o
 .debug_str     0x00001404       0xab build/default/production/_ext/1071800814/libaria_widget_checkbox_skin_classic.o
 .debug_str     0x000014af       0x42 build/default/production/_ext/1071800814/libaria_widget_circle.o
 .debug_str     0x000014f1       0x54 build/default/production/_ext/1071800814/libaria_widget_circle_skin_classic.o
 .debug_str     0x00001545       0xbb build/default/production/_ext/1071800814/libaria_widget_circular_gauge.o
 .debug_str     0x00001600       0xf3 build/default/production/_ext/1071800814/libaria_widget_circular_gauge_skin_classic.o
 .debug_str     0x000016f3       0x94 build/default/production/_ext/1071800814/libaria_widget_circular_slider.o
 .debug_str     0x00001787       0x6d build/default/production/_ext/1071800814/libaria_widget_circular_slider_skin_classic.o
 .debug_str     0x000017f4       0x42 build/default/production/_ext/1071800814/libaria_widget_drawsurface.o
 .debug_str     0x00001836       0x42 build/default/production/_ext/1071800814/libaria_widget_drawsurface_skin_classic.o
 .debug_str     0x00001878       0x42 build/default/production/_ext/1071800814/libaria_widget_gradient.o
 .debug_str     0x000018ba       0x54 build/default/production/_ext/1071800814/libaria_widget_gradient_skin_classic.o
 .debug_str     0x0000190e       0x54 build/default/production/_ext/1071800814/libaria_widget_groupbox.o
 .debug_str     0x00001962       0x82 build/default/production/_ext/1071800814/libaria_widget_groupbox_skin_classic.o
 .debug_str     0x000019e4       0x65 build/default/production/_ext/1071800814/libaria_widget_image.o
 .debug_str     0x00001a49       0x83 build/default/production/_ext/1071800814/libaria_widget_image_skin_classic.o
 .debug_str     0x00001acc       0x80 build/default/production/_ext/1071800814/libaria_widget_imageplus.o
 .debug_str     0x00001b4c       0x5e build/default/production/_ext/1071800814/libaria_widget_imageplus_skin_classic.o
 .debug_str     0x00001baa       0x53 build/default/production/_ext/1071800814/libaria_widget_imagesequence.o
 .debug_str     0x00001bfd       0x83 build/default/production/_ext/1071800814/libaria_widget_imagesequence_skin_classic.o
 .debug_str     0x00001c80       0x7b build/default/production/_ext/1071800814/libaria_widget_keypad.o
 .debug_str     0x00001cfb       0x4a build/default/production/_ext/1071800814/libaria_widget_keypad_skin_classic.o
 .debug_str     0x00001d45       0x54 build/default/production/_ext/1071800814/libaria_widget_label.o
 .debug_str     0x00001d99       0x79 build/default/production/_ext/1071800814/libaria_widget_label_skin_classic.o
 .debug_str     0x00001e12       0x47 build/default/production/_ext/1071800814/libaria_widget_line.o
 .debug_str     0x00001e59       0x54 build/default/production/_ext/1071800814/libaria_widget_line_skin_classic.o
 .debug_str     0x00001ead       0xa4 build/default/production/_ext/1071800814/libaria_widget_line_graph.o
 .debug_str     0x00001f51      0x11d build/default/production/_ext/1071800814/libaria_widget_line_graph_skin_classic.o
 .debug_str     0x0000206e       0xaa build/default/production/_ext/1071800814/libaria_widget_list.o
 .debug_str     0x00002118       0xb6 build/default/production/_ext/1071800814/libaria_widget_list_skin_classic.o
 .debug_str     0x000021ce       0xa7 build/default/production/_ext/1071800814/libaria_widget_listwheel.o
 .debug_str     0x00002275       0xf0 build/default/production/_ext/1071800814/libaria_widget_listwheel_skin_classic.o
 .debug_str     0x00002365       0x94 build/default/production/_ext/1071800814/libaria_widget_pie_chart.o
 .debug_str     0x000023f9       0x8f build/default/production/_ext/1071800814/libaria_widget_pie_chart_skin_classic.o
 .debug_str     0x00002488       0x54 build/default/production/_ext/1071800814/libaria_widget_progressbar.o
 .debug_str     0x000024dc       0x54 build/default/production/_ext/1071800814/libaria_widget_progressbar_skin_classic.o
 .debug_str     0x00002530       0x95 build/default/production/_ext/1071800814/libaria_widget_radial_menu.o
 .debug_str     0x000025c5       0x66 build/default/production/_ext/1071800814/libaria_widget_radial_menu_skin_classic.o
 .debug_str     0x0000262b       0xca build/default/production/_ext/1071800814/libaria_widget_radiobutton.o
 .debug_str     0x000026f5       0xb7 build/default/production/_ext/1071800814/libaria_widget_radiobutton_skin_classic.o
 .debug_str     0x000027ac       0x77 build/default/production/_ext/1071800814/libaria_radiobutton_group.o
 .debug_str     0x00002823       0x47 build/default/production/_ext/1071800814/libaria_widget_rectangle.o
 .debug_str     0x0000286a       0x54 build/default/production/_ext/1071800814/libaria_widget_rectangle_skin_classic.o
 .debug_str     0x000028be       0x5e build/default/production/_ext/1071800814/libaria_widget_scrollbar.o
 .debug_str     0x0000291c       0x7f build/default/production/_ext/1071800814/libaria_widget_scrollbar_skin_classic.o
 .debug_str     0x0000299b       0x59 build/default/production/_ext/1071800814/libaria_widget_slider.o
 .debug_str     0x000029f4       0x6a build/default/production/_ext/1071800814/libaria_widget_slider_skin_classic.o
 .debug_str     0x00002a5e       0x84 build/default/production/_ext/1071800814/libaria_widget_textfield.o
 .debug_str     0x00002ae2       0x86 build/default/production/_ext/1071800814/libaria_widget_textfield_skin_classic.o
 .debug_str     0x00002b68       0x59 build/default/production/_ext/1071800814/libaria_widget_touchtest.o
 .debug_str     0x00002bc1       0x76 build/default/production/_ext/1071800814/libaria_widget_touchtest_skin_classic.o
 .debug_str     0x00002c37       0x65 build/default/production/_ext/1071800814/libaria_widget_window.o
 .debug_str     0x00002c9c       0xac build/default/production/_ext/1071800814/libaria_widget_window_skin_classic.o
 .debug_str     0x00002d48       0x77 build/default/production/_ext/676789875/gfx.o
 .debug_str     0x00002dbf        0x0 build/default/production/_ext/676789875/gfx_color.o
 .debug_str     0x00002dbf       0x5a build/default/production/_ext/676789875/gfx_context.o
 .debug_str     0x00002e19       0xf0 build/default/production/_ext/676789875/gfx_default_impl.o
 .debug_str     0x00002f09       0x23 build/default/production/_ext/676789875/gfx_display.o
 .debug_str     0x00002f2c       0x68 build/default/production/_ext/676789875/gfx_driver_interface.o
 .debug_str     0x00002f94       0xa2 build/default/production/_ext/676789875/gfx_get.o
 .debug_str     0x00003036        0x0 build/default/production/_ext/676789875/gfx_interface.o
 .debug_str     0x00003036       0x7c build/default/production/_ext/676789875/gfx_layer.o
 .debug_str     0x000030b2       0x54 build/default/production/_ext/676789875/gfx_pixel_buffer.o
 .debug_str     0x00003106        0x0 build/default/production/_ext/676789875/gfx_processor_interface.o
 .debug_str     0x00003106        0xe build/default/production/_ext/676789875/gfx_rect.o
 .debug_str     0x00003114       0x23 build/default/production/_ext/676789875/gfx_util.o
 .debug_str     0x00003137       0x95 build/default/production/_ext/676789875/gfx_set.o
 .debug_str     0x000031cc        0x0 build/default/production/_ext/676789875/gfx_color_blend.o
 .debug_str     0x000031cc       0x73 build/default/production/_ext/676789875/gfx_color_convert.o
 .debug_str     0x0000323f       0x19 build/default/production/_ext/676789875/gfx_color_lerp.o
 .debug_str     0x00003258        0x0 build/default/production/_ext/676789875/gfx_color_value.o
 .debug_str     0x00003258       0x8e build/default/production/_ext/676789875/gfx_draw_arc.o
 .debug_str     0x000032e6       0xa4 build/default/production/_ext/676789875/gfx_draw_blit.o
 .debug_str     0x0000338a       0x60 build/default/production/_ext/676789875/gfx_draw_circle.o
 .debug_str     0x000033ea       0x7e build/default/production/_ext/676789875/gfx_draw_ellipse.o
 .debug_str     0x00003468       0x73 build/default/production/_ext/676789875/gfx_draw_line.o
 .debug_str     0x000034db       0x68 build/default/production/_ext/676789875/gfx_draw_pixel.o
 .debug_str     0x00003543       0x7f build/default/production/_ext/676789875/gfx_draw_rect.o
 .debug_str     0x000035c2       0xb2 build/default/production/_ext/676789875/gfx_draw_stretchblit.o
 .debug_str     0x00003674        0x8 build/default/production/_ext/676789875/gfx_math.o
 .debug_str     0x0000367c       0x1d build/default/production/_ext/231205469/sys_int_pic32.o
 .debug_str     0x00003699       0x49 build/default/production/_ext/664138601/drv_pmp_static.o
 .debug_str     0x000036e2      0x1d2 build/default/production/_ext/347121368/drv_gfx_ssd1926.o
 .debug_str     0x000038b4        0x0 build/default/production/_ext/1689523328/drv_gfx_ssd1289.o
 .debug_str     0x000038b4       0x4d build/default/production/_ext/458109090/libaria_harmony.o
 .debug_str     0x00003901       0x31 build/default/production/_ext/458109090/libaria_init.o
 .debug_str     0x00003932        0x0 build/default/production/_ext/458109090/libaria_events.o
 .debug_str     0x00003932        0x0 build/default/production/_ext/458109090/libaria_macros.o
 .debug_str     0x00003932       0x23 build/default/production/_ext/2065038297/gfx_display_def.o
 .debug_str     0x00003955       0x68 build/default/production/_ext/2065038297/gfx_driver_def.o
 .debug_str     0x000039bd        0x0 build/default/production/_ext/2065038297/gfx_processor_def.o
 .debug_str     0x000039bd       0x39 build/default/production/_ext/639803181/sys_clk_pic32mx.o
 .debug_str     0x000039f6       0x16 build/default/production/_ext/340578644/sys_devcon.o
 .debug_str     0x00003a0c        0x6 build/default/production/_ext/340578644/sys_devcon_pic32mx.o
 .debug_str     0x00003a12       0x55 build/default/production/_ext/822048611/sys_ports_static.o
 .debug_str     0x00003a67       0x15 build/default/production/_ext/74298950/bsp.o
 .debug_str     0x00003a7c        0x0 build/default/production/_ext/1688732426/system_init.o
 .debug_str     0x00003a7c        0x0 build/default/production/_ext/1688732426/system_interrupt.o
 .debug_str     0x00003a7c        0x0 build/default/production/_ext/1688732426/system_exceptions.o
 .debug_str     0x00003a7c        0x0 build/default/production/_ext/1688732426/system_tasks.o
 .debug_str     0x00003a7c        0x0 c:/program files (x86)/microchip/xc32/v2.30/bin/bin/../../lib/gcc/pic32mx/4.8.3\libgcc.a(floatunsisf.o)
 .debug_str     0x00003a7c        0x0 c:/program files (x86)/microchip/xc32/v2.30/bin/bin/../../lib/gcc/pic32mx/4.8.3/../../../../pic32mx/lib\libpic32.a(default-bootstrap-exception-handler.o)
 .debug_str     0x00003a7c        0x0 c:/program files (x86)/microchip/xc32/v2.30/bin/bin/../../lib/gcc/pic32mx/4.8.3/../../../../pic32mx/lib\libpic32.a(default-on-reset.o)
 .debug_str     0x00003a7c        0x0 c:/program files (x86)/microchip/xc32/v2.30/bin/bin/../../lib/gcc/pic32mx/4.8.3/../../../../pic32mx/lib\libpic32.a(default-on-bootstrap.o)
 .debug_str     0x00003a7c        0x0 c:/program files (x86)/microchip/xc32/v2.30/bin/bin/../../lib/gcc/pic32mx/4.8.3/../../../../pic32mx/lib\libpic32.a(defaultinterrupt.o)
 .debug_str     0x00003a7c        0x0 c:/program files (x86)/microchip/xc32/v2.30/bin/bin/../../lib/gcc/pic32mx/4.8.3/../../../../pic32mx/lib\libc.a(fassert.o)
 .debug_str     0x00003a7c        0x0 c:/program files (x86)/microchip/xc32/v2.30/bin/bin/../../lib/gcc/pic32mx/4.8.3/../../../../pic32mx/lib\libc.a(calloc.o)
 .debug_str     0x00003a7c        0x0 c:/program files (x86)/microchip/xc32/v2.30/bin/bin/../../lib/gcc/pic32mx/4.8.3/../../../../pic32mx/lib\libc.a(malloc.o)
 .debug_str     0x00003a7c        0x0 c:/program files (x86)/microchip/xc32/v2.30/bin/bin/../../lib/gcc/pic32mx/4.8.3/../../../../pic32mx/lib\libc.a(signal.o)
 .debug_str     0x00003a7c        0x0 c:/program files (x86)/microchip/xc32/v2.30/bin/bin/../../lib/gcc/pic32mx/4.8.3/../../../../pic32mx/lib\libc.a(exit.o)
 .debug_str     0x00003a7c        0x0 c:/program files (x86)/microchip/xc32/v2.30/bin/bin/../../lib/gcc/pic32mx/4.8.3/../../../../pic32mx/lib\libc.a(stdclean_simple.o)
 .debug_str     0x00003a7c        0x0 c:/program files (x86)/microchip/xc32/v2.30/bin/bin/../../lib/gcc/pic32mx/4.8.3/../../../../pic32mx/lib\libc.a(fprintf_cdnopsuxX.eo)
 .debug_str     0x00003a7c        0x0 c:/program files (x86)/microchip/xc32/v2.30/bin/bin/../../lib/gcc/pic32mx/4.8.3/../../../../pic32mx/lib\libc.a(sprintf_cdnopuxX.eo)
 .debug_str     0x00003a7c        0x0 c:/program files (x86)/microchip/xc32/v2.30/bin/bin/../../lib/gcc/pic32mx/4.8.3/../../../../pic32mx/lib\libc.a(_iob.o)
 .debug_str     0x00003a7c        0x0 c:/program files (x86)/microchip/xc32/v2.30/bin/bin/../../lib/gcc/pic32mx/4.8.3/../../../../pic32mx/lib\libc.a(doprnt_cdnopsuxX.eo)
 .debug_str     0x00003a7c        0x0 c:/program files (x86)/microchip/xc32/v2.30/bin/bin/../../lib/gcc/pic32mx/4.8.3/../../../../pic32mx/lib\libc.a(_fputc_simple.o)
 .debug_str     0x00003a7c        0x0 c:/program files (x86)/microchip/xc32/v2.30/bin/bin/../../lib/gcc/pic32mx/4.8.3/../../../../pic32mx/lib\libc.a(ctype.o)
 .debug_str     0x00003a7c        0x0 c:/program files (x86)/microchip/xc32/v2.30/bin/bin/../../lib/gcc/pic32mx/4.8.3/../../../../pic32mx/lib\libc.a(_flsbuf_simple.o)
 .debug_str     0x00003a7c        0x0 c:/program files (x86)/microchip/xc32/v2.30/bin/bin/../../lib/gcc/pic32mx/4.8.3\libgcc.a(_udivdi3.o)
 .debug_str     0x00003a7c        0x0 c:/program files (x86)/microchip/xc32/v2.30/bin/bin/../../lib/gcc/pic32mx/4.8.3\libgcc.a(_umoddi3.o)
 .debug_str     0x00003a7c        0x0 c:/program files (x86)/microchip/xc32/v2.30/bin/bin/../../lib/gcc/pic32mx/4.8.3/../../../../pic32mx/lib\libpic32.a(sbrk.o)
 .debug_str     0x00003a7c        0x0 c:/program files (x86)/microchip/xc32/v2.30/bin/bin/../../lib/gcc/pic32mx/4.8.3/../../../../pic32mx/lib\libpic32.a(write.o)
 .debug_str     0x00003a7c        0x0 c:/program files (x86)/microchip/xc32/v2.30/bin/bin/../../lib/gcc/pic32mx/4.8.3/../../../../pic32mx/lib\libpic32.a(errno.o)
 .debug_str     0x00003a7c        0x0 c:/program files (x86)/microchip/xc32/v2.30/bin/bin/../../lib/gcc/pic32mx/4.8.3/../../../../pic32mx/lib\libpic32.a(_mon_putc.o)
 .debug_str     0x00003a7c        0x0 c:/program files (x86)/microchip/xc32/v2.30/bin/bin/../../lib/gcc/pic32mx/4.8.3/../../../../pic32mx/lib\libpic32.a(xc32_uart.o)

.debug_loc      0x00000000    0x4674f
 *(.debug_loc)
 .debug_loc     0x00000000       0x14 build/default/production/_ext/1360937237/app.o
 .debug_loc     0x00000014     0x146c build/default/production/_ext/658260392/jidctint.o
 .debug_loc     0x00001480      0xa18 build/default/production/_ext/1963452113/gfxu_image_jpg_common.o
 .debug_loc     0x00001e98      0x230 build/default/production/_ext/1963452113/gfxu_image_jpg_internal.o
 .debug_loc     0x000020c8      0x2a0 build/default/production/_ext/1963452113/gfxu_image_jpg_external.o
 .debug_loc     0x00002368      0x24c build/default/production/_ext/1963452113/gfxu_image_png_external.o
 .debug_loc     0x000025b4      0x2bd build/default/production/_ext/1963452113/gfxu_image_png_internal.o
 .debug_loc     0x00002871     0xf684 build/default/production/_ext/308360523/lodepng.o
 .debug_loc     0x00011ef5      0x2a2 build/default/production/_ext/1963452113/gfxu_image.o
 .debug_loc     0x00012197      0x4bb build/default/production/_ext/1963452113/gfxu_image_raw_external.o
 .debug_loc     0x00012652      0x297 build/default/production/_ext/1963452113/gfxu_image_raw_internal.o
 .debug_loc     0x000128e9      0x5b8 build/default/production/_ext/1963452113/gfxu_image_rle_external.o
 .debug_loc     0x00012ea1      0x694 build/default/production/_ext/1963452113/gfxu_image_rle_internal.o
 .debug_loc     0x00013535      0x260 build/default/production/_ext/1963452113/gfxu_image_utils.o
 .debug_loc     0x00013795      0xcfd build/default/production/_ext/1963452113/gfxu_string.o
 .debug_loc     0x00014492      0x37c build/default/production/_ext/1963452113/gfxu_string_external.o
 .debug_loc     0x0001480e      0x3d8 build/default/production/_ext/1963452113/gfxu_stringbuffer_external.o
 .debug_loc     0x00014be6      0x63f build/default/production/_ext/1963452113/gfxu_string_internal.o
 .debug_loc     0x00015225     0x1192 build/default/production/_ext/1963452113/gfxu_string_query.o
 .debug_loc     0x000163b7     0x1b68 build/default/production/_ext/1963452113/gfxu_string_utils.o
 .debug_loc     0x00017f1f       0x34 build/default/production/_ext/1071800814/libaria.o
 .debug_loc     0x00017f53      0x4ee build/default/production/_ext/1071800814/libaria_array.o
 .debug_loc     0x00018441      0x8e7 build/default/production/_ext/1071800814/libaria_context.o
 .debug_loc     0x00018d28      0x249 build/default/production/_ext/1071800814/libaria_context_paint.o
 .debug_loc     0x00018f71      0x288 build/default/production/_ext/1071800814/libaria_draw.o
 .debug_loc     0x000191f9       0xd2 build/default/production/_ext/1071800814/libaria_editwidget.o
 .debug_loc     0x000192cb      0x128 build/default/production/_ext/1071800814/libaria_event.o
 .debug_loc     0x000193f3      0x6c5 build/default/production/_ext/1071800814/libaria_input.o
 .debug_loc     0x00019ab8      0x80f build/default/production/_ext/1071800814/libaria_layer.o
 .debug_loc     0x0001a2c7      0x69e build/default/production/_ext/1071800814/libaria_list.o
 .debug_loc     0x0001a965      0x56b build/default/production/_ext/1071800814/libaria_rectarray.o
 .debug_loc     0x0001aed0       0x58 build/default/production/_ext/1071800814/libaria_scheme.o
 .debug_loc     0x0001af28      0x2dd build/default/production/_ext/1071800814/libaria_screen.o
 .debug_loc     0x0001b205     0x139b build/default/production/_ext/1071800814/libaria_string.o
 .debug_loc     0x0001c5a0     0x12f5 build/default/production/_ext/1071800814/libaria_utils.o
 .debug_loc     0x0001d895     0x1319 build/default/production/_ext/1071800814/libaria_widget.o
 .debug_loc     0x0001ebae       0xbb build/default/production/_ext/1071800814/libaria_widget_skin_classic.o
 .debug_loc     0x0001ec69      0xc8a build/default/production/_ext/1071800814/libaria_widget_skin_classic_common.o
 .debug_loc     0x0001f8f3      0x247 build/default/production/_ext/1071800814/libaria_widget_arc.o
 .debug_loc     0x0001fb3a      0x195 build/default/production/_ext/1071800814/libaria_widget_arc_skin_classic.o
 .debug_loc     0x0001fccf     0x123a build/default/production/_ext/1071800814/libaria_widget_bar_graph.o
 .debug_loc     0x00020f09     0x101a build/default/production/_ext/1071800814/libaria_widget_bar_graph_skin_classic.o
 .debug_loc     0x00021f23      0x812 build/default/production/_ext/1071800814/libaria_widget_button.o
 .debug_loc     0x00022735      0x570 build/default/production/_ext/1071800814/libaria_widget_button_skin_classic.o
 .debug_loc     0x00022ca5      0x62c build/default/production/_ext/1071800814/libaria_widget_checkbox.o
 .debug_loc     0x000232d1      0x353 build/default/production/_ext/1071800814/libaria_widget_checkbox_skin_classic.o
 .debug_loc     0x00023624      0x199 build/default/production/_ext/1071800814/libaria_widget_circle.o
 .debug_loc     0x000237bd      0x110 build/default/production/_ext/1071800814/libaria_widget_circle_skin_classic.o
 .debug_loc     0x000238cd      0xf0a build/default/production/_ext/1071800814/libaria_widget_circular_gauge.o
 .debug_loc     0x000247d7      0x536 build/default/production/_ext/1071800814/libaria_widget_circular_gauge_skin_classic.o
 .debug_loc     0x00024d0d      0xcda build/default/production/_ext/1071800814/libaria_widget_circular_slider.o
 .debug_loc     0x000259e7      0x1fa build/default/production/_ext/1071800814/libaria_widget_circular_slider_skin_classic.o
 .debug_loc     0x00025be1       0xeb build/default/production/_ext/1071800814/libaria_widget_drawsurface.o
 .debug_loc     0x00025ccc       0xe4 build/default/production/_ext/1071800814/libaria_widget_drawsurface_skin_classic.o
 .debug_loc     0x00025db0       0xeb build/default/production/_ext/1071800814/libaria_widget_gradient.o
 .debug_loc     0x00025e9b      0x125 build/default/production/_ext/1071800814/libaria_widget_gradient_skin_classic.o
 .debug_loc     0x00025fc0      0x201 build/default/production/_ext/1071800814/libaria_widget_groupbox.o
 .debug_loc     0x000261c1      0x4b0 build/default/production/_ext/1071800814/libaria_widget_groupbox_skin_classic.o
 .debug_loc     0x00026671      0x224 build/default/production/_ext/1071800814/libaria_widget_image.o
 .debug_loc     0x00026895      0x1c0 build/default/production/_ext/1071800814/libaria_widget_image_skin_classic.o
 .debug_loc     0x00026a55      0x508 build/default/production/_ext/1071800814/libaria_widget_imageplus.o
 .debug_loc     0x00026f5d      0x27b build/default/production/_ext/1071800814/libaria_widget_imageplus_skin_classic.o
 .debug_loc     0x000271d8      0x57b build/default/production/_ext/1071800814/libaria_widget_imagesequence.o
 .debug_loc     0x00027753      0x1c0 build/default/production/_ext/1071800814/libaria_widget_imagesequence_skin_classic.o
 .debug_loc     0x00027913     0x124e build/default/production/_ext/1071800814/libaria_widget_keypad.o
 .debug_loc     0x00028b61      0x10b build/default/production/_ext/1071800814/libaria_widget_keypad_skin_classic.o
 .debug_loc     0x00028c6c      0x298 build/default/production/_ext/1071800814/libaria_widget_label.o
 .debug_loc     0x00028f04      0x36a build/default/production/_ext/1071800814/libaria_widget_label_skin_classic.o
 .debug_loc     0x0002926e      0x1d3 build/default/production/_ext/1071800814/libaria_widget_line.o
 .debug_loc     0x00029441      0x110 build/default/production/_ext/1071800814/libaria_widget_line_skin_classic.o
 .debug_loc     0x00029551     0x182b build/default/production/_ext/1071800814/libaria_widget_line_graph.o
 .debug_loc     0x0002ad7c     0x1885 build/default/production/_ext/1071800814/libaria_widget_line_graph_skin_classic.o
 .debug_loc     0x0002c601     0x12da build/default/production/_ext/1071800814/libaria_widget_list.o
 .debug_loc     0x0002d8db      0x619 build/default/production/_ext/1071800814/libaria_widget_list_skin_classic.o
 .debug_loc     0x0002def4     0x1193 build/default/production/_ext/1071800814/libaria_widget_listwheel.o
 .debug_loc     0x0002f087      0xd7d build/default/production/_ext/1071800814/libaria_widget_listwheel_skin_classic.o
 .debug_loc     0x0002fe04      0xda5 build/default/production/_ext/1071800814/libaria_widget_pie_chart.o
 .debug_loc     0x00030ba9      0x27c build/default/production/_ext/1071800814/libaria_widget_pie_chart_skin_classic.o
 .debug_loc     0x00030e25      0x1c8 build/default/production/_ext/1071800814/libaria_widget_progressbar.o
 .debug_loc     0x00030fed      0x5ed build/default/production/_ext/1071800814/libaria_widget_progressbar_skin_classic.o
 .debug_loc     0x000315da     0x1656 build/default/production/_ext/1071800814/libaria_widget_radial_menu.o
 .debug_loc     0x00032c30      0x297 build/default/production/_ext/1071800814/libaria_widget_radial_menu_skin_classic.o
 .debug_loc     0x00032ec7      0x6aa build/default/production/_ext/1071800814/libaria_widget_radiobutton.o
 .debug_loc     0x00033571      0x444 build/default/production/_ext/1071800814/libaria_widget_radiobutton_skin_classic.o
 .debug_loc     0x000339b5      0x20d build/default/production/_ext/1071800814/libaria_radiobutton_group.o
 .debug_loc     0x00033bc2       0xe2 build/default/production/_ext/1071800814/libaria_widget_rectangle.o
 .debug_loc     0x00033ca4      0x192 build/default/production/_ext/1071800814/libaria_widget_rectangle_skin_classic.o
 .debug_loc     0x00033e36      0x712 build/default/production/_ext/1071800814/libaria_widget_scrollbar.o
 .debug_loc     0x00034548      0x530 build/default/production/_ext/1071800814/libaria_widget_scrollbar_skin_classic.o
 .debug_loc     0x00034a78      0x6c7 build/default/production/_ext/1071800814/libaria_widget_slider.o
 .debug_loc     0x0003513f      0x43d build/default/production/_ext/1071800814/libaria_widget_slider_skin_classic.o
 .debug_loc     0x0003557c      0x5ce build/default/production/_ext/1071800814/libaria_widget_textfield.o
 .debug_loc     0x00035b4a      0x2b2 build/default/production/_ext/1071800814/libaria_widget_textfield_skin_classic.o
 .debug_loc     0x00035dfc      0x264 build/default/production/_ext/1071800814/libaria_widget_touchtest.o
 .debug_loc     0x00036060      0x2c4 build/default/production/_ext/1071800814/libaria_widget_touchtest_skin_classic.o
 .debug_loc     0x00036324      0x2ba build/default/production/_ext/1071800814/libaria_widget_window.o
 .debug_loc     0x000365de      0x3c2 build/default/production/_ext/1071800814/libaria_widget_window_skin_classic.o
 .debug_loc     0x000369a0      0x7ac build/default/production/_ext/676789875/gfx.o
 .debug_loc     0x0003714c       0xa5 build/default/production/_ext/676789875/gfx_color.o
 .debug_loc     0x000371f1     0x1631 build/default/production/_ext/676789875/gfx_default_impl.o
 .debug_loc     0x00038822     0x1023 build/default/production/_ext/676789875/gfx_get.o
 .debug_loc     0x00039845      0xb0c build/default/production/_ext/676789875/gfx_layer.o
 .debug_loc     0x0003a351     0x101e build/default/production/_ext/676789875/gfx_pixel_buffer.o
 .debug_loc     0x0003b36f      0x76b build/default/production/_ext/676789875/gfx_rect.o
 .debug_loc     0x0003bada      0x8e1 build/default/production/_ext/676789875/gfx_util.o
 .debug_loc     0x0003c3bb     0x10aa build/default/production/_ext/676789875/gfx_set.o
 .debug_loc     0x0003d465      0x805 build/default/production/_ext/676789875/gfx_color_blend.o
 .debug_loc     0x0003dc6a     0x1706 build/default/production/_ext/676789875/gfx_color_convert.o
 .debug_loc     0x0003f370      0xf44 build/default/production/_ext/676789875/gfx_color_lerp.o
 .debug_loc     0x000402b4       0x58 build/default/production/_ext/676789875/gfx_color_value.o
 .debug_loc     0x0004030c      0xb67 build/default/production/_ext/676789875/gfx_draw_arc.o
 .debug_loc     0x00040e73      0x571 build/default/production/_ext/676789875/gfx_draw_blit.o
 .debug_loc     0x000413e4      0x23a build/default/production/_ext/676789875/gfx_draw_circle.o
 .debug_loc     0x0004161e      0x3c7 build/default/production/_ext/676789875/gfx_draw_ellipse.o
 .debug_loc     0x000419e5      0x85c build/default/production/_ext/676789875/gfx_draw_line.o
 .debug_loc     0x00042241      0x217 build/default/production/_ext/676789875/gfx_draw_pixel.o
 .debug_loc     0x00042458      0x381 build/default/production/_ext/676789875/gfx_draw_rect.o
 .debug_loc     0x000427d9      0x800 build/default/production/_ext/676789875/gfx_draw_stretchblit.o
 .debug_loc     0x00042fd9      0x89e build/default/production/_ext/676789875/gfx_math.o
 .debug_loc     0x00043877       0x7c build/default/production/_ext/231205469/sys_int_pic32.o
 .debug_loc     0x000438f3      0x9aa build/default/production/_ext/347121368/drv_gfx_ssd1926.o
 .debug_loc     0x0004429d      0x112 build/default/production/_ext/1689523328/drv_gfx_ssd1289.o
 .debug_loc     0x000443af       0x5d build/default/production/_ext/458109090/libaria_init.o
 .debug_loc     0x0004440c       0x49 build/default/production/_ext/639803181/sys_clk_pic32mx.o
 .debug_loc     0x00044455       0xf0 build/default/production/_ext/340578644/sys_devcon.o
 .debug_loc     0x00044545       0xda build/default/production/_ext/340578644/sys_devcon_pic32mx.o
 .debug_loc     0x0004461f      0x73d build/default/production/_ext/822048611/sys_ports_static.o
 .debug_loc     0x00044d5c      0x3bb build/default/production/_ext/74298950/bsp.o
 .debug_loc     0x00045117       0x21 build/default/production/_ext/1688732426/system_init.o
 .debug_loc     0x00045138       0x74 c:/program files (x86)/microchip/xc32/v2.30/bin/bin/../../lib/gcc/pic32mx/4.8.3\libgcc.a(floatunsisf.o)
 .debug_loc     0x000451ac       0x2c c:/program files (x86)/microchip/xc32/v2.30/bin/bin/../../lib/gcc/pic32mx/4.8.3/../../../../pic32mx/lib\libpic32.a(default-bootstrap-exception-handler.o)
 .debug_loc     0x000451d8      0xa6a c:/program files (x86)/microchip/xc32/v2.30/bin/bin/../../lib/gcc/pic32mx/4.8.3\libgcc.a(_udivdi3.o)
 .debug_loc     0x00045c42      0xa3d c:/program files (x86)/microchip/xc32/v2.30/bin/bin/../../lib/gcc/pic32mx/4.8.3\libgcc.a(_umoddi3.o)
 .debug_loc     0x0004667f       0x78 c:/program files (x86)/microchip/xc32/v2.30/bin/bin/../../lib/gcc/pic32mx/4.8.3/../../../../pic32mx/lib\libpic32.a(sbrk.o)
 .debug_loc     0x000466f7       0x38 c:/program files (x86)/microchip/xc32/v2.30/bin/bin/../../lib/gcc/pic32mx/4.8.3/../../../../pic32mx/lib\libpic32.a(write.o)
 .debug_loc     0x0004672f       0x20 c:/program files (x86)/microchip/xc32/v2.30/bin/bin/../../lib/gcc/pic32mx/4.8.3/../../../../pic32mx/lib\libpic32.a(_mon_putc.o)

.debug_macinfo
 *(.debug_macinfo)

.debug_weaknames
 *(.debug_weaknames)

.debug_funcnames
 *(.debug_funcnames)

.debug_typenames
 *(.debug_typenames)

.debug_varnames
 *(.debug_varnames)

.debug_pubtypes
 *(.debug_pubtypes)

.debug_ranges   0x00000000     0x68f8
 *(.debug_ranges)
 .debug_ranges  0x00000000       0x18 build/default/production/_ext/1360937237/app.o
 .debug_ranges  0x00000018       0x10 build/default/production/_ext/1360937237/main.o
 .debug_ranges  0x00000028       0x10 build/default/production/_ext/658260392/jidctint.o
 .debug_ranges  0x00000038       0xd8 build/default/production/_ext/1963452113/gfxu_image_jpg_common.o
 .debug_ranges  0x00000110       0x18 build/default/production/_ext/1963452113/gfxu_image_jpg_internal.o
 .debug_ranges  0x00000128       0x18 build/default/production/_ext/1963452113/gfxu_image_jpg_external.o
 .debug_ranges  0x00000140       0x10 build/default/production/_ext/1963452113/gfxu_image_png_external.o
 .debug_ranges  0x00000150       0x28 build/default/production/_ext/1963452113/gfxu_image_png_internal.o
 .debug_ranges  0x00000178     0x1b18 build/default/production/_ext/308360523/lodepng.o
 .debug_ranges  0x00001c90       0x18 build/default/production/_ext/1963452113/gfxu_image.o
 .debug_ranges  0x00001ca8       0x90 build/default/production/_ext/1963452113/gfxu_image_raw_external.o
 .debug_ranges  0x00001d38       0x48 build/default/production/_ext/1963452113/gfxu_image_raw_internal.o
 .debug_ranges  0x00001d80       0xb0 build/default/production/_ext/1963452113/gfxu_image_rle_external.o
 .debug_ranges  0x00001e30       0x28 build/default/production/_ext/1963452113/gfxu_image_rle_internal.o
 .debug_ranges  0x00001e58       0x78 build/default/production/_ext/1963452113/gfxu_image_utils.o
 .debug_ranges  0x00001ed0       0x10 build/default/production/_ext/1963452113/gfxu_palette.o
 .debug_ranges  0x00001ee0       0x38 build/default/production/_ext/1963452113/gfxu_string.o
 .debug_ranges  0x00001f18       0x90 build/default/production/_ext/1963452113/gfxu_string_external.o
 .debug_ranges  0x00001fa8       0x70 build/default/production/_ext/1963452113/gfxu_stringbuffer_external.o
 .debug_ranges  0x00002018       0x28 build/default/production/_ext/1963452113/gfxu_string_internal.o
 .debug_ranges  0x00002040       0x70 build/default/production/_ext/1963452113/gfxu_string_query.o
 .debug_ranges  0x000020b0       0xb0 build/default/production/_ext/1963452113/gfxu_string_utils.o
 .debug_ranges  0x00002160       0x20 build/default/production/_ext/1071800814/libaria.o
 .debug_ranges  0x00002180       0x90 build/default/production/_ext/1071800814/libaria_array.o
 .debug_ranges  0x00002210      0x108 build/default/production/_ext/1071800814/libaria_context.o
 .debug_ranges  0x00002318       0x28 build/default/production/_ext/1071800814/libaria_context_paint.o
 .debug_ranges  0x00002340       0x28 build/default/production/_ext/1071800814/libaria_draw.o
 .debug_ranges  0x00002368       0x88 build/default/production/_ext/1071800814/libaria_editwidget.o
 .debug_ranges  0x000023f0       0x48 build/default/production/_ext/1071800814/libaria_event.o
 .debug_ranges  0x00002438       0x58 build/default/production/_ext/1071800814/libaria_input.o
 .debug_ranges  0x00002490      0x128 build/default/production/_ext/1071800814/libaria_layer.o
 .debug_ranges  0x000025b8       0x70 build/default/production/_ext/1071800814/libaria_list.o
 .debug_ranges  0x00002628       0x90 build/default/production/_ext/1071800814/libaria_rectarray.o
 .debug_ranges  0x000026b8       0x10 build/default/production/_ext/1071800814/libaria_scheme.o
 .debug_ranges  0x000026c8       0x90 build/default/production/_ext/1071800814/libaria_screen.o
 .debug_ranges  0x00002758      0x150 build/default/production/_ext/1071800814/libaria_string.o
 .debug_ranges  0x000028a8      0x108 build/default/production/_ext/1071800814/libaria_utils.o
 .debug_ranges  0x000029b0      0x240 build/default/production/_ext/1071800814/libaria_widget.o
 .debug_ranges  0x00002bf0       0x20 build/default/production/_ext/1071800814/libaria_widget_skin_classic.o
 .debug_ranges  0x00002c10       0xc8 build/default/production/_ext/1071800814/libaria_widget_skin_classic_common.o
 .debug_ranges  0x00002cd8       0x70 build/default/production/_ext/1071800814/libaria_widget_arc.o
 .debug_ranges  0x00002d48       0x38 build/default/production/_ext/1071800814/libaria_widget_arc_skin_classic.o
 .debug_ranges  0x00002d80      0x178 build/default/production/_ext/1071800814/libaria_widget_bar_graph.o
 .debug_ranges  0x00002ef8      0x198 build/default/production/_ext/1071800814/libaria_widget_bar_graph_skin_classic.o
 .debug_ranges  0x00003090      0x108 build/default/production/_ext/1071800814/libaria_widget_button.o
 .debug_ranges  0x00003198       0x60 build/default/production/_ext/1071800814/libaria_widget_button_skin_classic.o
 .debug_ranges  0x000031f8       0xf8 build/default/production/_ext/1071800814/libaria_widget_checkbox.o
 .debug_ranges  0x000032f0       0x58 build/default/production/_ext/1071800814/libaria_widget_checkbox_skin_classic.o
 .debug_ranges  0x00003348       0x40 build/default/production/_ext/1071800814/libaria_widget_circle.o
 .debug_ranges  0x00003388       0x30 build/default/production/_ext/1071800814/libaria_widget_circle_skin_classic.o
 .debug_ranges  0x000033b8      0x170 build/default/production/_ext/1071800814/libaria_widget_circular_gauge.o
 .debug_ranges  0x00003528       0x58 build/default/production/_ext/1071800814/libaria_widget_circular_gauge_skin_classic.o
 .debug_ranges  0x00003580      0x130 build/default/production/_ext/1071800814/libaria_widget_circular_slider.o
 .debug_ranges  0x000036b0       0x30 build/default/production/_ext/1071800814/libaria_widget_circular_slider_skin_classic.o
 .debug_ranges  0x000036e0       0x30 build/default/production/_ext/1071800814/libaria_widget_drawsurface.o
 .debug_ranges  0x00003710       0x30 build/default/production/_ext/1071800814/libaria_widget_drawsurface_skin_classic.o
 .debug_ranges  0x00003740       0x30 build/default/production/_ext/1071800814/libaria_widget_gradient.o
 .debug_ranges  0x00003770       0x28 build/default/production/_ext/1071800814/libaria_widget_gradient_skin_classic.o
 .debug_ranges  0x00003798       0x48 build/default/production/_ext/1071800814/libaria_widget_groupbox.o
 .debug_ranges  0x000037e0       0x50 build/default/production/_ext/1071800814/libaria_widget_groupbox_skin_classic.o
 .debug_ranges  0x00003830       0x68 build/default/production/_ext/1071800814/libaria_widget_image.o
 .debug_ranges  0x00003898       0x40 build/default/production/_ext/1071800814/libaria_widget_image_skin_classic.o
 .debug_ranges  0x000038d8       0xd8 build/default/production/_ext/1071800814/libaria_widget_imageplus.o
 .debug_ranges  0x000039b0       0x38 build/default/production/_ext/1071800814/libaria_widget_imageplus_skin_classic.o
 .debug_ranges  0x000039e8       0xd0 build/default/production/_ext/1071800814/libaria_widget_imagesequence.o
 .debug_ranges  0x00003ab8       0x40 build/default/production/_ext/1071800814/libaria_widget_imagesequence_skin_classic.o
 .debug_ranges  0x00003af8       0xf8 build/default/production/_ext/1071800814/libaria_widget_keypad.o
 .debug_ranges  0x00003bf0       0x30 build/default/production/_ext/1071800814/libaria_widget_keypad_skin_classic.o
 .debug_ranges  0x00003c20       0x60 build/default/production/_ext/1071800814/libaria_widget_label.o
 .debug_ranges  0x00003c80       0x40 build/default/production/_ext/1071800814/libaria_widget_label_skin_classic.o
 .debug_ranges  0x00003cc0       0x40 build/default/production/_ext/1071800814/libaria_widget_line.o
 .debug_ranges  0x00003d00       0x30 build/default/production/_ext/1071800814/libaria_widget_line_skin_classic.o
 .debug_ranges  0x00003d30      0x1c8 build/default/production/_ext/1071800814/libaria_widget_line_graph.o
 .debug_ranges  0x00003ef8      0x320 build/default/production/_ext/1071800814/libaria_widget_line_graph_skin_classic.o
 .debug_ranges  0x00004218      0x178 build/default/production/_ext/1071800814/libaria_widget_list.o
 .debug_ranges  0x00004390       0x80 build/default/production/_ext/1071800814/libaria_widget_list_skin_classic.o
 .debug_ranges  0x00004410      0x208 build/default/production/_ext/1071800814/libaria_widget_listwheel.o
 .debug_ranges  0x00004618       0xe0 build/default/production/_ext/1071800814/libaria_widget_listwheel_skin_classic.o
 .debug_ranges  0x000046f8      0x170 build/default/production/_ext/1071800814/libaria_widget_pie_chart.o
 .debug_ranges  0x00004868       0x48 build/default/production/_ext/1071800814/libaria_widget_pie_chart_skin_classic.o
 .debug_ranges  0x000048b0       0x50 build/default/production/_ext/1071800814/libaria_widget_progressbar.o
 .debug_ranges  0x00004900       0x38 build/default/production/_ext/1071800814/libaria_widget_progressbar_skin_classic.o
 .debug_ranges  0x00004938      0x1a8 build/default/production/_ext/1071800814/libaria_widget_radial_menu.o
 .debug_ranges  0x00004ae0       0x58 build/default/production/_ext/1071800814/libaria_widget_radial_menu_skin_classic.o
 .debug_ranges  0x00004b38      0x108 build/default/production/_ext/1071800814/libaria_widget_radiobutton.o
 .debug_ranges  0x00004c40       0x70 build/default/production/_ext/1071800814/libaria_widget_radiobutton_skin_classic.o
 .debug_ranges  0x00004cb0       0x30 build/default/production/_ext/1071800814/libaria_radiobutton_group.o
 .debug_ranges  0x00004ce0       0x28 build/default/production/_ext/1071800814/libaria_widget_rectangle.o
 .debug_ranges  0x00004d08       0x38 build/default/production/_ext/1071800814/libaria_widget_rectangle_skin_classic.o
 .debug_ranges  0x00004d40       0xf0 build/default/production/_ext/1071800814/libaria_widget_scrollbar.o
 .debug_ranges  0x00004e30       0x60 build/default/production/_ext/1071800814/libaria_widget_scrollbar_skin_classic.o
 .debug_ranges  0x00004e90       0xd0 build/default/production/_ext/1071800814/libaria_widget_slider.o
 .debug_ranges  0x00004f60       0x48 build/default/production/_ext/1071800814/libaria_widget_slider_skin_classic.o
 .debug_ranges  0x00004fa8      0x100 build/default/production/_ext/1071800814/libaria_widget_textfield.o
 .debug_ranges  0x000050a8       0x50 build/default/production/_ext/1071800814/libaria_widget_textfield_skin_classic.o
 .debug_ranges  0x000050f8       0x60 build/default/production/_ext/1071800814/libaria_widget_touchtest.o
 .debug_ranges  0x00005158       0x38 build/default/production/_ext/1071800814/libaria_widget_touchtest_skin_classic.o
 .debug_ranges  0x00005190       0x68 build/default/production/_ext/1071800814/libaria_widget_window.o
 .debug_ranges  0x000051f8       0x68 build/default/production/_ext/1071800814/libaria_widget_window_skin_classic.o
 .debug_ranges  0x00005260       0x70 build/default/production/_ext/676789875/gfx.o
 .debug_ranges  0x000052d0       0x30 build/default/production/_ext/676789875/gfx_color.o
 .debug_ranges  0x00005300       0x20 build/default/production/_ext/676789875/gfx_context.o
 .debug_ranges  0x00005320      0x358 build/default/production/_ext/676789875/gfx_default_impl.o
 .debug_ranges  0x00005678       0x10 build/default/production/_ext/676789875/gfx_display.o
 .debug_ranges  0x00005688       0x20 build/default/production/_ext/676789875/gfx_driver_interface.o
 .debug_ranges  0x000056a8      0x180 build/default/production/_ext/676789875/gfx_get.o
 .debug_ranges  0x00005828       0x60 build/default/production/_ext/676789875/gfx_layer.o
 .debug_ranges  0x00005888       0xf0 build/default/production/_ext/676789875/gfx_pixel_buffer.o
 .debug_ranges  0x00005978       0x60 build/default/production/_ext/676789875/gfx_rect.o
 .debug_ranges  0x000059d8       0x98 build/default/production/_ext/676789875/gfx_util.o
 .debug_ranges  0x00005a70      0x158 build/default/production/_ext/676789875/gfx_set.o
 .debug_ranges  0x00005bc8       0x80 build/default/production/_ext/676789875/gfx_color_blend.o
 .debug_ranges  0x00005c48      0x1f8 build/default/production/_ext/676789875/gfx_color_convert.o
 .debug_ranges  0x00005e40       0x50 build/default/production/_ext/676789875/gfx_color_lerp.o
 .debug_ranges  0x00005e90       0x10 build/default/production/_ext/676789875/gfx_color_value.o
 .debug_ranges  0x00005ea0       0x38 build/default/production/_ext/676789875/gfx_draw_arc.o
 .debug_ranges  0x00005ed8       0x30 build/default/production/_ext/676789875/gfx_draw_blit.o
 .debug_ranges  0x00005f08       0x18 build/default/production/_ext/676789875/gfx_draw_circle.o
 .debug_ranges  0x00005f20       0x18 build/default/production/_ext/676789875/gfx_draw_ellipse.o
 .debug_ranges  0x00005f38       0x70 build/default/production/_ext/676789875/gfx_draw_line.o
 .debug_ranges  0x00005fa8       0x28 build/default/production/_ext/676789875/gfx_draw_pixel.o
 .debug_ranges  0x00005fd0       0x58 build/default/production/_ext/676789875/gfx_draw_rect.o
 .debug_ranges  0x00006028       0x20 build/default/production/_ext/676789875/gfx_draw_stretchblit.o
 .debug_ranges  0x00006048       0xa8 build/default/production/_ext/676789875/gfx_math.o
 .debug_ranges  0x000060f0       0x50 build/default/production/_ext/231205469/sys_int_pic32.o
 .debug_ranges  0x00006140       0x30 build/default/production/_ext/664138601/drv_pmp_static.o
 .debug_ranges  0x00006170      0x118 build/default/production/_ext/347121368/drv_gfx_ssd1926.o
 .debug_ranges  0x00006288       0x30 build/default/production/_ext/1689523328/drv_gfx_ssd1289.o
 .debug_ranges  0x000062b8       0x18 build/default/production/_ext/458109090/libaria_harmony.o
 .debug_ranges  0x000062d0       0x18 build/default/production/_ext/458109090/libaria_init.o
 .debug_ranges  0x000062e8       0x10 build/default/production/_ext/2065038297/gfx_driver_def.o
 .debug_ranges  0x000062f8       0x10 build/default/production/_ext/2065038297/gfx_processor_def.o
 .debug_ranges  0x00006308       0x40 build/default/production/_ext/639803181/sys_clk_pic32mx.o
 .debug_ranges  0x00006348       0x68 build/default/production/_ext/340578644/sys_devcon.o
 .debug_ranges  0x000063b0       0x10 build/default/production/_ext/340578644/sys_devcon_pic32mx.o
 .debug_ranges  0x000063c0      0x138 build/default/production/_ext/822048611/sys_ports_static.o
 .debug_ranges  0x000064f8      0x100 build/default/production/_ext/74298950/bsp.o
 .debug_ranges  0x000065f8       0x10 build/default/production/_ext/1688732426/system_init.o
 .debug_ranges  0x00006608       0x10 build/default/production/_ext/1688732426/system_exceptions.o
 .debug_ranges  0x00006618       0x10 build/default/production/_ext/1688732426/system_tasks.o
 .debug_ranges  0x00006628       0x10 c:/program files (x86)/microchip/xc32/v2.30/bin/bin/../../lib/gcc/pic32mx/4.8.3/../../../../pic32mx/lib\libpic32.a(default-bootstrap-exception-handler.o)
 .debug_ranges  0x00006638       0x10 c:/program files (x86)/microchip/xc32/v2.30/bin/bin/../../lib/gcc/pic32mx/4.8.3/../../../../pic32mx/lib\libpic32.a(default-on-reset.o)
 .debug_ranges  0x00006648       0x10 c:/program files (x86)/microchip/xc32/v2.30/bin/bin/../../lib/gcc/pic32mx/4.8.3/../../../../pic32mx/lib\libpic32.a(default-on-bootstrap.o)
 .debug_ranges  0x00006658       0x10 c:/program files (x86)/microchip/xc32/v2.30/bin/bin/../../lib/gcc/pic32mx/4.8.3/../../../../pic32mx/lib\libpic32.a(defaultinterrupt.o)
 .debug_ranges  0x00006668       0x10 c:/program files (x86)/microchip/xc32/v2.30/bin/bin/../../lib/gcc/pic32mx/4.8.3/../../../../pic32mx/lib\libc.a(fassert.o)
 .debug_ranges  0x00006678       0x10 c:/program files (x86)/microchip/xc32/v2.30/bin/bin/../../lib/gcc/pic32mx/4.8.3/../../../../pic32mx/lib\libc.a(calloc.o)
 .debug_ranges  0x00006688       0x20 c:/program files (x86)/microchip/xc32/v2.30/bin/bin/../../lib/gcc/pic32mx/4.8.3/../../../../pic32mx/lib\libc.a(malloc.o)
 .debug_ranges  0x000066a8       0x20 c:/program files (x86)/microchip/xc32/v2.30/bin/bin/../../lib/gcc/pic32mx/4.8.3/../../../../pic32mx/lib\libc.a(signal.o)
 .debug_ranges  0x000066c8       0x10 c:/program files (x86)/microchip/xc32/v2.30/bin/bin/../../lib/gcc/pic32mx/4.8.3/../../../../pic32mx/lib\libc.a(exit.o)
 .debug_ranges  0x000066d8       0x10 c:/program files (x86)/microchip/xc32/v2.30/bin/bin/../../lib/gcc/pic32mx/4.8.3/../../../../pic32mx/lib\libc.a(stdclean_simple.o)
 .debug_ranges  0x000066e8       0x10 c:/program files (x86)/microchip/xc32/v2.30/bin/bin/../../lib/gcc/pic32mx/4.8.3/../../../../pic32mx/lib\libc.a(fprintf_cdnopsuxX.eo)
 .debug_ranges  0x000066f8       0x10 c:/program files (x86)/microchip/xc32/v2.30/bin/bin/../../lib/gcc/pic32mx/4.8.3/../../../../pic32mx/lib\libc.a(sprintf_cdnopuxX.eo)
 .debug_ranges  0x00006708       0x10 c:/program files (x86)/microchip/xc32/v2.30/bin/bin/../../lib/gcc/pic32mx/4.8.3/../../../../pic32mx/lib\libc.a(doprnt_cdnopsuxX.eo)
 .debug_ranges  0x00006718       0x10 c:/program files (x86)/microchip/xc32/v2.30/bin/bin/../../lib/gcc/pic32mx/4.8.3/../../../../pic32mx/lib\libc.a(_fputc_simple.o)
 .debug_ranges  0x00006728       0x10 c:/program files (x86)/microchip/xc32/v2.30/bin/bin/../../lib/gcc/pic32mx/4.8.3/../../../../pic32mx/lib\libc.a(_flsbuf_simple.o)
 .debug_ranges  0x00006738       0x98 c:/program files (x86)/microchip/xc32/v2.30/bin/bin/../../lib/gcc/pic32mx/4.8.3\libgcc.a(_udivdi3.o)
 .debug_ranges  0x000067d0       0xd8 c:/program files (x86)/microchip/xc32/v2.30/bin/bin/../../lib/gcc/pic32mx/4.8.3\libgcc.a(_umoddi3.o)
 .debug_ranges  0x000068a8       0x30 c:/program files (x86)/microchip/xc32/v2.30/bin/bin/../../lib/gcc/pic32mx/4.8.3/../../../../pic32mx/lib\libpic32.a(sbrk.o)
 .debug_ranges  0x000068d8       0x10 c:/program files (x86)/microchip/xc32/v2.30/bin/bin/../../lib/gcc/pic32mx/4.8.3/../../../../pic32mx/lib\libpic32.a(write.o)
 .debug_ranges  0x000068e8       0x10 c:/program files (x86)/microchip/xc32/v2.30/bin/bin/../../lib/gcc/pic32mx/4.8.3/../../../../pic32mx/lib\libpic32.a(_mon_putc.o)

.gnu.attributes
                0x00000000       0x10
 *(.gnu.attributes)
 .gnu.attributes
                0x00000000       0x10 build/default/production/_ext/1360937237/app.o
 .gnu.attributes
                0x00000010       0x10 build/default/production/_ext/1360937237/main.o
 .gnu.attributes
                0x00000020       0x10 build/default/production/_ext/658260392/jidctint.o
 .gnu.attributes
                0x00000030       0x10 build/default/production/_ext/1963452113/gfxu_image_jpg_common.o
 .gnu.attributes
                0x00000040       0x10 build/default/production/_ext/1963452113/gfxu_image_jpg_internal.o
 .gnu.attributes
                0x00000050       0x10 build/default/production/_ext/1963452113/gfxu_image_jpg_external.o
 .gnu.attributes
                0x00000060       0x10 build/default/production/_ext/1963452113/gfxu_image_png_external.o
 .gnu.attributes
                0x00000070       0x10 build/default/production/_ext/1963452113/gfxu_image_png_internal.o
 .gnu.attributes
                0x00000080       0x10 build/default/production/_ext/308360523/lodepng.o
 .gnu.attributes
                0x00000090       0x10 build/default/production/_ext/1963452113/gfxu_image.o
 .gnu.attributes
                0x000000a0       0x10 build/default/production/_ext/1963452113/gfxu_image_raw_external.o
 .gnu.attributes
                0x000000b0       0x10 build/default/production/_ext/1963452113/gfxu_image_raw_internal.o
 .gnu.attributes
                0x000000c0       0x10 build/default/production/_ext/1963452113/gfxu_image_rle_external.o
 .gnu.attributes
                0x000000d0       0x10 build/default/production/_ext/1963452113/gfxu_image_rle_internal.o
 .gnu.attributes
                0x000000e0       0x10 build/default/production/_ext/1963452113/gfxu_image_utils.o
 .gnu.attributes
                0x000000f0       0x10 build/default/production/_ext/1963452113/gfxu_palette.o
 .gnu.attributes
                0x00000100       0x10 build/default/production/_ext/1963452113/gfxu_string.o
 .gnu.attributes
                0x00000110       0x10 build/default/production/_ext/1963452113/gfxu_string_external.o
 .gnu.attributes
                0x00000120       0x10 build/default/production/_ext/1963452113/gfxu_stringbuffer_external.o
 .gnu.attributes
                0x00000130       0x10 build/default/production/_ext/1963452113/gfxu_string_internal.o
 .gnu.attributes
                0x00000140       0x10 build/default/production/_ext/1963452113/gfxu_string_query.o
 .gnu.attributes
                0x00000150       0x10 build/default/production/_ext/1963452113/gfxu_string_utils.o
 .gnu.attributes
                0x00000160       0x10 build/default/production/_ext/1071800814/libaria.o
 .gnu.attributes
                0x00000170       0x10 build/default/production/_ext/1071800814/libaria_array.o
 .gnu.attributes
                0x00000180       0x10 build/default/production/_ext/1071800814/libaria_context.o
 .gnu.attributes
                0x00000190       0x10 build/default/production/_ext/1071800814/libaria_context_paint.o
 .gnu.attributes
                0x000001a0       0x10 build/default/production/_ext/1071800814/libaria_draw.o
 .gnu.attributes
                0x000001b0       0x10 build/default/production/_ext/1071800814/libaria_editwidget.o
 .gnu.attributes
                0x000001c0       0x10 build/default/production/_ext/1071800814/libaria_event.o
 .gnu.attributes
                0x000001d0       0x10 build/default/production/_ext/1071800814/libaria_input.o
 .gnu.attributes
                0x000001e0       0x10 build/default/production/_ext/1071800814/libaria_layer.o
 .gnu.attributes
                0x000001f0       0x10 build/default/production/_ext/1071800814/libaria_list.o
 .gnu.attributes
                0x00000200       0x10 build/default/production/_ext/1071800814/libaria_rectarray.o
 .gnu.attributes
                0x00000210       0x10 build/default/production/_ext/1071800814/libaria_scheme.o
 .gnu.attributes
                0x00000220       0x10 build/default/production/_ext/1071800814/libaria_screen.o
 .gnu.attributes
                0x00000230       0x10 build/default/production/_ext/1071800814/libaria_string.o
 .gnu.attributes
                0x00000240       0x10 build/default/production/_ext/1071800814/libaria_utils.o
 .gnu.attributes
                0x00000250       0x10 build/default/production/_ext/1071800814/libaria_widget.o
 .gnu.attributes
                0x00000260       0x10 build/default/production/_ext/1071800814/libaria_widget_skin_classic.o
 .gnu.attributes
                0x00000270       0x10 build/default/production/_ext/1071800814/libaria_widget_skin_classic_common.o
 .gnu.attributes
                0x00000280       0x10 build/default/production/_ext/1071800814/libaria_widget_arc.o
 .gnu.attributes
                0x00000290       0x10 build/default/production/_ext/1071800814/libaria_widget_arc_skin_classic.o
 .gnu.attributes
                0x000002a0       0x10 build/default/production/_ext/1071800814/libaria_widget_bar_graph.o
 .gnu.attributes
                0x000002b0       0x10 build/default/production/_ext/1071800814/libaria_widget_bar_graph_skin_classic.o
 .gnu.attributes
                0x000002c0       0x10 build/default/production/_ext/1071800814/libaria_widget_button.o
 .gnu.attributes
                0x000002d0       0x10 build/default/production/_ext/1071800814/libaria_widget_button_skin_classic.o
 .gnu.attributes
                0x000002e0       0x10 build/default/production/_ext/1071800814/libaria_widget_checkbox.o
 .gnu.attributes
                0x000002f0       0x10 build/default/production/_ext/1071800814/libaria_widget_checkbox_skin_classic.o
 .gnu.attributes
                0x00000300       0x10 build/default/production/_ext/1071800814/libaria_widget_circle.o
 .gnu.attributes
                0x00000310       0x10 build/default/production/_ext/1071800814/libaria_widget_circle_skin_classic.o
 .gnu.attributes
                0x00000320       0x10 build/default/production/_ext/1071800814/libaria_widget_circular_gauge.o
 .gnu.attributes
                0x00000330       0x10 build/default/production/_ext/1071800814/libaria_widget_circular_gauge_skin_classic.o
 .gnu.attributes
                0x00000340       0x10 build/default/production/_ext/1071800814/libaria_widget_circular_slider.o
 .gnu.attributes
                0x00000350       0x10 build/default/production/_ext/1071800814/libaria_widget_circular_slider_skin_classic.o
 .gnu.attributes
                0x00000360       0x10 build/default/production/_ext/1071800814/libaria_widget_drawsurface.o
 .gnu.attributes
                0x00000370       0x10 build/default/production/_ext/1071800814/libaria_widget_drawsurface_skin_classic.o
 .gnu.attributes
                0x00000380       0x10 build/default/production/_ext/1071800814/libaria_widget_gradient.o
 .gnu.attributes
                0x00000390       0x10 build/default/production/_ext/1071800814/libaria_widget_gradient_skin_classic.o
 .gnu.attributes
                0x000003a0       0x10 build/default/production/_ext/1071800814/libaria_widget_groupbox.o
 .gnu.attributes
                0x000003b0       0x10 build/default/production/_ext/1071800814/libaria_widget_groupbox_skin_classic.o
 .gnu.attributes
                0x000003c0       0x10 build/default/production/_ext/1071800814/libaria_widget_image.o
 .gnu.attributes
                0x000003d0       0x10 build/default/production/_ext/1071800814/libaria_widget_image_skin_classic.o
 .gnu.attributes
                0x000003e0       0x10 build/default/production/_ext/1071800814/libaria_widget_imageplus.o
 .gnu.attributes
                0x000003f0       0x10 build/default/production/_ext/1071800814/libaria_widget_imageplus_skin_classic.o
 .gnu.attributes
                0x00000400       0x10 build/default/production/_ext/1071800814/libaria_widget_imagesequence.o
 .gnu.attributes
                0x00000410       0x10 build/default/production/_ext/1071800814/libaria_widget_imagesequence_skin_classic.o
 .gnu.attributes
                0x00000420       0x10 build/default/production/_ext/1071800814/libaria_widget_keypad.o
 .gnu.attributes
                0x00000430       0x10 build/default/production/_ext/1071800814/libaria_widget_keypad_skin_classic.o
 .gnu.attributes
                0x00000440       0x10 build/default/production/_ext/1071800814/libaria_widget_label.o
 .gnu.attributes
                0x00000450       0x10 build/default/production/_ext/1071800814/libaria_widget_label_skin_classic.o
 .gnu.attributes
                0x00000460       0x10 build/default/production/_ext/1071800814/libaria_widget_line.o
 .gnu.attributes
                0x00000470       0x10 build/default/production/_ext/1071800814/libaria_widget_line_skin_classic.o
 .gnu.attributes
                0x00000480       0x10 build/default/production/_ext/1071800814/libaria_widget_line_graph.o
 .gnu.attributes
                0x00000490       0x10 build/default/production/_ext/1071800814/libaria_widget_line_graph_skin_classic.o
 .gnu.attributes
                0x000004a0       0x10 build/default/production/_ext/1071800814/libaria_widget_list.o
 .gnu.attributes
                0x000004b0       0x10 build/default/production/_ext/1071800814/libaria_widget_list_skin_classic.o
 .gnu.attributes
                0x000004c0       0x10 build/default/production/_ext/1071800814/libaria_widget_listwheel.o
 .gnu.attributes
                0x000004d0       0x10 build/default/production/_ext/1071800814/libaria_widget_listwheel_skin_classic.o
 .gnu.attributes
                0x000004e0       0x10 build/default/production/_ext/1071800814/libaria_widget_pie_chart.o
 .gnu.attributes
                0x000004f0       0x10 build/default/production/_ext/1071800814/libaria_widget_pie_chart_skin_classic.o
 .gnu.attributes
                0x00000500       0x10 build/default/production/_ext/1071800814/libaria_widget_progressbar.o
 .gnu.attributes
                0x00000510       0x10 build/default/production/_ext/1071800814/libaria_widget_progressbar_skin_classic.o
 .gnu.attributes
                0x00000520       0x10 build/default/production/_ext/1071800814/libaria_widget_radial_menu.o
 .gnu.attributes
                0x00000530       0x10 build/default/production/_ext/1071800814/libaria_widget_radial_menu_skin_classic.o
 .gnu.attributes
                0x00000540       0x10 build/default/production/_ext/1071800814/libaria_widget_radiobutton.o
 .gnu.attributes
                0x00000550       0x10 build/default/production/_ext/1071800814/libaria_widget_radiobutton_skin_classic.o
 .gnu.attributes
                0x00000560       0x10 build/default/production/_ext/1071800814/libaria_radiobutton_group.o
 .gnu.attributes
                0x00000570       0x10 build/default/production/_ext/1071800814/libaria_widget_rectangle.o
 .gnu.attributes
                0x00000580       0x10 build/default/production/_ext/1071800814/libaria_widget_rectangle_skin_classic.o
 .gnu.attributes
                0x00000590       0x10 build/default/production/_ext/1071800814/libaria_widget_scrollbar.o
 .gnu.attributes
                0x000005a0       0x10 build/default/production/_ext/1071800814/libaria_widget_scrollbar_skin_classic.o
 .gnu.attributes
                0x000005b0       0x10 build/default/production/_ext/1071800814/libaria_widget_slider.o
 .gnu.attributes
                0x000005c0       0x10 build/default/production/_ext/1071800814/libaria_widget_slider_skin_classic.o
 .gnu.attributes
                0x000005d0       0x10 build/default/production/_ext/1071800814/libaria_widget_textfield.o
 .gnu.attributes
                0x000005e0       0x10 build/default/production/_ext/1071800814/libaria_widget_textfield_skin_classic.o
 .gnu.attributes
                0x000005f0       0x10 build/default/production/_ext/1071800814/libaria_widget_touchtest.o
 .gnu.attributes
                0x00000600       0x10 build/default/production/_ext/1071800814/libaria_widget_touchtest_skin_classic.o
 .gnu.attributes
                0x00000610       0x10 build/default/production/_ext/1071800814/libaria_widget_window.o
 .gnu.attributes
                0x00000620       0x10 build/default/production/_ext/1071800814/libaria_widget_window_skin_classic.o
 .gnu.attributes
                0x00000630       0x10 build/default/production/_ext/676789875/gfx.o
 .gnu.attributes
                0x00000640       0x10 build/default/production/_ext/676789875/gfx_color.o
 .gnu.attributes
                0x00000650       0x10 build/default/production/_ext/676789875/gfx_context.o
 .gnu.attributes
                0x00000660       0x10 build/default/production/_ext/676789875/gfx_default_impl.o
 .gnu.attributes
                0x00000670       0x10 build/default/production/_ext/676789875/gfx_display.o
 .gnu.attributes
                0x00000680       0x10 build/default/production/_ext/676789875/gfx_driver_interface.o
 .gnu.attributes
                0x00000690       0x10 build/default/production/_ext/676789875/gfx_get.o
 .gnu.attributes
                0x000006a0       0x10 build/default/production/_ext/676789875/gfx_interface.o
 .gnu.attributes
                0x000006b0       0x10 build/default/production/_ext/676789875/gfx_layer.o
 .gnu.attributes
                0x000006c0       0x10 build/default/production/_ext/676789875/gfx_pixel_buffer.o
 .gnu.attributes
                0x000006d0       0x10 build/default/production/_ext/676789875/gfx_processor_interface.o
 .gnu.attributes
                0x000006e0       0x10 build/default/production/_ext/676789875/gfx_rect.o
 .gnu.attributes
                0x000006f0       0x10 build/default/production/_ext/676789875/gfx_util.o
 .gnu.attributes
                0x00000700       0x10 build/default/production/_ext/676789875/gfx_set.o
 .gnu.attributes
                0x00000710       0x10 build/default/production/_ext/676789875/gfx_color_blend.o
 .gnu.attributes
                0x00000720       0x10 build/default/production/_ext/676789875/gfx_color_convert.o
 .gnu.attributes
                0x00000730       0x10 build/default/production/_ext/676789875/gfx_color_lerp.o
 .gnu.attributes
                0x00000740       0x10 build/default/production/_ext/676789875/gfx_color_value.o
 .gnu.attributes
                0x00000750       0x10 build/default/production/_ext/676789875/gfx_draw_arc.o
 .gnu.attributes
                0x00000760       0x10 build/default/production/_ext/676789875/gfx_draw_blit.o
 .gnu.attributes
                0x00000770       0x10 build/default/production/_ext/676789875/gfx_draw_circle.o
 .gnu.attributes
                0x00000780       0x10 build/default/production/_ext/676789875/gfx_draw_ellipse.o
 .gnu.attributes
                0x00000790       0x10 build/default/production/_ext/676789875/gfx_draw_line.o
 .gnu.attributes
                0x000007a0       0x10 build/default/production/_ext/676789875/gfx_draw_pixel.o
 .gnu.attributes
                0x000007b0       0x10 build/default/production/_ext/676789875/gfx_draw_rect.o
 .gnu.attributes
                0x000007c0       0x10 build/default/production/_ext/676789875/gfx_draw_stretchblit.o
 .gnu.attributes
                0x000007d0       0x10 build/default/production/_ext/676789875/gfx_math.o
 .gnu.attributes
                0x000007e0       0x10 build/default/production/_ext/231205469/sys_int_pic32.o
 .gnu.attributes
                0x000007f0       0x10 build/default/production/_ext/664138601/drv_pmp_static.o
 .gnu.attributes
                0x00000800       0x10 build/default/production/_ext/347121368/drv_gfx_ssd1926.o
 .gnu.attributes
                0x00000810       0x10 build/default/production/_ext/1689523328/drv_gfx_ssd1289.o
 .gnu.attributes
                0x00000820       0x10 build/default/production/_ext/458109090/libaria_harmony.o
 .gnu.attributes
                0x00000830       0x10 build/default/production/_ext/458109090/libaria_init.o
 .gnu.attributes
                0x00000840       0x10 build/default/production/_ext/458109090/libaria_events.o
 .gnu.attributes
                0x00000850       0x10 build/default/production/_ext/458109090/libaria_macros.o
 .gnu.attributes
                0x00000860       0x10 build/default/production/_ext/2065038297/gfx_display_def.o
 .gnu.attributes
                0x00000870       0x10 build/default/production/_ext/2065038297/gfx_driver_def.o
 .gnu.attributes
                0x00000880       0x10 build/default/production/_ext/2065038297/gfx_processor_def.o
 .gnu.attributes
                0x00000890       0x10 build/default/production/_ext/639803181/sys_clk_pic32mx.o
 .gnu.attributes
                0x000008a0       0x10 build/default/production/_ext/340578644/sys_devcon.o
 .gnu.attributes
                0x000008b0       0x10 build/default/production/_ext/340578644/sys_devcon_pic32mx.o
 .gnu.attributes
                0x000008c0       0x10 build/default/production/_ext/822048611/sys_ports_static.o
 .gnu.attributes
                0x000008d0       0x10 build/default/production/_ext/74298950/bsp.o
 .gnu.attributes
                0x000008e0       0x10 build/default/production/_ext/1688732426/system_init.o
 .gnu.attributes
                0x000008f0       0x10 build/default/production/_ext/1688732426/system_interrupt.o
 .gnu.attributes
                0x00000900       0x10 build/default/production/_ext/1688732426/system_exceptions.o
 .gnu.attributes
                0x00000910       0x10 build/default/production/_ext/1688732426/system_tasks.o
 .gnu.attributes
                0x00000920       0x10 c:/program files (x86)/microchip/xc32/v2.30/bin/bin/../../lib/gcc/pic32mx/4.8.3\libgcc.a(floatunsisf.o)
 .gnu.attributes
                0x00000930       0x10 c:/program files (x86)/microchip/xc32/v2.30/bin/bin/../../lib/gcc/pic32mx/4.8.3/../../../../pic32mx/lib\libpic32.a(default-bootstrap-exception-handler.o)
 .gnu.attributes
                0x00000940       0x10 c:/program files (x86)/microchip/xc32/v2.30/bin/bin/../../lib/gcc/pic32mx/4.8.3/../../../../pic32mx/lib\libpic32.a(default-on-reset.o)
 .gnu.attributes
                0x00000950       0x10 c:/program files (x86)/microchip/xc32/v2.30/bin/bin/../../lib/gcc/pic32mx/4.8.3/../../../../pic32mx/lib\libpic32.a(default-on-bootstrap.o)
 .gnu.attributes
                0x00000960       0x10 c:/program files (x86)/microchip/xc32/v2.30/bin/bin/../../lib/gcc/pic32mx/4.8.3/../../../../pic32mx/lib\libpic32.a(defaultinterrupt.o)
 .gnu.attributes
                0x00000970       0x10 c:/program files (x86)/microchip/xc32/v2.30/bin/bin/../../lib/gcc/pic32mx/4.8.3/../../../../pic32mx/lib\libc.a(fassert.o)
 .gnu.attributes
                0x00000980       0x10 c:/program files (x86)/microchip/xc32/v2.30/bin/bin/../../lib/gcc/pic32mx/4.8.3/../../../../pic32mx/lib\libc.a(calloc.o)
 .gnu.attributes
                0x00000990       0x10 c:/program files (x86)/microchip/xc32/v2.30/bin/bin/../../lib/gcc/pic32mx/4.8.3/../../../../pic32mx/lib\libc.a(malloc.o)
 .gnu.attributes
                0x000009a0       0x10 c:/program files (x86)/microchip/xc32/v2.30/bin/bin/../../lib/gcc/pic32mx/4.8.3/../../../../pic32mx/lib\libc.a(signal.o)
 .gnu.attributes
                0x000009b0       0x10 c:/program files (x86)/microchip/xc32/v2.30/bin/bin/../../lib/gcc/pic32mx/4.8.3/../../../../pic32mx/lib\libc.a(exit.o)
 .gnu.attributes
                0x000009c0       0x10 c:/program files (x86)/microchip/xc32/v2.30/bin/bin/../../lib/gcc/pic32mx/4.8.3/../../../../pic32mx/lib\libc.a(stdclean_simple.o)
 .gnu.attributes
                0x000009d0       0x10 c:/program files (x86)/microchip/xc32/v2.30/bin/bin/../../lib/gcc/pic32mx/4.8.3/../../../../pic32mx/lib\libc.a(fprintf_cdnopsuxX.eo)
 .gnu.attributes
                0x000009e0       0x10 c:/program files (x86)/microchip/xc32/v2.30/bin/bin/../../lib/gcc/pic32mx/4.8.3/../../../../pic32mx/lib\libc.a(sprintf_cdnopuxX.eo)
 .gnu.attributes
                0x000009f0       0x10 c:/program files (x86)/microchip/xc32/v2.30/bin/bin/../../lib/gcc/pic32mx/4.8.3/../../../../pic32mx/lib\libc.a(_iob.o)
 .gnu.attributes
                0x00000a00       0x10 c:/program files (x86)/microchip/xc32/v2.30/bin/bin/../../lib/gcc/pic32mx/4.8.3/../../../../pic32mx/lib\libc.a(doprnt_cdnopsuxX.eo)
 .gnu.attributes
                0x00000a10       0x10 c:/program files (x86)/microchip/xc32/v2.30/bin/bin/../../lib/gcc/pic32mx/4.8.3/../../../../pic32mx/lib\libc.a(_fputc_simple.o)
 .gnu.attributes
                0x00000a20       0x10 c:/program files (x86)/microchip/xc32/v2.30/bin/bin/../../lib/gcc/pic32mx/4.8.3/../../../../pic32mx/lib\libc.a(ctype.o)
 .gnu.attributes
                0x00000a30       0x10 c:/program files (x86)/microchip/xc32/v2.30/bin/bin/../../lib/gcc/pic32mx/4.8.3/../../../../pic32mx/lib\libc.a(_flsbuf_simple.o)
 .gnu.attributes
                0x00000a40       0x10 c:/program files (x86)/microchip/xc32/v2.30/bin/bin/../../lib/gcc/pic32mx/4.8.3\libgcc.a(_udivdi3.o)
 .gnu.attributes
                0x00000a50       0x10 c:/program files (x86)/microchip/xc32/v2.30/bin/bin/../../lib/gcc/pic32mx/4.8.3\libgcc.a(_umoddi3.o)
 .gnu.attributes
                0x00000a60       0x10 c:/program files (x86)/microchip/xc32/v2.30/bin/bin/../../lib/gcc/pic32mx/4.8.3/../../../../pic32mx/lib\libpic32.a(sbrk.o)
 .gnu.attributes
                0x00000a70       0x10 c:/program files (x86)/microchip/xc32/v2.30/bin/bin/../../lib/gcc/pic32mx/4.8.3/../../../../pic32mx/lib\libpic32.a(write.o)
 .gnu.attributes
                0x00000a80       0x10 c:/program files (x86)/microchip/xc32/v2.30/bin/bin/../../lib/gcc/pic32mx/4.8.3/../../../../pic32mx/lib\libpic32.a(errno.o)
 .gnu.attributes
                0x00000a90       0x10 c:/program files (x86)/microchip/xc32/v2.30/bin/bin/../../lib/gcc/pic32mx/4.8.3/../../../../pic32mx/lib\libpic32.a(_mon_putc.o)
 .gnu.attributes
                0x00000aa0       0x10 c:/program files (x86)/microchip/xc32/v2.30/bin/bin/../../lib/gcc/pic32mx/4.8.3/../../../../pic32mx/lib\libpic32.a(xc32_uart.o)
LOAD c:/program files (x86)/microchip/xc32/v2.30/bin/bin/../../lib/gcc/pic32mx/4.8.3\libgcc.a
START GROUP
LOAD c:/program files (x86)/microchip/xc32/v2.30/bin/bin/../../lib/gcc/pic32mx/4.8.3/../../../../pic32mx/lib\libpic32.a
LOAD c:/program files (x86)/microchip/xc32/v2.30/bin/bin/../../lib/gcc/pic32mx/4.8.3/../../../../pic32mx/lib\libdebug.a
LOAD c:/program files (x86)/microchip/xc32/v2.30/bin/bin/../../lib/gcc/pic32mx/4.8.3/../../../../pic32mx/lib\libpic32.a
LOAD c:/program files (x86)/microchip/xc32/v2.30/bin/bin/../../lib/gcc/pic32mx/4.8.3/../../../../pic32mx/lib\libc.a
LOAD c:/program files (x86)/microchip/xc32/v2.30/bin/bin/../../lib/gcc/pic32mx/4.8.3/../../../../pic32mx/lib\libc.a
LOAD c:/program files (x86)/microchip/xc32/v2.30/bin/bin/../../lib/gcc/pic32mx/4.8.3/../../../../pic32mx/lib\libm.a
LOAD c:/program files (x86)/microchip/xc32/v2.30/bin/bin/../../lib/gcc/pic32mx/4.8.3/../../../../pic32mx/lib\libe.a
LOAD c:/program files (x86)/microchip/xc32/v2.30/bin/bin/../../lib/gcc/pic32mx/4.8.3/../../../../pic32mx/lib\libdsp.a
LOAD c:/program files (x86)/microchip/xc32/v2.30/bin/bin/../../lib/gcc/pic32mx/4.8.3\libgcc.a
LOAD c:/program files (x86)/microchip/xc32/v2.30/bin/bin/../../lib/gcc/pic32mx/4.8.3/../../../../pic32mx/lib\libpic32.a
END GROUP
LOAD c:/program files (x86)/microchip/xc32/v2.30/bin/bin/../../lib/gcc/pic32mx/4.8.3\libgcc.a
OUTPUT(dist/default/production/take4.X.production.elf elf32-tradlittlemips)
LOAD stack
LOAD data_init

.reginfo        0x00000000       0x18
 .reginfo       0x00000000       0x18 c:/program files (x86)/microchip/xc32/v2.30/bin/bin/../../lib/gcc/pic32mx/4.8.3/../../../../pic32mx/lib\debug-exception-return.o

.stack          0xa00196a0      0x400
 .stack         0xa00196a0      0x400 stack

.data           0xa00000ec      0x35c
 .data          0xa00000ec      0x1e4 build/default/production/_ext/676789875/gfx_color_convert.o
                0xa00000ec                color_convert_table
 .data          0xa00002d0      0x178 build/default/production/_ext/676789875/gfx_interface.o
                0xa00002d0                GFX_InterfaceTable

.data           0xa0000448      0x198
 .data          0xa0000448      0x160 build/default/production/_ext/676789875/gfx_color.o
                0xa0000448                GFX_ColorInfo
 .data          0xa00005a8       0x38 build/default/production/_ext/676789875/gfx_pixel_buffer.o
                0xa00005a8                pixelSet_FnTable
                0xa00005b8                pixelGet_FnTable
                0xa00005c8                indexGet_FnTable

.data           0xa00005e0       0x5c
 .data          0xa00005e0       0x30 build/default/production/_ext/2065038297/gfx_display_def.o
                0xa00005e0                GFX_DisplayInfoList
 .data          0xa0000610       0x2c build/default/production/_ext/676789875/gfx_color_lerp.o
                0xa0000610                color_lerp_table

.bss            0xa000063c       0x44
 .bss           0xa000063c       0x24 c:/program files (x86)/microchip/xc32/v2.30/bin/bin/../../lib/gcc/pic32mx/4.8.3/../../../../pic32mx/lib\libpic32.a(sbrk.o)
                0xa0000658                _maxbrk
                0xa000065c                _minbrk
 .bss           0xa0000660       0x20 c:/program files (x86)/microchip/xc32/v2.30/bin/bin/../../lib/gcc/pic32mx/4.8.3/../../../../pic32mx/lib\libc.a(malloc.o)
                0xa0000660                __allocx
                0xa0000668                __alloct
                0xa000066c                __allocp
                0xa0000670                __allocs

.bss.errno      0xa0000680        0x4
 .bss.errno     0xa0000680        0x4 c:/program files (x86)/microchip/xc32/v2.30/bin/bin/../../lib/gcc/pic32mx/4.8.3/../../../../pic32mx/lib\libpic32.a(errno.o)
                0xa0000680                errno

._debug_exception
                0xbfc00480       0x2c
 ._debug_exception
                0xbfc00480       0x2c c:/program files (x86)/microchip/xc32/v2.30/bin/bin/../../lib/gcc/pic32mx/4.8.3/../../../../pic32mx/lib\debug-exception-return.o
                0xbfc00480                __DbgExecReturn

.rodata         0x9d000000     0x16a4
 .rodata        0x9d000000     0x16a4 build/default/production/_ext/308360523/lodepng.o
                0x9d00141c                lodepng_default_decompress_settings
                0x9d00142c                lodepng_default_compress_settings

.text.cpuDrawArc_Fill
                0x9d0016a4      0xef4
 .text.cpuDrawArc_Fill
                0x9d0016a4      0xef4 build/default/production/_ext/676789875/gfx_draw_arc.o
                0x9d0016a4                cpuDrawArc_Fill

.dinit          0x9d002598      0x6b0
 .dinit         0x9d002598      0x6b0 data_init

.text.contextDefInitialization
                0x9d002c48      0x620
 .text.contextDefInitialization
                0x9d002c48      0x620 build/default/production/_ext/676789875/gfx_default_impl.o
                0x9d002c48                contextDefInitialization

.text.initialize
                0x9d003268      0x614
 .text.initialize
                0x9d003268      0x614 build/default/production/_ext/347121368/drv_gfx_ssd1926.o

.text._laContext_ShowScreen
                0x9d00387c      0x4b4
 .text._laContext_ShowScreen
                0x9d00387c      0x4b4 build/default/production/_ext/1071800814/libaria_context.o
                0x9d00387c                _laContext_ShowScreen

.text.cpuDrawStretchBlit_Bilinear
                0x9d003d30      0x444
 .text.cpuDrawStretchBlit_Bilinear
                0x9d003d30      0x444 build/default/production/_ext/676789875/gfx_draw_stretchblit.o
                0x9d003d30                cpuDrawStretchBlit_Bilinear

.text.laWidget_SkinClassic_FillRoundCornerRect
                0x9d004174      0x3e8
 .text.laWidget_SkinClassic_FillRoundCornerRect
                0x9d004174      0x3e8 build/default/production/_ext/1071800814/libaria_widget_skin_classic_common.o
                0x9d004174                laWidget_SkinClassic_FillRoundCornerRect

.text._laContext_PaintWidget
                0x9d00455c      0x3a0
 .text._laContext_PaintWidget
                0x9d00455c      0x3a0 build/default/production/_ext/1071800814/libaria_context_paint.o
                0x9d00455c                _laContext_PaintWidget

.text.laWidget_SkinClassic_DrawRoundCornerLineBorder
                0x9d0048fc      0x398
 .text.laWidget_SkinClassic_DrawRoundCornerLineBorder
                0x9d0048fc      0x398 build/default/production/_ext/1071800814/libaria_widget_skin_classic_common.o
                0x9d0048fc                laWidget_SkinClassic_DrawRoundCornerLineBorder

.text.GFX_Open  0x9d004c94      0x334
 .text.GFX_Open
                0x9d004c94      0x334 build/default/production/_ext/676789875/gfx.o
                0x9d004c94                GFX_Open

.text.cpuDrawStretchBlit_NearestNeighbor
                0x9d004fc8      0x314
 .text.cpuDrawStretchBlit_NearestNeighbor
                0x9d004fc8      0x314 build/default/production/_ext/676789875/gfx_draw_stretchblit.o
                0x9d004fc8                cpuDrawStretchBlit_NearestNeighbor

.text.malloc    0x9d0052dc      0x28c
 .text.malloc   0x9d0052dc      0x28c c:/program files (x86)/microchip/xc32/v2.30/bin/bin/../../lib/gcc/pic32mx/4.8.3/../../../../pic32mx/lib\libc.a(malloc.o)
                0x9d0052dc                malloc

.text.cpuDrawLine
                0x9d005568      0x288
 .text.cpuDrawLine
                0x9d005568      0x288 build/default/production/_ext/676789875/gfx_draw_line.o
                0x9d005568                cpuDrawLine

.text.fpsubadd  0x9d0057f0      0x278
 .text.fpsubadd
                0x9d0057f0      0x278 c:/program files (x86)/microchip/xc32/v2.30/bin/bin/../../lib/gcc/pic32mx/4.8.3/../../../../pic32mx/lib\libm.a(fp32subadd.o)
                0x9d0057f0                __subsf3
                0x9d0057f0                fpsub
                0x9d0057f8                __addsf3
                0x9d0057f8                fpadd

.text.GFX_DrawBlit
                0x9d005a68      0x250
 .text.GFX_DrawBlit
                0x9d005a68      0x250 build/default/production/_ext/676789875/gfx_draw_blit.o
                0x9d005a68                GFX_DrawBlit

.text.GFX_TCON_SSD1289Init
                0x9d005cb8      0x250
 .text.GFX_TCON_SSD1289Init
                0x9d005cb8      0x250 build/default/production/_ext/1689523328/drv_gfx_ssd1289.o
                0x9d005cb8                GFX_TCON_SSD1289Init

.text._laContext_Paint
                0x9d005f08      0x238
 .text._laContext_Paint
                0x9d005f08      0x238 build/default/production/_ext/1071800814/libaria_context_paint.o
                0x9d005f08                _laContext_Paint

.text.fp32div   0x9d006140      0x230
 .text.fp32div  0x9d006140      0x230 c:/program files (x86)/microchip/xc32/v2.30/bin/bin/../../lib/gcc/pic32mx/4.8.3/../../../../pic32mx/lib\libm.a(fp32div.o)
                0x9d006140                fpdiv
                0x9d006140                __divsf3

.text.GFX_DrawLine
                0x9d006370      0x228
 .text.GFX_DrawLine
                0x9d006370      0x228 build/default/production/_ext/676789875/gfx_draw_line.o
                0x9d006370                GFX_DrawLine

.text._laLayer_Preframe
                0x9d006598      0x200
 .text._laLayer_Preframe
                0x9d006598      0x200 build/default/production/_ext/1071800814/libaria_layer.o
                0x9d006598                _laLayer_Preframe

.text.cpuDrawRect_Gradient_LeftRight
                0x9d006798      0x1d8
 .text.cpuDrawRect_Gradient_LeftRight
                0x9d006798      0x1d8 build/default/production/_ext/676789875/gfx_draw_rect.o
                0x9d006798                cpuDrawRect_Gradient_LeftRight

.text.cpuDrawRect_Gradient_TopBottom
                0x9d006970      0x1d8
 .text.cpuDrawRect_Gradient_TopBottom
                0x9d006970      0x1d8 build/default/production/_ext/676789875/gfx_draw_rect.o
                0x9d006970                cpuDrawRect_Gradient_TopBottom

.text.GFX_DrawArc
                0x9d006b48      0x1bc
 .text.GFX_DrawArc
                0x9d006b48      0x1bc build/default/production/_ext/676789875/gfx_draw_arc.o
                0x9d006b48                GFX_DrawArc

.text.GFX_DrawRect
                0x9d006d04      0x1bc
 .text.GFX_DrawRect
                0x9d006d04      0x1bc build/default/production/_ext/676789875/gfx_draw_rect.o
                0x9d006d04                GFX_DrawRect

.text.fp32mul   0x9d006ec0      0x1bc
 .text.fp32mul  0x9d006ec0      0x1bc c:/program files (x86)/microchip/xc32/v2.30/bin/bin/../../lib/gcc/pic32mx/4.8.3/../../../../pic32mx/lib\libm.a(fp32mul.o)
                0x9d006ec0                __mulsf3
                0x9d006ec0                fpmul

.text.laWidget_SkinClassic_InvalidateBorderAreas
                0x9d00707c      0x1b4
 .text.laWidget_SkinClassic_InvalidateBorderAreas
                0x9d00707c      0x1b4 build/default/production/_ext/1071800814/libaria_widget_skin_classic_common.o
                0x9d00707c                laWidget_SkinClassic_InvalidateBorderAreas

.text.laScheme_Initialize
                0x9d007230      0x1a4
 .text.laScheme_Initialize
                0x9d007230      0x1a4 build/default/production/_ext/1071800814/libaria_scheme.o
                0x9d007230                laScheme_Initialize

.text.fillRect  0x9d0073d4      0x1a4
 .text.fillRect
                0x9d0073d4      0x1a4 build/default/production/_ext/347121368/drv_gfx_ssd1926.o
                0x9d0073d4                fillRect

.text.cpuDrawBlit
                0x9d007578      0x1a0
 .text.cpuDrawBlit
                0x9d007578      0x1a0 build/default/production/_ext/676789875/gfx_draw_blit.o
                0x9d007578                cpuDrawBlit

.text           0x9d007718      0x1a0
 .text          0x9d007718      0x1a0 c:/program files (x86)/microchip/xc32/v2.30/bin/bin/../../lib/gcc/pic32mx/4.8.3/../../../../pic32mx/lib\libpic32.a(strcpy.o)
                0x9d007718                strcpy

.text._sbrk_init
                0x9d0078b8      0x194
 .text._sbrk_init
                0x9d0078b8      0x194 c:/program files (x86)/microchip/xc32/v2.30/bin/bin/../../lib/gcc/pic32mx/4.8.3/../../../../pic32mx/lib\libpic32.a(sbrk.o)
                0x9d0078b8                _sbrk_init

.text.defColorModeSet
                0x9d007a4c      0x18c
 .text.defColorModeSet
                0x9d007a4c      0x18c build/default/production/_ext/676789875/gfx_default_impl.o
                0x9d007a4c                defColorModeSet

.text.cpuDrawLine_Thick
                0x9d007bd8      0x188
 .text.cpuDrawLine_Thick
                0x9d007bd8      0x188 build/default/production/_ext/676789875/gfx_draw_line.o
                0x9d007bd8                cpuDrawLine_Thick

.text.laContext_Create
                0x9d007d60      0x184
 .text.laContext_Create
                0x9d007d60      0x184 build/default/production/_ext/1071800814/libaria_context.o
                0x9d007d60                laContext_Create

.text.cpuDrawDirectBlit
                0x9d007ee4      0x184
 .text.cpuDrawDirectBlit
                0x9d007ee4      0x184 build/default/production/_ext/676789875/gfx_draw_blit.o
                0x9d007ee4                cpuDrawDirectBlit

.text.cpuDrawLine_Normal
                0x9d008068      0x184
 .text.cpuDrawLine_Normal
                0x9d008068      0x184 build/default/production/_ext/676789875/gfx_draw_line.o
                0x9d008068                cpuDrawLine_Normal

.text.cpuDrawEllipse_Line
                0x9d0081ec      0x180
 .text.cpuDrawEllipse_Line
                0x9d0081ec      0x180 build/default/production/_ext/676789875/gfx_draw_ellipse.o
                0x9d0081ec                cpuDrawEllipse_Line

.text           0x9d00836c      0x168
 .text          0x9d00836c      0x168 c:/program files (x86)/microchip/xc32/v2.30/bin/bin/../../lib/gcc/pic32mx/4.8.3/../../../../pic32mx/lib\libpic32.a(memcpy.o)
                0x9d00836c                memcpy

.text.GFX_Close
                0x9d0084d4      0x164
 .text.GFX_Close
                0x9d0084d4      0x164 build/default/production/_ext/676789875/gfx.o
                0x9d0084d4                GFX_Close

.text.GFX_RectSplit
                0x9d008638      0x164
 .text.GFX_RectSplit
                0x9d008638      0x164 build/default/production/_ext/676789875/gfx_rect.o
                0x9d008638                GFX_RectSplit

.text.laRectArray_SortBySize
                0x9d00879c      0x15c
 .text.laRectArray_SortBySize
                0x9d00879c      0x15c build/default/production/_ext/1071800814/libaria_rectarray.o
                0x9d00879c                laRectArray_SortBySize

.text.cpuDrawPixel
                0x9d0088f8      0x15c
 .text.cpuDrawPixel
                0x9d0088f8      0x15c build/default/production/_ext/676789875/gfx_draw_pixel.o
                0x9d0088f8                cpuDrawPixel

.text.GFX_UtilPointFromOrientedSpace
                0x9d008a54      0x158
 .text.GFX_UtilPointFromOrientedSpace
                0x9d008a54      0x158 build/default/production/_ext/676789875/gfx_util.o
                0x9d008a54                GFX_UtilPointFromOrientedSpace

.text.getArcSoftEdgeColor
                0x9d008bac      0x154
 .text.getArcSoftEdgeColor
                0x9d008bac      0x154 build/default/production/_ext/676789875/gfx_draw_arc.o
                0x9d008bac                getArcSoftEdgeColor

.text.GFX_SineCosineGet
                0x9d008d00      0x154
 .text.GFX_SineCosineGet
                0x9d008d00      0x154 build/default/production/_ext/676789875/gfx_math.o
                0x9d008d00                GFX_SineCosineGet

.text.cpuDrawCircle_Line
                0x9d008e54      0x148
 .text.cpuDrawCircle_Line
                0x9d008e54      0x148 build/default/production/_ext/676789875/gfx_draw_circle.o
                0x9d008e54                cpuDrawCircle_Line

.text.realloc   0x9d008f9c      0x148
 .text.realloc  0x9d008f9c      0x148 c:/program files (x86)/microchip/xc32/v2.30/bin/bin/../../lib/gcc/pic32mx/4.8.3/../../../../pic32mx/lib\libc.a(malloc.o)
                0x9d008f9c                realloc

.text.GFX_ColorBlend_RGBA_8888
                0x9d0090e4      0x144
 .text.GFX_ColorBlend_RGBA_8888
                0x9d0090e4      0x144 build/default/production/_ext/676789875/gfx_color_blend.o
                0x9d0090e4                GFX_ColorBlend_RGBA_8888

.text.cpuDrawRect_Fill
                0x9d009228      0x140
 .text.cpuDrawRect_Fill
                0x9d009228      0x140 build/default/production/_ext/676789875/gfx_draw_rect.o
                0x9d009228                cpuDrawRect_Fill

.text.cpuDrawRect_Line
                0x9d009368      0x138
 .text.cpuDrawRect_Line
                0x9d009368      0x138 build/default/production/_ext/676789875/gfx_draw_rect.o
                0x9d009368                cpuDrawRect_Line

.text._laLayer_AddDamageRectToList
                0x9d0094a0      0x134
 .text._laLayer_AddDamageRectToList
                0x9d0094a0      0x134 build/default/production/_ext/1071800814/libaria_layer.o
                0x9d0094a0                _laLayer_AddDamageRectToList

.text._laWidget_Invalidate
                0x9d0095d4      0x134
 .text._laWidget_Invalidate
                0x9d0095d4      0x134 build/default/production/_ext/1071800814/libaria_widget.o
                0x9d0095d4                _laWidget_Invalidate

.text.GFX_PixelBufferAreaGet_Unsafe
                0x9d009708      0x134
 .text.GFX_PixelBufferAreaGet_Unsafe
                0x9d009708      0x134 build/default/production/_ext/676789875/gfx_pixel_buffer.o
                0x9d009708                GFX_PixelBufferAreaGet_Unsafe

.text.GFX_DrawPixel
                0x9d00983c      0x134
 .text.GFX_DrawPixel
                0x9d00983c      0x134 build/default/production/_ext/676789875/gfx_draw_pixel.o
                0x9d00983c                GFX_DrawPixel

.text.setLayerAttributes
                0x9d009970      0x130
 .text.setLayerAttributes
                0x9d009970      0x130 build/default/production/_ext/1071800814/libaria_screen.o

.text._laWidget_Constructor
                0x9d009aa0      0x130
 .text._laWidget_Constructor
                0x9d009aa0      0x130 build/default/production/_ext/1071800814/libaria_widget.o
                0x9d009aa0                _laWidget_Constructor

.text.laWidget_SkinClassic_DrawBevelBorderRight
                0x9d009bd0      0x130
 .text.laWidget_SkinClassic_DrawBevelBorderRight
                0x9d009bd0      0x130 build/default/production/_ext/1071800814/libaria_widget_skin_classic_common.o
                0x9d009bd0                laWidget_SkinClassic_DrawBevelBorderRight

.text.laWidget_SkinClassic_DrawBevelBorderBottom
                0x9d009d00      0x130
 .text.laWidget_SkinClassic_DrawBevelBorderBottom
                0x9d009d00      0x130 build/default/production/_ext/1071800814/libaria_widget_skin_classic_common.o
                0x9d009d00                laWidget_SkinClassic_DrawBevelBorderBottom

.text.GFX_LayerRectFromOrientedSpace
                0x9d009e30      0x130
 .text.GFX_LayerRectFromOrientedSpace
                0x9d009e30      0x130 build/default/production/_ext/676789875/gfx_layer.o
                0x9d009e30                GFX_LayerRectFromOrientedSpace

.text.laEvent_ProcessEvents
                0x9d009f60      0x12c
 .text.laEvent_ProcessEvents
                0x9d009f60      0x12c build/default/production/_ext/1071800814/libaria_event.o
                0x9d009f60                laEvent_ProcessEvents

.text.GFX_RectClipAdj
                0x9d00a08c      0x128
 .text.GFX_RectClipAdj
                0x9d00a08c      0x128 build/default/production/_ext/676789875/gfx_rect.o
                0x9d00a08c                GFX_RectClipAdj

.rodata         0x9d00a1b4      0x128
 .rodata        0x9d00a1b4      0x128 build/default/production/_ext/1688732426/system_exceptions.o

.text.laWidget_SkinClassic_DrawBevelBorderLeft
                0x9d00a2dc      0x124
 .text.laWidget_SkinClassic_DrawBevelBorderLeft
                0x9d00a2dc      0x124 build/default/production/_ext/1071800814/libaria_widget_skin_classic_common.o
                0x9d00a2dc                laWidget_SkinClassic_DrawBevelBorderLeft

.text.laWidget_SkinClassic_DrawBevelBorderTop
                0x9d00a400      0x124
 .text.laWidget_SkinClassic_DrawBevelBorderTop
                0x9d00a400      0x124 build/default/production/_ext/1071800814/libaria_widget_skin_classic_common.o
                0x9d00a400                laWidget_SkinClassic_DrawBevelBorderTop

.text.GFX_LayerFromOrientedSpace
                0x9d00a524      0x124
 .text.GFX_LayerFromOrientedSpace
                0x9d00a524      0x124 build/default/production/_ext/676789875/gfx_layer.o
                0x9d00a524                GFX_LayerFromOrientedSpace

.text.laLayer_New
                0x9d00a648      0x118
 .text.laLayer_New
                0x9d00a648      0x118 build/default/production/_ext/1071800814/libaria_layer.o
                0x9d00a648                laLayer_New

.text.GFX_UtilPointToOrientedSpace
                0x9d00a760      0x114
 .text.GFX_UtilPointToOrientedSpace
                0x9d00a760      0x114 build/default/production/_ext/676789875/gfx_util.o
                0x9d00a760                GFX_UtilPointToOrientedSpace

.text.defDestroy
                0x9d00a874      0x110
 .text.defDestroy
                0x9d00a874      0x110 build/default/production/_ext/676789875/gfx_default_impl.o
                0x9d00a874                defDestroy

.text.driverSSD1926ContextInitialize
                0x9d00a984      0x110
 .text.driverSSD1926ContextInitialize
                0x9d00a984      0x110 build/default/production/_ext/347121368/drv_gfx_ssd1926.o
                0x9d00a984                driverSSD1926ContextInitialize

.text.laRectArray_MergeSimilar
                0x9d00aa94      0x10c
 .text.laRectArray_MergeSimilar
                0x9d00aa94      0x10c build/default/production/_ext/1071800814/libaria_rectarray.o
                0x9d00aa94                laRectArray_MergeSimilar

.text.defLayerBufferCountSet
                0x9d00aba0      0x10c
 .text.defLayerBufferCountSet
                0x9d00aba0      0x10c build/default/production/_ext/676789875/gfx_default_impl.o
                0x9d00aba0                defLayerBufferCountSet

.text.laWidget_SetSize
                0x9d00acac      0x108
 .text.laWidget_SetSize
                0x9d00acac      0x108 build/default/production/_ext/1071800814/libaria_widget.o
                0x9d00acac                laWidget_SetSize

.text.layerBufferAllocate
                0x9d00adb4      0x108
 .text.layerBufferAllocate
                0x9d00adb4      0x108 build/default/production/_ext/676789875/gfx_default_impl.o

.text.GFX_EllipsePoint
                0x9d00aebc      0x100
 .text.GFX_EllipsePoint
                0x9d00aebc      0x100 build/default/production/_ext/676789875/gfx_math.o
                0x9d00aebc                GFX_EllipsePoint

.text.laWidget_SetPosition
                0x9d00afbc       0xfc
 .text.laWidget_SetPosition
                0x9d00afbc       0xfc build/default/production/_ext/1071800814/libaria_widget.o
                0x9d00afbc                laWidget_SetPosition

.text.defDrawBlendModeSet
                0x9d00b0b8       0xfc
 .text.defDrawBlendModeSet
                0x9d00b0b8       0xfc build/default/production/_ext/676789875/gfx_default_impl.o
                0x9d00b0b8                defDrawBlendModeSet

.text.GFX_LayerToOrientedSpace
                0x9d00b1b4       0xf8
 .text.GFX_LayerToOrientedSpace
                0x9d00b1b4       0xf8 build/default/production/_ext/676789875/gfx_layer.o
                0x9d00b1b4                GFX_LayerToOrientedSpace

.text.arcsOverlapQuadrant
                0x9d00b2ac       0xf8
 .text.arcsOverlapQuadrant
                0x9d00b2ac       0xf8 build/default/production/_ext/676789875/gfx_draw_arc.o
                0x9d00b2ac                arcsOverlapQuadrant

.text.laList_Remove
                0x9d00b3a4       0xf4
 .text.laList_Remove
                0x9d00b3a4       0xf4 build/default/production/_ext/1071800814/libaria_list.o
                0x9d00b3a4                laList_Remove

.text.pickChild
                0x9d00b498       0xf0
 .text.pickChild
                0x9d00b498       0xf0 build/default/production/_ext/1071800814/libaria_utils.o

.text.updateDirtyFlags
                0x9d00b588       0xec
 .text.updateDirtyFlags
                0x9d00b588       0xec build/default/production/_ext/1071800814/libaria_context_paint.o

.text.laUtils_WidgetIsOccluded
                0x9d00b674       0xe8
 .text.laUtils_WidgetIsOccluded
                0x9d00b674       0xe8 build/default/production/_ext/1071800814/libaria_utils.o
                0x9d00b674                laUtils_WidgetIsOccluded

.text.GFX_PixelBufferCreate
                0x9d00b75c       0xe0
 .text.GFX_PixelBufferCreate
                0x9d00b75c       0xe0 build/default/production/_ext/676789875/gfx_pixel_buffer.o
                0x9d00b75c                GFX_PixelBufferCreate

.text.SYS_DEVCON_PerformanceConfig
                0x9d00b83c       0xe0
 .text.SYS_DEVCON_PerformanceConfig
                0x9d00b83c       0xe0 build/default/production/_ext/340578644/sys_devcon_pic32mx.o
                0x9d00b83c                SYS_DEVCON_PerformanceConfig

.text.defMirroringSet
                0x9d00b91c       0xdc
 .text.defMirroringSet
                0x9d00b91c       0xdc build/default/production/_ext/676789875/gfx_default_impl.o
                0x9d00b91c                defMirroringSet

.text.general_exception
                0x9d00b9f8       0xdc
 .text.general_exception
                0x9d00b9f8       0xdc c:/program files (x86)/microchip/xc32/v2.30/bin/bin/../../lib/gcc/pic32mx/4.8.3/../../../../pic32mx/lib\libpic32.a(general-exception.o)
                0x9d00b9f8                _general_exception_context

.text.defInitialize
                0x9d00bad4       0xd8
 .text.defInitialize
                0x9d00bad4       0xd8 build/default/production/_ext/676789875/gfx_default_impl.o
                0x9d00bad4                defInitialize

.text.defOrientationSet
                0x9d00bbac       0xd8
 .text.defOrientationSet
                0x9d00bbac       0xd8 build/default/production/_ext/676789875/gfx_default_impl.o
                0x9d00bbac                defOrientationSet

.text.laLayer_AddDamageRect
                0x9d00bc84       0xd4
 .text.laLayer_AddDamageRect
                0x9d00bc84       0xd4 build/default/production/_ext/1071800814/libaria_layer.o
                0x9d00bc84                laLayer_AddDamageRect

.text.laRectArray_RemoveDuplicates
                0x9d00bd58       0xd4
 .text.laRectArray_RemoveDuplicates
                0x9d00bd58       0xd4 build/default/production/_ext/1071800814/libaria_rectarray.o
                0x9d00bd58                laRectArray_RemoveDuplicates

.text.drawBackground
                0x9d00be2c       0xd4
 .text.drawBackground
                0x9d00be2c       0xd4 build/default/production/_ext/1071800814/libaria_widget_skin_classic.o

.text.laWidget_SetBackgroundType
                0x9d00bf00       0xd0
 .text.laWidget_SetBackgroundType
                0x9d00bf00       0xd0 build/default/production/_ext/1071800814/libaria_widget.o
                0x9d00bf00                laWidget_SetBackgroundType

.text.laRectArray_RemoveOverlapping
                0x9d00bfd0       0xc8
 .text.laRectArray_RemoveOverlapping
                0x9d00bfd0       0xc8 build/default/production/_ext/1071800814/libaria_rectarray.o
                0x9d00bfd0                laRectArray_RemoveOverlapping

.text._sbrk     0x9d00c098       0xc8
 .text._sbrk    0x9d00c098       0xc8 c:/program files (x86)/microchip/xc32/v2.30/bin/bin/../../lib/gcc/pic32mx/4.8.3/../../../../pic32mx/lib\libpic32.a(sbrk.o)
                0x9d00c098                _sbrk

.text.handleTouchDown
                0x9d00c160       0xc4
 .text.handleTouchDown
                0x9d00c160       0xc4 build/default/production/_ext/1071800814/libaria_input.o
                0x9d00c160                handleTouchDown

.text._laLayer_FinishFrame
                0x9d00c224       0xc4
 .text._laLayer_FinishFrame
                0x9d00c224       0xc4 build/default/production/_ext/1071800814/libaria_layer.o
                0x9d00c224                _laLayer_FinishFrame

.text.laWidget_SkinClassic_DrawBlit
                0x9d00c2e8       0xc4
 .text.laWidget_SkinClassic_DrawBlit
                0x9d00c2e8       0xc4 build/default/production/_ext/1071800814/libaria_widget_skin_classic_common.o
                0x9d00c2e8                laWidget_SkinClassic_DrawBlit

.text.GFX_RectCombine
                0x9d00c3ac       0xc4
 .text.GFX_RectCombine
                0x9d00c3ac       0xc4 build/default/production/_ext/676789875/gfx_rect.o
                0x9d00c3ac                GFX_RectCombine

.text.laWidget_SkinClassic_DrawLineBorderRight
                0x9d00c470       0xc0
 .text.laWidget_SkinClassic_DrawLineBorderRight
                0x9d00c470       0xc0 build/default/production/_ext/1071800814/libaria_widget_skin_classic_common.o
                0x9d00c470                laWidget_SkinClassic_DrawLineBorderRight

.text.libaria_initialize
                0x9d00c530       0xc0
 .text.libaria_initialize
                0x9d00c530       0xc0 build/default/production/_ext/458109090/libaria_init.o
                0x9d00c530                libaria_initialize

.text.BSP_LEDOff
                0x9d00c5f0       0xc0
 .text.BSP_LEDOff
                0x9d00c5f0       0xc0 build/default/production/_ext/74298950/bsp.o
                0x9d00c5f0                BSP_LEDOff

.text.defLayerBufferAddressSet
                0x9d00c6b0       0xbc
 .text.defLayerBufferAddressSet
                0x9d00c6b0       0xbc build/default/production/_ext/676789875/gfx_default_impl.o
                0x9d00c6b0                defLayerBufferAddressSet

.text.drawGlyphRow8bpp
                0x9d00c76c       0xb8
 .text.drawGlyphRow8bpp
                0x9d00c76c       0xb8 build/default/production/_ext/1963452113/gfxu_string_utils.o
                0x9d00c76c                drawGlyphRow8bpp

.text.laWidget_SkinClassic_DrawLineBorderBottom
                0x9d00c824       0xb8
 .text.laWidget_SkinClassic_DrawLineBorderBottom
                0x9d00c824       0xb8 build/default/production/_ext/1071800814/libaria_widget_skin_classic_common.o
                0x9d00c824                laWidget_SkinClassic_DrawLineBorderBottom

.rodata         0x9d00c8dc       0xb8
 .rodata        0x9d00c8dc       0xb8 build/default/production/_ext/676789875/gfx_math.o
                0x9d00c8dc                _CosineTable

.text.drawGlyphRow1bpp
                0x9d00c994       0xb4
 .text.drawGlyphRow1bpp
                0x9d00c994       0xb4 build/default/production/_ext/1963452113/gfxu_string_utils.o
                0x9d00c994                drawGlyphRow1bpp

.text.laWidget_SkinClassic_DrawLineBorderLeft
                0x9d00ca48       0xb4
 .text.laWidget_SkinClassic_DrawLineBorderLeft
                0x9d00ca48       0xb4 build/default/production/_ext/1071800814/libaria_widget_skin_classic_common.o
                0x9d00ca48                laWidget_SkinClassic_DrawLineBorderLeft

.text.GFX_RectsAreSimilar
                0x9d00cafc       0xb4
 .text.GFX_RectsAreSimilar
                0x9d00cafc       0xb4 build/default/production/_ext/676789875/gfx_rect.o
                0x9d00cafc                GFX_RectsAreSimilar

.text.SYS_PORTS_Initialize
                0x9d00cbb0       0xb4
 .text.SYS_PORTS_Initialize
                0x9d00cbb0       0xb4 build/default/production/_ext/822048611/sys_ports_static.o
                0x9d00cbb0                SYS_PORTS_Initialize

.text.laArray_Destroy
                0x9d00cc64       0xb0
 .text.laArray_Destroy
                0x9d00cc64       0xb0 build/default/production/_ext/1071800814/libaria_array.o
                0x9d00cc64                laArray_Destroy

.text._shuffleLeft
                0x9d00cd14       0xb0
 .text._shuffleLeft
                0x9d00cd14       0xb0 build/default/production/_ext/1071800814/libaria_rectarray.o

.text.laRectArray_PushBack
                0x9d00cdc4       0xb0
 .text.laRectArray_PushBack
                0x9d00cdc4       0xb0 build/default/production/_ext/1071800814/libaria_rectarray.o
                0x9d00cdc4                laRectArray_PushBack

.text.lerp_argb8888
                0x9d00ce74       0xb0
 .text.lerp_argb8888
                0x9d00ce74       0xb0 build/default/production/_ext/676789875/gfx_color_lerp.o

.text.lerp_rgba8888
                0x9d00cf24       0xb0
 .text.lerp_rgba8888
                0x9d00cf24       0xb0 build/default/production/_ext/676789875/gfx_color_lerp.o

.text.findNextLayer
                0x9d00cfd4       0xac
 .text.findNextLayer
                0x9d00cfd4       0xac build/default/production/_ext/1071800814/libaria_context_paint.o

.text.laWidget_GetCumulativeAlphaAmount
                0x9d00d080       0xac
 .text.laWidget_GetCumulativeAlphaAmount
                0x9d00d080       0xac build/default/production/_ext/1071800814/libaria_widget.o
                0x9d00d080                laWidget_GetCumulativeAlphaAmount

.text.laWidget_SkinClassic_DrawLineBorderTop
                0x9d00d12c       0xac
 .text.laWidget_SkinClassic_DrawLineBorderTop
                0x9d00d12c       0xac build/default/production/_ext/1071800814/libaria_widget_skin_classic_common.o
                0x9d00d12c                laWidget_SkinClassic_DrawLineBorderTop

.text.GFX_PixelBufferAreaGet
                0x9d00d1d8       0xac
 .text.GFX_PixelBufferAreaGet
                0x9d00d1d8       0xac build/default/production/_ext/676789875/gfx_pixel_buffer.o
                0x9d00d1d8                GFX_PixelBufferAreaGet

.text._laLayer_InvalidateChildren
                0x9d00d284       0xa8
 .text._laLayer_InvalidateChildren
                0x9d00d284       0xa8 build/default/production/_ext/1071800814/libaria_layer.o
                0x9d00d284                _laLayer_InvalidateChildren

.text.laScreen_New
                0x9d00d32c       0xa8
 .text.laScreen_New
                0x9d00d32c       0xa8 build/default/production/_ext/1071800814/libaria_screen.o
                0x9d00d32c                laScreen_New

.text.pixelSet  0x9d00d3d4       0xa8
 .text.pixelSet
                0x9d00d3d4       0xa8 build/default/production/_ext/347121368/drv_gfx_ssd1926.o

.text           0x9d00d47c       0xa8
 .text          0x9d00d47c       0xa8 c:/program files (x86)/microchip/xc32/v2.30/bin/bin/../../lib/gcc/pic32mx/4.8.3/../../../../pic32mx/lib\libpic32.a(memset.o)
                0x9d00d47c                memset

.text.laRectArray_Copy
                0x9d00d524       0xa4
 .text.laRectArray_Copy
                0x9d00d524       0xa4 build/default/production/_ext/1071800814/libaria_rectarray.o
                0x9d00d524                laRectArray_Copy

.text._laWidget_Destructor
                0x9d00d5c8       0xa4
 .text._laWidget_Destructor
                0x9d00d5c8       0xa4 build/default/production/_ext/1071800814/libaria_widget.o
                0x9d00d5c8                _laWidget_Destructor

.text.laWidget_RectToLayerSpace
                0x9d00d66c       0xa4
 .text.laWidget_RectToLayerSpace
                0x9d00d66c       0xa4 build/default/production/_ext/1071800814/libaria_widget.o
                0x9d00d66c                laWidget_RectToLayerSpace

.text.drvSSD1926_GetRegister
                0x9d00d710       0xa4
 .text.drvSSD1926_GetRegister
                0x9d00d710       0xa4 build/default/production/_ext/347121368/drv_gfx_ssd1926.o
                0x9d00d710                drvSSD1926_GetRegister

.text.writeCommand
                0x9d00d7b4       0xa4
 .text.writeCommand
                0x9d00d7b4       0xa4 build/default/production/_ext/1689523328/drv_gfx_ssd1289.o

.text.laWidget_SkinClassic_Draw2x2BeveledBorder
                0x9d00d858       0xa0
 .text.laWidget_SkinClassic_Draw2x2BeveledBorder
                0x9d00d858       0xa0 build/default/production/_ext/1071800814/libaria_widget_skin_classic_common.o
                0x9d00d858                laWidget_SkinClassic_Draw2x2BeveledBorder

.text._laContext_UpdateWidget
                0x9d00d8f8       0x9c
 .text._laContext_UpdateWidget
                0x9d00d8f8       0x9c build/default/production/_ext/1071800814/libaria_context.o
                0x9d00d8f8                _laContext_UpdateWidget

.text.GFX_ColorBilerp
                0x9d00d994       0x9c
 .text.GFX_ColorBilerp
                0x9d00d994       0x9c build/default/production/_ext/676789875/gfx_color_lerp.o
                0x9d00d994                GFX_ColorBilerp

.text.rejectPixel
                0x9d00da30       0x9c
 .text.rejectPixel
                0x9d00da30       0x9c build/default/production/_ext/676789875/gfx_draw_pixel.o

.text.laArray_Free
                0x9d00dacc       0x98
 .text.laArray_Free
                0x9d00dacc       0x98 build/default/production/_ext/1071800814/libaria_array.o
                0x9d00dacc                laArray_Free

.text.lerp_rgba5551
                0x9d00db64       0x98
 .text.lerp_rgba5551
                0x9d00db64       0x98 build/default/production/_ext/676789875/gfx_color_lerp.o

.text.laArray_Resize
                0x9d00dbfc       0x94
 .text.laArray_Resize
                0x9d00dbfc       0x94 build/default/production/_ext/1071800814/libaria_array.o
                0x9d00dbfc                laArray_Resize

.text.laArray_PushBack
                0x9d00dc90       0x94
 .text.laArray_PushBack
                0x9d00dc90       0x94 build/default/production/_ext/1071800814/libaria_array.o
                0x9d00dc90                laArray_PushBack

.text.laContext_SetActiveScreen
                0x9d00dd24       0x94
 .text.laContext_SetActiveScreen
                0x9d00dd24       0x94 build/default/production/_ext/1071800814/libaria_context.o
                0x9d00dd24                laContext_SetActiveScreen

.text._laLayer_Moved
                0x9d00ddb8       0x94
 .text._laLayer_Moved
                0x9d00ddb8       0x94 build/default/production/_ext/1071800814/libaria_layer.o
                0x9d00ddb8                _laLayer_Moved

.text._laLayer_Resized
                0x9d00de4c       0x94
 .text._laLayer_Resized
                0x9d00de4c       0x94 build/default/production/_ext/1071800814/libaria_layer.o
                0x9d00de4c                _laLayer_Resized

.text.laList_PushBack
                0x9d00dee0       0x94
 .text.laList_PushBack
                0x9d00dee0       0x94 build/default/production/_ext/1071800814/libaria_list.o
                0x9d00dee0                laList_PushBack

.text.laRectArray_Resize
                0x9d00df74       0x94
 .text.laRectArray_Resize
                0x9d00df74       0x94 build/default/production/_ext/1071800814/libaria_rectarray.o
                0x9d00df74                laRectArray_Resize

.text.laWidget_DeleteAllDescendants
                0x9d00e008       0x94
 .text.laWidget_DeleteAllDescendants
                0x9d00e008       0x94 build/default/production/_ext/1071800814/libaria_widget.o
                0x9d00e008                laWidget_DeleteAllDescendants

.text.laWidget_SkinClassic_FillRect
                0x9d00e09c       0x94
 .text.laWidget_SkinClassic_FillRect
                0x9d00e09c       0x94 build/default/production/_ext/1071800814/libaria_widget_skin_classic_common.o
                0x9d00e09c                laWidget_SkinClassic_FillRect

.text.GFX_PixelBufferClipRect
                0x9d00e130       0x94
 .text.GFX_PixelBufferClipRect
                0x9d00e130       0x94 build/default/production/_ext/676789875/gfx_pixel_buffer.o
                0x9d00e130                GFX_PixelBufferClipRect

.text.laContext_SetEditWidget
                0x9d00e1c4       0x90
 .text.laContext_SetEditWidget
                0x9d00e1c4       0x90 build/default/production/_ext/1071800814/libaria_context.o
                0x9d00e1c4                laContext_SetEditWidget

.text.laUtils_PickFromLayer
                0x9d00e254       0x90
 .text.laUtils_PickFromLayer
                0x9d00e254       0x90 build/default/production/_ext/1071800814/libaria_utils.o
                0x9d00e254                laUtils_PickFromLayer

.text.SYS_Initialize
                0x9d00e2e4       0x90
 .text.SYS_Initialize
                0x9d00e2e4       0x90 build/default/production/_ext/1688732426/system_init.o
                0x9d00e2e4                SYS_Initialize

.text.laList_Destroy
                0x9d00e374       0x8c
 .text.laList_Destroy
                0x9d00e374       0x8c build/default/production/_ext/1071800814/libaria_list.o
                0x9d00e374                laList_Destroy

.text.defLayerPositionSet
                0x9d00e400       0x8c
 .text.defLayerPositionSet
                0x9d00e400       0x8c build/default/production/_ext/676789875/gfx_default_impl.o
                0x9d00e400                defLayerPositionSet

.text.GFX_RectClip
                0x9d00e48c       0x8c
 .text.GFX_RectClip
                0x9d00e48c       0x8c build/default/production/_ext/676789875/gfx_rect.o
                0x9d00e48c                GFX_RectClip

.text.defDrawPaletteSet
                0x9d00e518       0x88
 .text.defDrawPaletteSet
                0x9d00e518       0x88 build/default/production/_ext/676789875/gfx_default_impl.o
                0x9d00e518                defDrawPaletteSet

.text.defGlobalAlphaBlend
                0x9d00e5a0       0x88
 .text.defGlobalAlphaBlend
                0x9d00e5a0       0x88 build/default/production/_ext/676789875/gfx_default_impl.o
                0x9d00e5a0                defGlobalAlphaBlend

.text.defPixelArrayGet
                0x9d00e628       0x88
 .text.defPixelArrayGet
                0x9d00e628       0x88 build/default/production/_ext/676789875/gfx_default_impl.o
                0x9d00e628                defPixelArrayGet

.text.writeByte
                0x9d00e6b0       0x88
 .text.writeByte
                0x9d00e6b0       0x88 build/default/production/_ext/1689523328/drv_gfx_ssd1289.o

.text.GFX_ReadPixelArray
                0x9d00e738       0x84
 .text.GFX_ReadPixelArray
                0x9d00e738       0x84 build/default/production/_ext/676789875/gfx.o
                0x9d00e738                GFX_ReadPixelArray

.text.GFX_PolarToXY
                0x9d00e7bc       0x84
 .text.GFX_PolarToXY
                0x9d00e7bc       0x84 build/default/production/_ext/676789875/gfx_math.o
                0x9d00e7bc                GFX_PolarToXY

.text.DRV_PMP0_ModeConfig
                0x9d00e840       0x84
 .text.DRV_PMP0_ModeConfig
                0x9d00e840       0x84 build/default/production/_ext/664138601/drv_pmp_static.o
                0x9d00e840                DRV_PMP0_ModeConfig

.text           0x9d00e8c4       0x84
 .text          0x9d00e8c4       0x84 c:/program files (x86)/microchip/xc32/v2.30/bin/bin/../../lib/gcc/pic32mx/4.8.3/../../../../pic32mx/lib\libpic32.a(pic32_data_init.o)
                0x9d00e8c4                __pic32_data_init

.text._laLayer_Paint
                0x9d00e948       0x80
 .text._laLayer_Paint
                0x9d00e948       0x80 build/default/production/_ext/1071800814/libaria_layer.o
                0x9d00e948                _laLayer_Paint

.text.laUtils_WidgetLayerRect
                0x9d00e9c8       0x80
 .text.laUtils_WidgetLayerRect
                0x9d00e9c8       0x80 build/default/production/_ext/1071800814/libaria_utils.o
                0x9d00e9c8                laUtils_WidgetLayerRect

.text.laWidget_SkinClassic_DrawStandardLineBorder
                0x9d00ea48       0x80
 .text.laWidget_SkinClassic_DrawStandardLineBorder
                0x9d00ea48       0x80 build/default/production/_ext/1071800814/libaria_widget_skin_classic_common.o
                0x9d00ea48                laWidget_SkinClassic_DrawStandardLineBorder

.text.layerBufferFree
                0x9d00eac8       0x80
 .text.layerBufferFree
                0x9d00eac8       0x80 build/default/production/_ext/676789875/gfx_default_impl.o

.text.defLayerSwapSet
                0x9d00eb48       0x80
 .text.defLayerSwapSet
                0x9d00eb48       0x80 build/default/production/_ext/676789875/gfx_default_impl.o
                0x9d00eb48                defLayerSwapSet

.text.get_displayInfo
                0x9d00ebc8       0x80
 .text.get_displayInfo
                0x9d00ebc8       0x80 build/default/production/_ext/676789875/gfx_get.o
                0x9d00ebc8                get_displayInfo

.text.lerp_rgb888
                0x9d00ec48       0x80
 .text.lerp_rgb888
                0x9d00ec48       0x80 build/default/production/_ext/676789875/gfx_color_lerp.o

.text.lerp_rgb565
                0x9d00ecc8       0x80
 .text.lerp_rgb565
                0x9d00ecc8       0x80 build/default/production/_ext/676789875/gfx_color_lerp.o

.text.lerp_rgb332
                0x9d00ed48       0x80
 .text.lerp_rgb332
                0x9d00ed48       0x80 build/default/production/_ext/676789875/gfx_color_lerp.o

.text.rejectBlit
                0x9d00edc8       0x80
 .text.rejectBlit
                0x9d00edc8       0x80 build/default/production/_ext/676789875/gfx_draw_blit.o

.text.drvSSD1926_SetRegister
                0x9d00ee48       0x80
 .text.drvSSD1926_SetRegister
                0x9d00ee48       0x80 build/default/production/_ext/347121368/drv_gfx_ssd1926.o
                0x9d00ee48                drvSSD1926_SetRegister

.text.laWidget_SkinClassic_DrawBackground
                0x9d00eec8       0x7c
 .text.laWidget_SkinClassic_DrawBackground
                0x9d00eec8       0x7c build/default/production/_ext/1071800814/libaria_widget_skin_classic_common.o
                0x9d00eec8                laWidget_SkinClassic_DrawBackground

.text.GFX_LayerSwap
                0x9d00ef44       0x7c
 .text.GFX_LayerSwap
                0x9d00ef44       0x7c build/default/production/_ext/676789875/gfx_layer.o
                0x9d00ef44                GFX_LayerSwap

.text.cpuDrawLine_Horz
                0x9d00efc0       0x7c
 .text.cpuDrawLine_Horz
                0x9d00efc0       0x7c build/default/production/_ext/676789875/gfx_draw_line.o
                0x9d00efc0                cpuDrawLine_Horz

.text.cpuDrawLine_Vert
                0x9d00f03c       0x7c
 .text.cpuDrawLine_Vert
                0x9d00f03c       0x7c build/default/production/_ext/676789875/gfx_draw_line.o
                0x9d00f03c                cpuDrawLine_Vert

.text.GFX_PercentOf
                0x9d00f0b8       0x7c
 .text.GFX_PercentOf
                0x9d00f0b8       0x7c build/default/production/_ext/676789875/gfx_math.o
                0x9d00f0b8                GFX_PercentOf

.rodata         0x9d00f134       0x7c
 .rodata        0x9d00f134       0x7c build/default/production/_ext/347121368/drv_gfx_ssd1926.o

.text.fptoul    0x9d00f1b0       0x7c
 .text.fptoul   0x9d00f1b0       0x7c c:/program files (x86)/microchip/xc32/v2.30/bin/bin/../../lib/gcc/pic32mx/4.8.3/../../../../pic32mx/lib\libm.a(fptoul.o)
                0x9d00f1b0                fptoul
                0x9d00f1b0                fptoui
                0x9d00f1b0                __fixunssfsi

.text.laArray_Find
                0x9d00f22c       0x78
 .text.laArray_Find
                0x9d00f22c       0x78 build/default/production/_ext/1071800814/libaria_array.o
                0x9d00f22c                laArray_Find

.text.defAlphaChannelBlend
                0x9d00f2a4       0x78
 .text.defAlphaChannelBlend
                0x9d00f2a4       0x78 build/default/production/_ext/676789875/gfx_default_impl.o
                0x9d00f2a4                defAlphaChannelBlend

.text.ScreenCreate_default
                0x9d00f31c       0x78
 .text.ScreenCreate_default
                0x9d00f31c       0x78 build/default/production/_ext/458109090/libaria_init.o

.text._laContext_Update
                0x9d00f394       0x74
 .text._laContext_Update
                0x9d00f394       0x74 build/default/production/_ext/1071800814/libaria_context.o
                0x9d00f394                _laContext_Update

.text.laContext_SetFocusWidget
                0x9d00f408       0x74
 .text.laContext_SetFocusWidget
                0x9d00f408       0x74 build/default/production/_ext/1071800814/libaria_context.o
                0x9d00f408                laContext_SetFocusWidget

.text.laLayer_SetBufferCount
                0x9d00f47c       0x74
 .text.laLayer_SetBufferCount
                0x9d00f47c       0x74 build/default/production/_ext/1071800814/libaria_layer.o
                0x9d00f47c                laLayer_SetBufferCount

.text.laScreen_SetLayer
                0x9d00f4f0       0x74
 .text.laScreen_SetLayer
                0x9d00f4f0       0x74 build/default/production/_ext/1071800814/libaria_screen.o
                0x9d00f4f0                laScreen_SetLayer

.text.laUtils_ChildIntersectsParent
                0x9d00f564       0x74
 .text.laUtils_ChildIntersectsParent
                0x9d00f564       0x74 build/default/production/_ext/1071800814/libaria_utils.o
                0x9d00f564                laUtils_ChildIntersectsParent

.text.laUtils_GetNextHighestWidget
                0x9d00f5d8       0x74
 .text.laUtils_GetNextHighestWidget
                0x9d00f5d8       0x74 build/default/production/_ext/1071800814/libaria_utils.o
                0x9d00f5d8                laUtils_GetNextHighestWidget

.text.laWidget_Invalidate
                0x9d00f64c       0x74
 .text.laWidget_Invalidate
                0x9d00f64c       0x74 build/default/production/_ext/1071800814/libaria_widget.o
                0x9d00f64c                laWidget_Invalidate

.text.laWidget_SkinClassic_DrawStandardRaisedBorder
                0x9d00f6c0       0x74
 .text.laWidget_SkinClassic_DrawStandardRaisedBorder
                0x9d00f6c0       0x74 build/default/production/_ext/1071800814/libaria_widget_skin_classic_common.o
                0x9d00f6c0                laWidget_SkinClassic_DrawStandardRaisedBorder

.text.GFX_PixelBufferSet_Unsafe
                0x9d00f734       0x74
 .text.GFX_PixelBufferSet_Unsafe
                0x9d00f734       0x74 build/default/production/_ext/676789875/gfx_pixel_buffer.o
                0x9d00f734                GFX_PixelBufferSet_Unsafe

.text.GFX_RectContainsRect
                0x9d00f7a8       0x74
 .text.GFX_RectContainsRect
                0x9d00f7a8       0x74 build/default/production/_ext/676789875/gfx_rect.o
                0x9d00f7a8                GFX_RectContainsRect

.text.GFX_RectIntersects
                0x9d00f81c       0x74
 .text.GFX_RectIntersects
                0x9d00f81c       0x74 build/default/production/_ext/676789875/gfx_rect.o
                0x9d00f81c                GFX_RectIntersects

.text.GFX_Set   0x9d00f890       0x70
 .text.GFX_Set  0x9d00f890       0x70 build/default/production/_ext/676789875/gfx.o
                0x9d00f890                GFX_Set

.text.GFX_ScaleInteger
                0x9d00f900       0x70
 .text.GFX_ScaleInteger
                0x9d00f900       0x70 build/default/production/_ext/676789875/gfx_math.o
                0x9d00f900                GFX_ScaleInteger

.text.handleTouchUp
                0x9d00f970       0x6c
 .text.handleTouchUp
                0x9d00f970       0x6c build/default/production/_ext/1071800814/libaria_input.o
                0x9d00f970                handleTouchUp

.text.handleTouchMoved
                0x9d00f9dc       0x6c
 .text.handleTouchMoved
                0x9d00f9dc       0x6c build/default/production/_ext/1071800814/libaria_input.o
                0x9d00f9dc                handleTouchMoved

.text.laRectArray_RemoveAt
                0x9d00fa48       0x6c
 .text.laRectArray_RemoveAt
                0x9d00fa48       0x6c build/default/production/_ext/1071800814/libaria_rectarray.o
                0x9d00fa48                laRectArray_RemoveAt

.text.laUtils_GetLayer
                0x9d00fab4       0x6c
 .text.laUtils_GetLayer
                0x9d00fab4       0x6c build/default/production/_ext/1071800814/libaria_utils.o
                0x9d00fab4                laUtils_GetLayer

.text.laWidget_SkinClassic_DrawLineBorder
                0x9d00fb20       0x6c
 .text.laWidget_SkinClassic_DrawLineBorder
                0x9d00fb20       0x6c build/default/production/_ext/1071800814/libaria_widget_skin_classic_common.o
                0x9d00fb20                laWidget_SkinClassic_DrawLineBorder

.text.GFX_Lerp  0x9d00fb8c       0x6c
 .text.GFX_Lerp
                0x9d00fb8c       0x6c build/default/production/_ext/676789875/gfx_math.o
                0x9d00fb8c                GFX_Lerp

.text.LibAria_Initialize
                0x9d00fbf8       0x6c
 .text.LibAria_Initialize
                0x9d00fbf8       0x6c build/default/production/_ext/458109090/libaria_harmony.o
                0x9d00fbf8                LibAria_Initialize

.text.laContext_GetScreenRect
                0x9d00fc64       0x68
 .text.laContext_GetScreenRect
                0x9d00fc64       0x68 build/default/production/_ext/1071800814/libaria_context.o
                0x9d00fc64                laContext_GetScreenRect

.text.laRectArray_Destroy
                0x9d00fccc       0x68
 .text.laRectArray_Destroy
                0x9d00fccc       0x68 build/default/production/_ext/1071800814/libaria_rectarray.o
                0x9d00fccc                laRectArray_Destroy

.text.defDrawGradientColorGet
                0x9d00fd34       0x68
 .text.defDrawGradientColorGet
                0x9d00fd34       0x68 build/default/production/_ext/676789875/gfx_default_impl.o
                0x9d00fd34                defDrawGradientColorGet

.text.defLayerSizeGet
                0x9d00fd9c       0x68
 .text.defLayerSizeGet
                0x9d00fd9c       0x68 build/default/production/_ext/676789875/gfx_default_impl.o
                0x9d00fd9c                defLayerSizeGet

.text.defLayerSizeSet
                0x9d00fe04       0x68
 .text.defLayerSizeSet
                0x9d00fe04       0x68 build/default/production/_ext/676789875/gfx_default_impl.o
                0x9d00fe04                defLayerSizeSet

.text._GFX_LayerSizeSet
                0x9d00fe6c       0x68
 .text._GFX_LayerSizeSet
                0x9d00fe6c       0x68 build/default/production/_ext/676789875/gfx_layer.o
                0x9d00fe6c                _GFX_LayerSizeSet

.text._laInput_HandleInputEvent
                0x9d00fed4       0x64
 .text._laInput_HandleInputEvent
                0x9d00fed4       0x64 build/default/production/_ext/1071800814/libaria_input.o
                0x9d00fed4                _laInput_HandleInputEvent

.text._laWidget_ValidateChildren
                0x9d00ff38       0x64
 .text._laWidget_ValidateChildren
                0x9d00ff38       0x64 build/default/production/_ext/1071800814/libaria_widget.o
                0x9d00ff38                _laWidget_ValidateChildren

.text.defLayerActiveSet
                0x9d00ff9c       0x64
 .text.defLayerActiveSet
                0x9d00ff9c       0x64 build/default/production/_ext/676789875/gfx_default_impl.o
                0x9d00ff9c                defLayerActiveSet

.text.defDrawMaskEnableSet
                0x9d010000       0x64
 .text.defDrawMaskEnableSet
                0x9d010000       0x64 build/default/production/_ext/676789875/gfx_default_impl.o
                0x9d010000                defDrawMaskEnableSet

.text.GFX_PixelBufferOffsetGet
                0x9d010064       0x64
 .text.GFX_PixelBufferOffsetGet
                0x9d010064       0x64 build/default/production/_ext/676789875/gfx_pixel_buffer.o
                0x9d010064                GFX_PixelBufferOffsetGet

.text.rgb565_gs8
                0x9d0100c8       0x64
 .text.rgb565_gs8
                0x9d0100c8       0x64 build/default/production/_ext/676789875/gfx_color_convert.o

.text.rgb332_gs8
                0x9d01012c       0x64
 .text.rgb332_gs8
                0x9d01012c       0x64 build/default/production/_ext/676789875/gfx_color_convert.o

.text.laLayer_Delete
                0x9d010190       0x60
 .text.laLayer_Delete
                0x9d010190       0x60 build/default/production/_ext/1071800814/libaria_layer.o
                0x9d010190                laLayer_Delete

.text.GFX_RectFromPoints
                0x9d0101f0       0x60
 .text.GFX_RectFromPoints
                0x9d0101f0       0x60 build/default/production/_ext/676789875/gfx_rect.o
                0x9d0101f0                GFX_RectFromPoints

.text.lut_argb8888
                0x9d010250       0x60
 .text.lut_argb8888
                0x9d010250       0x60 build/default/production/_ext/676789875/gfx_color_convert.o

.text.lut_rgba8888
                0x9d0102b0       0x60
 .text.lut_rgba8888
                0x9d0102b0       0x60 build/default/production/_ext/676789875/gfx_color_convert.o

.text.lut_rgb888
                0x9d010310       0x60
 .text.lut_rgb888
                0x9d010310       0x60 build/default/production/_ext/676789875/gfx_color_convert.o

.text.lut_rgba5551
                0x9d010370       0x60
 .text.lut_rgba5551
                0x9d010370       0x60 build/default/production/_ext/676789875/gfx_color_convert.o

.text.lut_rgb565
                0x9d0103d0       0x60
 .text.lut_rgb565
                0x9d0103d0       0x60 build/default/production/_ext/676789875/gfx_color_convert.o

.text.lut_rgb332
                0x9d010430       0x60
 .text.lut_rgb332
                0x9d010430       0x60 build/default/production/_ext/676789875/gfx_color_convert.o

.text.lut_gs8   0x9d010490       0x60
 .text.lut_gs8  0x9d010490       0x60 build/default/production/_ext/676789875/gfx_color_convert.o

.text.sitofp    0x9d0104f0       0x60
 .text.sitofp   0x9d0104f0       0x60 c:/program files (x86)/microchip/xc32/v2.30/bin/bin/../../lib/gcc/pic32mx/4.8.3/../../../../pic32mx/lib\libm.a(sitofp.o)
                0x9d0104f0                sitofp
                0x9d0104f0                litofp
                0x9d0104f0                __floatsisf

.text.laUtils_RectToLayerSpace
                0x9d010550       0x5c
 .text.laUtils_RectToLayerSpace
                0x9d010550       0x5c build/default/production/_ext/1071800814/libaria_utils.o
                0x9d010550                laUtils_RectToLayerSpace

.text.drawBorder
                0x9d0105ac       0x5c
 .text.drawBorder
                0x9d0105ac       0x5c build/default/production/_ext/1071800814/libaria_widget_skin_classic.o

.text.defDrawGradientColorSet
                0x9d010608       0x5c
 .text.defDrawGradientColorSet
                0x9d010608       0x5c build/default/production/_ext/676789875/gfx_default_impl.o
                0x9d010608                defDrawGradientColorSet

.text.defLayerPositionGet
                0x9d010664       0x5c
 .text.defLayerPositionGet
                0x9d010664       0x5c build/default/production/_ext/676789875/gfx_default_impl.o
                0x9d010664                defLayerPositionGet

.text.indexGet  0x9d0106c0       0x5c
 .text.indexGet
                0x9d0106c0       0x5c build/default/production/_ext/676789875/gfx_pixel_buffer.o

.text.GFX_PixelBufferDestroy
                0x9d01071c       0x5c
 .text.GFX_PixelBufferDestroy
                0x9d01071c       0x5c build/default/production/_ext/676789875/gfx_pixel_buffer.o
                0x9d01071c                GFX_PixelBufferDestroy

.text.GFX_PixelBufferGet_Unsafe
                0x9d010778       0x5c
 .text.GFX_PixelBufferGet_Unsafe
                0x9d010778       0x5c build/default/production/_ext/676789875/gfx_pixel_buffer.o
                0x9d010778                GFX_PixelBufferGet_Unsafe

.text.GFX_PixelBufferGetIndex
                0x9d0107d4       0x5c
 .text.GFX_PixelBufferGetIndex
                0x9d0107d4       0x5c build/default/production/_ext/676789875/gfx_pixel_buffer.o
                0x9d0107d4                GFX_PixelBufferGetIndex

.text.GFX_ColorLerp
                0x9d010830       0x5c
 .text.GFX_ColorLerp
                0x9d010830       0x5c build/default/production/_ext/676789875/gfx_color_lerp.o
                0x9d010830                GFX_ColorLerp

.text.pointRelPositionFromLine
                0x9d01088c       0x5c
 .text.pointRelPositionFromLine
                0x9d01088c       0x5c build/default/production/_ext/676789875/gfx_draw_arc.o
                0x9d01088c                pointRelPositionFromLine

.text._laLayer_NeedsDraw
                0x9d0108e8       0x58
 .text._laLayer_NeedsDraw
                0x9d0108e8       0x58 build/default/production/_ext/1071800814/libaria_layer.o
                0x9d0108e8                _laLayer_NeedsDraw

.text.GFX_Get   0x9d010940       0x58
 .text.GFX_Get  0x9d010940       0x58 build/default/production/_ext/676789875/gfx.o
                0x9d010940                GFX_Get

.text.defDrawPipelineModeSet
                0x9d010998       0x58
 .text.defDrawPipelineModeSet
                0x9d010998       0x58 build/default/production/_ext/676789875/gfx_default_impl.o
                0x9d010998                defDrawPipelineModeSet

.text.defDrawPaletteGet
                0x9d0109f0       0x58
 .text.defDrawPaletteGet
                0x9d0109f0       0x58 build/default/production/_ext/676789875/gfx_default_impl.o
                0x9d0109f0                defDrawPaletteGet

.text.GFX_PercentWholeRounded
                0x9d010a48       0x58
 .text.GFX_PercentWholeRounded
                0x9d010a48       0x58 build/default/production/_ext/676789875/gfx_math.o
                0x9d010a48                GFX_PercentWholeRounded

.text.setIO     0x9d010aa0       0x58
 .text.setIO    0x9d010aa0       0x58 build/default/production/_ext/1689523328/drv_gfx_ssd1289.o

.text.SYS_DEVCON_SystemUnlock
                0x9d010af8       0x58
 .text.SYS_DEVCON_SystemUnlock
                0x9d010af8       0x58 build/default/production/_ext/340578644/sys_devcon.o
                0x9d010af8                SYS_DEVCON_SystemUnlock

.text._laLayer_Postframe
                0x9d010b50       0x54
 .text._laLayer_Postframe
                0x9d010b50       0x54 build/default/production/_ext/1071800814/libaria_layer.o
                0x9d010b50                _laLayer_Postframe

.text.laWidget_GetCumulativeAlphaEnable
                0x9d010ba4       0x54
 .text.laWidget_GetCumulativeAlphaEnable
                0x9d010ba4       0x54 build/default/production/_ext/1071800814/libaria_widget.o
                0x9d010ba4                laWidget_GetCumulativeAlphaEnable

.text.laWidget_SkinClassic_DrawRoundCornerBackground
                0x9d010bf8       0x54
 .text.laWidget_SkinClassic_DrawRoundCornerBackground
                0x9d010bf8       0x54 build/default/production/_ext/1071800814/libaria_widget_skin_classic_common.o
                0x9d010bf8                laWidget_SkinClassic_DrawRoundCornerBackground

.text.main_entry
                0x9d010c4c       0x54
 .text.main_entry
                0x9d010c4c       0x54 C:\Users\and08479\AppData\Local\Temp\ccFsgLgR.o
                0x9d010c80                __crt0_exit

.text._laLayer_Reset
                0x9d010ca0       0x50
 .text._laLayer_Reset
                0x9d010ca0       0x50 build/default/production/_ext/1071800814/libaria_layer.o
                0x9d010ca0                _laLayer_Reset

.text.GFX_PixelBufferGet
                0x9d010cf0       0x50
 .text.GFX_PixelBufferGet
                0x9d010cf0       0x50 build/default/production/_ext/676789875/gfx_pixel_buffer.o
                0x9d010cf0                GFX_PixelBufferGet

.text.GFX_RectContainsPoint
                0x9d010d40       0x50
 .text.GFX_RectContainsPoint
                0x9d010d40       0x50 build/default/production/_ext/676789875/gfx_rect.o
                0x9d010d40                GFX_RectContainsPoint

.text.wait      0x9d010d90       0x50
 .text.wait     0x9d010d90       0x50 build/default/production/_ext/1689523328/drv_gfx_ssd1289.o

.text.sbrk      0x9d010de0       0x50
 .text.sbrk     0x9d010de0       0x50 c:/program files (x86)/microchip/xc32/v2.30/bin/bin/../../lib/gcc/pic32mx/4.8.3/../../../../pic32mx/lib\libpic32.a(sbrk.o)
                0x9d010de0                sbrk

.text._laWidget_Paint
                0x9d010e30       0x4c
 .text._laWidget_Paint
                0x9d010e30       0x4c build/default/production/_ext/1071800814/libaria_widget_skin_classic.o
                0x9d010e30                _laWidget_Paint

.text.defLayerBufferCoherentSet
                0x9d010e7c       0x4c
 .text.defLayerBufferCoherentSet
                0x9d010e7c       0x4c build/default/production/_ext/676789875/gfx_default_impl.o
                0x9d010e7c                defLayerBufferCoherentSet

.text.LibAria_Tasks
                0x9d010ec8       0x4c
 .text.LibAria_Tasks
                0x9d010ec8       0x4c build/default/production/_ext/458109090/libaria_harmony.o
                0x9d010ec8                LibAria_Tasks

.text           0x9d010f14       0x4c
 .text          0x9d010f14       0x4c c:/program files (x86)/microchip/xc32/v2.30/bin/bin/../../lib/gcc/pic32mx/4.8.3\libgcc.a(floatunsisf.o)
                0x9d010f14                __floatunsisf

.text.calloc    0x9d010f60       0x4c
 .text.calloc   0x9d010f60       0x4c c:/program files (x86)/microchip/xc32/v2.30/bin/bin/../../lib/gcc/pic32mx/4.8.3/../../../../pic32mx/lib\libc.a(calloc.o)
                0x9d010f60                calloc

.text.laContext_AddScreen
                0x9d010fac       0x48
 .text.laContext_AddScreen
                0x9d010fac       0x48 build/default/production/_ext/1071800814/libaria_context.o
                0x9d010fac                laContext_AddScreen

.text.laEvent_AddEvent
                0x9d010ff4       0x48
 .text.laEvent_AddEvent
                0x9d010ff4       0x48 build/default/production/_ext/1071800814/libaria_event.o
                0x9d010ff4                laEvent_AddEvent

.text.defDrawTargetSet
                0x9d01103c       0x48
 .text.defDrawTargetSet
                0x9d01103c       0x48 build/default/production/_ext/676789875/gfx_default_impl.o
                0x9d01103c                defDrawTargetSet

.text.defDrawClipRectGet
                0x9d011084       0x48
 .text.defDrawClipRectGet
                0x9d011084       0x48 build/default/production/_ext/676789875/gfx_default_impl.o
                0x9d011084                defDrawClipRectGet

.text.defDrawClipRectSet
                0x9d0110cc       0x48
 .text.defDrawClipRectSet
                0x9d0110cc       0x48 build/default/production/_ext/676789875/gfx_default_impl.o
                0x9d0110cc                defDrawClipRectSet

.text.GFX_RectCompare
                0x9d011114       0x48
 .text.GFX_RectCompare
                0x9d011114       0x48 build/default/production/_ext/676789875/gfx_rect.o
                0x9d011114                GFX_RectCompare

.text.driverSSD1926InfoGet
                0x9d01115c       0x48
 .text.driverSSD1926InfoGet
                0x9d01115c       0x48 build/default/production/_ext/347121368/drv_gfx_ssd1926.o
                0x9d01115c                driverSSD1926InfoGet

.text.SYS_DEVCON_SystemLock
                0x9d0111a4       0x48
 .text.SYS_DEVCON_SystemLock
                0x9d0111a4       0x48 build/default/production/_ext/340578644/sys_devcon.o
                0x9d0111a4                SYS_DEVCON_SystemLock

.text._bootstrap_exception_handler
                0x9d0111ec       0x48
 .text._bootstrap_exception_handler
                0x9d0111ec       0x48 c:/program files (x86)/microchip/xc32/v2.30/bin/bin/../../lib/gcc/pic32mx/4.8.3/../../../../pic32mx/lib\libpic32.a(default-bootstrap-exception-handler.o)
                0x9d0111ec                _bootstrap_exception_handler

.vector_default
                0x9d011234       0x48
 .vector_default
                0x9d011234       0x48 c:/program files (x86)/microchip/xc32/v2.30/bin/bin/../../lib/gcc/pic32mx/4.8.3/../../../../pic32mx/lib\libpic32.a(defaultinterrupt.o)
                0x9d011234                _DefaultInterrupt

.text.defBegin  0x9d01127c       0x44
 .text.defBegin
                0x9d01127c       0x44 build/default/production/_ext/676789875/gfx_default_impl.o
                0x9d01127c                defBegin

.text.defLayerBufferIsAllocated
                0x9d0112c0       0x44
 .text.defLayerBufferIsAllocated
                0x9d0112c0       0x44 build/default/production/_ext/676789875/gfx_default_impl.o
                0x9d0112c0                defLayerBufferIsAllocated

.text.get_layerBufferAddress
                0x9d011304       0x44
 .text.get_layerBufferAddress
                0x9d011304       0x44 build/default/production/_ext/676789875/gfx_get.o
                0x9d011304                get_layerBufferAddress

.text.get_layerBufferCoherent
                0x9d011348       0x44
 .text.get_layerBufferCoherent
                0x9d011348       0x44 build/default/production/_ext/676789875/gfx_get.o
                0x9d011348                get_layerBufferCoherent

.text.get_layerBufferAllocated
                0x9d01138c       0x44
 .text.get_layerBufferAllocated
                0x9d01138c       0x44 build/default/production/_ext/676789875/gfx_get.o
                0x9d01138c                get_layerBufferAllocated

.text.GFX_ColorConvert
                0x9d0113d0       0x44
 .text.GFX_ColorConvert
                0x9d0113d0       0x44 build/default/production/_ext/676789875/gfx_color_convert.o
                0x9d0113d0                GFX_ColorConvert

.text.destroy   0x9d011414       0x44
 .text.destroy  0x9d011414       0x44 build/default/production/_ext/347121368/drv_gfx_ssd1926.o

.text.SYS_CLK_Initialize
                0x9d011458       0x44
 .text.SYS_CLK_Initialize
                0x9d011458       0x44 build/default/production/_ext/639803181/sys_clk_pic32mx.o
                0x9d011458                SYS_CLK_Initialize

.text           0x9d01149c       0x44
 .text          0x9d01149c       0x44 c:/program files (x86)/microchip/xc32/v2.30/bin/bin/../../lib/gcc/pic32mx/4.8.3/../../../../pic32mx/lib\pic32_software_reset.o
                0x9d01149c                __pic32_software_reset

.text.laContext_Update
                0x9d0114e0       0x40
 .text.laContext_Update
                0x9d0114e0       0x40 build/default/production/_ext/1071800814/libaria_context.o
                0x9d0114e0                laContext_Update

.text.laWidget_GetIndexOfChild
                0x9d011520       0x40
 .text.laWidget_GetIndexOfChild
                0x9d011520       0x40 build/default/production/_ext/1071800814/libaria_widget.o
                0x9d011520                laWidget_GetIndexOfChild

.text.defBrightnessSet
                0x9d011560       0x40
 .text.defBrightnessSet
                0x9d011560       0x40 build/default/production/_ext/676789875/gfx_default_impl.o
                0x9d011560                defBrightnessSet

.text.get_drawGradientColor
                0x9d0115a0       0x40
 .text.get_drawGradientColor
                0x9d0115a0       0x40 build/default/production/_ext/676789875/gfx_get.o
                0x9d0115a0                get_drawGradientColor

.text.rgba5551_rgba8888
                0x9d0115e0       0x40
 .text.rgba5551_rgba8888
                0x9d0115e0       0x40 build/default/production/_ext/676789875/gfx_color_convert.o

.text.rgba5551_argb8888
                0x9d011620       0x40
 .text.rgba5551_argb8888
                0x9d011620       0x40 build/default/production/_ext/676789875/gfx_color_convert.o

.text._general_exception_handler
                0x9d011660       0x40
 .text._general_exception_handler
                0x9d011660       0x40 build/default/production/_ext/1688732426/system_exceptions.o
                0x9d011660                _general_exception_handler

.text.laContext_GetActiveScreenIndex
                0x9d0116a0       0x3c
 .text.laContext_GetActiveScreenIndex
                0x9d0116a0       0x3c build/default/production/_ext/1071800814/libaria_context.o
                0x9d0116a0                laContext_GetActiveScreenIndex

.text.defVSyncCallbackSet
                0x9d0116dc       0x3c
 .text.defVSyncCallbackSet
                0x9d0116dc       0x3c build/default/production/_ext/676789875/gfx_default_impl.o
                0x9d0116dc                defVSyncCallbackSet

.text.defHSyncCallbackSet
                0x9d011718       0x3c
 .text.defHSyncCallbackSet
                0x9d011718       0x3c build/default/production/_ext/676789875/gfx_default_impl.o
                0x9d011718                defHSyncCallbackSet

.text.defLayerBufferAddressGet
                0x9d011754       0x3c
 .text.defLayerBufferAddressGet
                0x9d011754       0x3c build/default/production/_ext/676789875/gfx_default_impl.o
                0x9d011754                defLayerBufferAddressGet

.text.defLayerBufferCoherentGet
                0x9d011790       0x3c
 .text.defLayerBufferCoherentGet
                0x9d011790       0x3c build/default/production/_ext/676789875/gfx_default_impl.o
                0x9d011790                defLayerBufferCoherentGet

.text.defLayerAlphaAmountSet
                0x9d0117cc       0x3c
 .text.defLayerAlphaAmountSet
                0x9d0117cc       0x3c build/default/production/_ext/676789875/gfx_default_impl.o
                0x9d0117cc                defLayerAlphaAmountSet

.text.GFX_PixelBufferOffsetGet_Unsafe
                0x9d011808       0x3c
 .text.GFX_PixelBufferOffsetGet_Unsafe
                0x9d011808       0x3c build/default/production/_ext/676789875/gfx_pixel_buffer.o
                0x9d011808                GFX_PixelBufferOffsetGet_Unsafe

.text.GFX_RectToPoints
                0x9d011844       0x3c
 .text.GFX_RectToPoints
                0x9d011844       0x3c build/default/production/_ext/676789875/gfx_rect.o
                0x9d011844                GFX_RectToPoints

.text.GFX_UtilOrientPoint
                0x9d011880       0x3c
 .text.GFX_UtilOrientPoint
                0x9d011880       0x3c build/default/production/_ext/676789875/gfx_util.o
                0x9d011880                GFX_UtilOrientPoint

.text.GFX_UtilMirrorPoint
                0x9d0118bc       0x3c
 .text.GFX_UtilMirrorPoint
                0x9d0118bc       0x3c build/default/production/_ext/676789875/gfx_util.o
                0x9d0118bc                GFX_UtilMirrorPoint

.text.set_layerAlphaEnable
                0x9d0118f8       0x3c
 .text.set_layerAlphaEnable
                0x9d0118f8       0x3c build/default/production/_ext/676789875/gfx_set.o
                0x9d0118f8                set_layerAlphaEnable

.text.set_layerAlphaAmount
                0x9d011934       0x3c
 .text.set_layerAlphaAmount
                0x9d011934       0x3c build/default/production/_ext/676789875/gfx_set.o
                0x9d011934                set_layerAlphaAmount

.text.set_layerMaskEnable
                0x9d011970       0x3c
 .text.set_layerMaskEnable
                0x9d011970       0x3c build/default/production/_ext/676789875/gfx_set.o
                0x9d011970                set_layerMaskEnable

.text.set_layerMaskColor
                0x9d0119ac       0x3c
 .text.set_layerMaskColor
                0x9d0119ac       0x3c build/default/production/_ext/676789875/gfx_set.o
                0x9d0119ac                set_layerMaskColor

.text.set_drawGradientColor
                0x9d0119e8       0x3c
 .text.set_drawGradientColor
                0x9d0119e8       0x3c build/default/production/_ext/676789875/gfx_set.o
                0x9d0119e8                set_drawGradientColor

.text.laInitialize
                0x9d011a24       0x38
 .text.laInitialize
                0x9d011a24       0x38 build/default/production/_ext/1071800814/libaria.o
                0x9d011a24                laInitialize

.text.laEditWidget_StartEdit
                0x9d011a5c       0x38
 .text.laEditWidget_StartEdit
                0x9d011a5c       0x38 build/default/production/_ext/1071800814/libaria_editwidget.o
                0x9d011a5c                laEditWidget_StartEdit

.text.laWidget_GetChildAtIndex
                0x9d011a94       0x38
 .text.laWidget_GetChildAtIndex
                0x9d011a94       0x38 build/default/production/_ext/1071800814/libaria_widget.o
                0x9d011a94                laWidget_GetChildAtIndex

.text.GFX_Update
                0x9d011acc       0x38
 .text.GFX_Update
                0x9d011acc       0x38 build/default/production/_ext/676789875/gfx.o
                0x9d011acc                GFX_Update

.text.GFX_Begin
                0x9d011b04       0x38
 .text.GFX_Begin
                0x9d011b04       0x38 build/default/production/_ext/676789875/gfx.o
                0x9d011b04                GFX_Begin

.text.GFX_DriverIntfGet
                0x9d011b3c       0x38
 .text.GFX_DriverIntfGet
                0x9d011b3c       0x38 build/default/production/_ext/676789875/gfx_driver_interface.o
                0x9d011b3c                GFX_DriverIntfGet

.text.get_brightness
                0x9d011b74       0x38
 .text.get_brightness
                0x9d011b74       0x38 build/default/production/_ext/676789875/gfx_get.o
                0x9d011b74                get_brightness

.text.get_vsyncCallback
                0x9d011bac       0x38
 .text.get_vsyncCallback
                0x9d011bac       0x38 build/default/production/_ext/676789875/gfx_get.o
                0x9d011bac                get_vsyncCallback

.text.get_hsyncCallback
                0x9d011be4       0x38
 .text.get_hsyncCallback
                0x9d011be4       0x38 build/default/production/_ext/676789875/gfx_get.o
                0x9d011be4                get_hsyncCallback

.text.get_orientation
                0x9d011c1c       0x38
 .text.get_orientation
                0x9d011c1c       0x38 build/default/production/_ext/676789875/gfx_get.o
                0x9d011c1c                get_orientation

.text.get_mirroring
                0x9d011c54       0x38
 .text.get_mirroring
                0x9d011c54       0x38 build/default/production/_ext/676789875/gfx_get.o
                0x9d011c54                get_mirroring

.text.get_colorMode
                0x9d011c8c       0x38
 .text.get_colorMode
                0x9d011c8c       0x38 build/default/production/_ext/676789875/gfx_get.o
                0x9d011c8c                get_colorMode

.text.get_globalPalette
                0x9d011cc4       0x38
 .text.get_globalPalette
                0x9d011cc4       0x38 build/default/production/_ext/676789875/gfx_get.o
                0x9d011cc4                get_globalPalette

.text.get_layerEnabled
                0x9d011cfc       0x38
 .text.get_layerEnabled
                0x9d011cfc       0x38 build/default/production/_ext/676789875/gfx_get.o
                0x9d011cfc                get_layerEnabled

.text.get_layerVisible
                0x9d011d34       0x38
 .text.get_layerVisible
                0x9d011d34       0x38 build/default/production/_ext/676789875/gfx_get.o
                0x9d011d34                get_layerVisible

.text.get_layerInvalid
                0x9d011d6c       0x38
 .text.get_layerInvalid
                0x9d011d6c       0x38 build/default/production/_ext/676789875/gfx_get.o
                0x9d011d6c                get_layerInvalid

.text.get_layerVsync
                0x9d011da4       0x38
 .text.get_layerVsync
                0x9d011da4       0x38 build/default/production/_ext/676789875/gfx_get.o
                0x9d011da4                get_layerVsync

.text.get_layerSwapSync
                0x9d011ddc       0x38
 .text.get_layerSwapSync
                0x9d011ddc       0x38 build/default/production/_ext/676789875/gfx_get.o
                0x9d011ddc                get_layerSwapSync

.text.get_layerSwap
                0x9d011e14       0x38
 .text.get_layerSwap
                0x9d011e14       0x38 build/default/production/_ext/676789875/gfx_get.o
                0x9d011e14                get_layerSwap

.text.get_layerAlphaEnable
                0x9d011e4c       0x38
 .text.get_layerAlphaEnable
                0x9d011e4c       0x38 build/default/production/_ext/676789875/gfx_get.o
                0x9d011e4c                get_layerAlphaEnable

.text.get_layerAlphaAmount
                0x9d011e84       0x38
 .text.get_layerAlphaAmount
                0x9d011e84       0x38 build/default/production/_ext/676789875/gfx_get.o
                0x9d011e84                get_layerAlphaAmount

.text.get_layerMaskEnable
                0x9d011ebc       0x38
 .text.get_layerMaskEnable
                0x9d011ebc       0x38 build/default/production/_ext/676789875/gfx_get.o
                0x9d011ebc                get_layerMaskEnable

.text.get_layerMaskColor
                0x9d011ef4       0x38
 .text.get_layerMaskColor
                0x9d011ef4       0x38 build/default/production/_ext/676789875/gfx_get.o
                0x9d011ef4                get_layerMaskColor

.text.get_layerBufferCount
                0x9d011f2c       0x38
 .text.get_layerBufferCount
                0x9d011f2c       0x38 build/default/production/_ext/676789875/gfx_get.o
                0x9d011f2c                get_layerBufferCount

.text.get_drawPipelineMode
                0x9d011f64       0x38
 .text.get_drawPipelineMode
                0x9d011f64       0x38 build/default/production/_ext/676789875/gfx_get.o
                0x9d011f64                get_drawPipelineMode

.text.get_drawMode
                0x9d011f9c       0x38
 .text.get_drawMode
                0x9d011f9c       0x38 build/default/production/_ext/676789875/gfx_get.o
                0x9d011f9c                get_drawMode

.text.get_drawColor
                0x9d011fd4       0x38
 .text.get_drawColor
                0x9d011fd4       0x38 build/default/production/_ext/676789875/gfx_get.o
                0x9d011fd4                get_drawColor

.text.get_drawBlendMode
                0x9d01200c       0x38
 .text.get_drawBlendMode
                0x9d01200c       0x38 build/default/production/_ext/676789875/gfx_get.o
                0x9d01200c                get_drawBlendMode

.text.get_drawResizeMode
                0x9d012044       0x38
 .text.get_drawResizeMode
                0x9d012044       0x38 build/default/production/_ext/676789875/gfx_get.o
                0x9d012044                get_drawResizeMode

.text.get_drawAlphaEnable
                0x9d01207c       0x38
 .text.get_drawAlphaEnable
                0x9d01207c       0x38 build/default/production/_ext/676789875/gfx_get.o
                0x9d01207c                get_drawAlphaEnable

.text.get_drawAlphaValue
                0x9d0120b4       0x38
 .text.get_drawAlphaValue
                0x9d0120b4       0x38 build/default/production/_ext/676789875/gfx_get.o
                0x9d0120b4                get_drawAlphaValue

.text.get_drawMaskEnable
                0x9d0120ec       0x38
 .text.get_drawMaskEnable
                0x9d0120ec       0x38 build/default/production/_ext/676789875/gfx_get.o
                0x9d0120ec                get_drawMaskEnable

.text.get_drawMaskValue
                0x9d012124       0x38
 .text.get_drawMaskValue
                0x9d012124       0x38 build/default/production/_ext/676789875/gfx_get.o
                0x9d012124                get_drawMaskValue

.text.get_drawThickness
                0x9d01215c       0x38
 .text.get_drawThickness
                0x9d01215c       0x38 build/default/production/_ext/676789875/gfx_get.o
                0x9d01215c                get_drawThickness

.text.get_drawClipEnable
                0x9d012194       0x38
 .text.get_drawClipEnable
                0x9d012194       0x38 build/default/production/_ext/676789875/gfx_get.o
                0x9d012194                get_drawClipEnable

.text.deviceBusy
                0x9d0121cc       0x38
 .text.deviceBusy
                0x9d0121cc       0x38 build/default/production/_ext/347121368/drv_gfx_ssd1926.o

.text.laInput_SetEnabled
                0x9d012204       0x34
 .text.laInput_SetEnabled
                0x9d012204       0x34 build/default/production/_ext/1071800814/libaria_input.o
                0x9d012204                laInput_SetEnabled

.text.defLayerBufferFree
                0x9d012238       0x34
 .text.defLayerBufferFree
                0x9d012238       0x34 build/default/production/_ext/676789875/gfx_default_impl.o
                0x9d012238                defLayerBufferFree

.text.defLayerBufferAllocate
                0x9d01226c       0x34
 .text.defLayerBufferAllocate
                0x9d01226c       0x34 build/default/production/_ext/676789875/gfx_default_impl.o
                0x9d01226c                defLayerBufferAllocate

.text.get_driverInfo
                0x9d0122a0       0x34
 .text.get_driverInfo
                0x9d0122a0       0x34 build/default/production/_ext/676789875/gfx_get.o
                0x9d0122a0                get_driverInfo

.text.get_brightnessRange
                0x9d0122d4       0x34
 .text.get_brightnessRange
                0x9d0122d4       0x34 build/default/production/_ext/676789875/gfx_get.o
                0x9d0122d4                get_brightnessRange

.text.get_layerCount
                0x9d012308       0x34
 .text.get_layerCount
                0x9d012308       0x34 build/default/production/_ext/676789875/gfx_get.o
                0x9d012308                get_layerCount

.text.get_layerActive
                0x9d01233c       0x34
 .text.get_layerActive
                0x9d01233c       0x34 build/default/production/_ext/676789875/gfx_get.o
                0x9d01233c                get_layerActive

.text.get_layerPosition
                0x9d012370       0x34
 .text.get_layerPosition
                0x9d012370       0x34 build/default/production/_ext/676789875/gfx_get.o
                0x9d012370                get_layerPosition

.text.get_layerSize
                0x9d0123a4       0x34
 .text.get_layerSize
                0x9d0123a4       0x34 build/default/production/_ext/676789875/gfx_get.o
                0x9d0123a4                get_layerSize

.text.get_drawPalette
                0x9d0123d8       0x34
 .text.get_drawPalette
                0x9d0123d8       0x34 build/default/production/_ext/676789875/gfx_get.o
                0x9d0123d8                get_drawPalette

.text.get_drawTarget
                0x9d01240c       0x34
 .text.get_drawTarget
                0x9d01240c       0x34 build/default/production/_ext/676789875/gfx_get.o
                0x9d01240c                get_drawTarget

.text.set_layerPosition
                0x9d012440       0x34
 .text.set_layerPosition
                0x9d012440       0x34 build/default/production/_ext/676789875/gfx_set.o
                0x9d012440                set_layerPosition

.text.set_layerSize
                0x9d012474       0x34
 .text.set_layerSize
                0x9d012474       0x34 build/default/production/_ext/676789875/gfx_set.o
                0x9d012474                set_layerSize

.text.set_layerBufferAddress
                0x9d0124a8       0x34
 .text.set_layerBufferAddress
                0x9d0124a8       0x34 build/default/production/_ext/676789875/gfx_set.o
                0x9d0124a8                set_layerBufferAddress

.text.set_layerBufferCoherent
                0x9d0124dc       0x34
 .text.set_layerBufferCoherent
                0x9d0124dc       0x34 build/default/production/_ext/676789875/gfx_set.o
                0x9d0124dc                set_layerBufferCoherent

.text.rgba8888_rgba5551
                0x9d012510       0x34
 .text.rgba8888_rgba5551
                0x9d012510       0x34 build/default/production/_ext/676789875/gfx_color_convert.o

.text.laEditWidget_EndEdit
                0x9d012544       0x30
 .text.laEditWidget_EndEdit
                0x9d012544       0x30 build/default/production/_ext/1071800814/libaria_editwidget.o
                0x9d012544                laEditWidget_EndEdit

.text.laUtils_WidgetLocalRect
                0x9d012574       0x30
 .text.laUtils_WidgetLocalRect
                0x9d012574       0x30 build/default/production/_ext/1071800814/libaria_utils.o
                0x9d012574                laUtils_WidgetLocalRect

.text.GFX_End   0x9d0125a4       0x30
 .text.GFX_End  0x9d0125a4       0x30 build/default/production/_ext/676789875/gfx.o
                0x9d0125a4                GFX_End

.text.defLayerEnabledSet
                0x9d0125d4       0x30
 .text.defLayerEnabledSet
                0x9d0125d4       0x30 build/default/production/_ext/676789875/gfx_default_impl.o
                0x9d0125d4                defLayerEnabledSet

.text.defLayerVisibleSet
                0x9d012604       0x30
 .text.defLayerVisibleSet
                0x9d012604       0x30 build/default/production/_ext/676789875/gfx_default_impl.o
                0x9d012604                defLayerVisibleSet

.text.defLayerVsyncSet
                0x9d012634       0x30
 .text.defLayerVsyncSet
                0x9d012634       0x30 build/default/production/_ext/676789875/gfx_default_impl.o
                0x9d012634                defLayerVsyncSet

.text.defLayerInvalidSet
                0x9d012664       0x30
 .text.defLayerInvalidSet
                0x9d012664       0x30 build/default/production/_ext/676789875/gfx_default_impl.o
                0x9d012664                defLayerInvalidSet

.text.defLayerAlphaEnableSet
                0x9d012694       0x30
 .text.defLayerAlphaEnableSet
                0x9d012694       0x30 build/default/production/_ext/676789875/gfx_default_impl.o
                0x9d012694                defLayerAlphaEnableSet

.text.defLayerMaskEnableSet
                0x9d0126c4       0x30
 .text.defLayerMaskEnableSet
                0x9d0126c4       0x30 build/default/production/_ext/676789875/gfx_default_impl.o
                0x9d0126c4                defLayerMaskEnableSet

.text.defLayerMaskColorSet
                0x9d0126f4       0x30
 .text.defLayerMaskColorSet
                0x9d0126f4       0x30 build/default/production/_ext/676789875/gfx_default_impl.o
                0x9d0126f4                defLayerMaskColorSet

.text.defDrawTargetGet
                0x9d012724       0x30
 .text.defDrawTargetGet
                0x9d012724       0x30 build/default/production/_ext/676789875/gfx_default_impl.o
                0x9d012724                defDrawTargetGet

.text.get_drawClipRect
                0x9d012754       0x30
 .text.get_drawClipRect
                0x9d012754       0x30 build/default/production/_ext/676789875/gfx_get.o
                0x9d012754                get_drawClipRect

.text.indexGet1bpp
                0x9d012784       0x30
 .text.indexGet1bpp
                0x9d012784       0x30 build/default/production/_ext/676789875/gfx_pixel_buffer.o

.text.orient_180
                0x9d0127b4       0x30
 .text.orient_180
                0x9d0127b4       0x30 build/default/production/_ext/676789875/gfx_util.o

.text.GFX_UtilSizeFromOrientedSpace
                0x9d0127e4       0x30
 .text.GFX_UtilSizeFromOrientedSpace
                0x9d0127e4       0x30 build/default/production/_ext/676789875/gfx_util.o
                0x9d0127e4                GFX_UtilSizeFromOrientedSpace

.text.set_brightness
                0x9d012814       0x30
 .text.set_brightness
                0x9d012814       0x30 build/default/production/_ext/676789875/gfx_set.o
                0x9d012814                set_brightness

.text.set_vsyncCallback
                0x9d012844       0x30
 .text.set_vsyncCallback
                0x9d012844       0x30 build/default/production/_ext/676789875/gfx_set.o
                0x9d012844                set_vsyncCallback

.text.set_hsyncCallback
                0x9d012874       0x30
 .text.set_hsyncCallback
                0x9d012874       0x30 build/default/production/_ext/676789875/gfx_set.o
                0x9d012874                set_hsyncCallback

.text.set_orientation
                0x9d0128a4       0x30
 .text.set_orientation
                0x9d0128a4       0x30 build/default/production/_ext/676789875/gfx_set.o
                0x9d0128a4                set_orientation

.text.set_mirroring
                0x9d0128d4       0x30
 .text.set_mirroring
                0x9d0128d4       0x30 build/default/production/_ext/676789875/gfx_set.o
                0x9d0128d4                set_mirroring

.text.set_colorMode
                0x9d012904       0x30
 .text.set_colorMode
                0x9d012904       0x30 build/default/production/_ext/676789875/gfx_set.o
                0x9d012904                set_colorMode

.text.set_globalPalette
                0x9d012934       0x30
 .text.set_globalPalette
                0x9d012934       0x30 build/default/production/_ext/676789875/gfx_set.o
                0x9d012934                set_globalPalette

.text.set_layerActive
                0x9d012964       0x30
 .text.set_layerActive
                0x9d012964       0x30 build/default/production/_ext/676789875/gfx_set.o
                0x9d012964                set_layerActive

.text.set_layerEnabled
                0x9d012994       0x30
 .text.set_layerEnabled
                0x9d012994       0x30 build/default/production/_ext/676789875/gfx_set.o
                0x9d012994                set_layerEnabled

.text.set_layerVisible
                0x9d0129c4       0x30
 .text.set_layerVisible
                0x9d0129c4       0x30 build/default/production/_ext/676789875/gfx_set.o
                0x9d0129c4                set_layerVisible

.text.set_layerInvalid
                0x9d0129f4       0x30
 .text.set_layerInvalid
                0x9d0129f4       0x30 build/default/production/_ext/676789875/gfx_set.o
                0x9d0129f4                set_layerInvalid

.text.set_layerVsync
                0x9d012a24       0x30
 .text.set_layerVsync
                0x9d012a24       0x30 build/default/production/_ext/676789875/gfx_set.o
                0x9d012a24                set_layerVsync

.text.set_layerSwapSync
                0x9d012a54       0x30
 .text.set_layerSwapSync
                0x9d012a54       0x30 build/default/production/_ext/676789875/gfx_set.o
                0x9d012a54                set_layerSwapSync

.text.set_layerSwap
                0x9d012a84       0x30
 .text.set_layerSwap
                0x9d012a84       0x30 build/default/production/_ext/676789875/gfx_set.o
                0x9d012a84                set_layerSwap

.text.set_layerBufferCount
                0x9d012ab4       0x30
 .text.set_layerBufferCount
                0x9d012ab4       0x30 build/default/production/_ext/676789875/gfx_set.o
                0x9d012ab4                set_layerBufferCount

.text.set_layerBufferAllocated
                0x9d012ae4       0x30
 .text.set_layerBufferAllocated
                0x9d012ae4       0x30 build/default/production/_ext/676789875/gfx_set.o
                0x9d012ae4                set_layerBufferAllocated

.text.set_layerBufferFree
                0x9d012b14       0x30
 .text.set_layerBufferFree
                0x9d012b14       0x30 build/default/production/_ext/676789875/gfx_set.o
                0x9d012b14                set_layerBufferFree

.text.set_drawPipelineMode
                0x9d012b44       0x30
 .text.set_drawPipelineMode
                0x9d012b44       0x30 build/default/production/_ext/676789875/gfx_set.o
                0x9d012b44                set_drawPipelineMode

.text.set_drawMode
                0x9d012b74       0x30
 .text.set_drawMode
                0x9d012b74       0x30 build/default/production/_ext/676789875/gfx_set.o
                0x9d012b74                set_drawMode

.text.set_drawColor
                0x9d012ba4       0x30
 .text.set_drawColor
                0x9d012ba4       0x30 build/default/production/_ext/676789875/gfx_set.o
                0x9d012ba4                set_drawColor

.text.set_drawPalette
                0x9d012bd4       0x30
 .text.set_drawPalette
                0x9d012bd4       0x30 build/default/production/_ext/676789875/gfx_set.o
                0x9d012bd4                set_drawPalette

.text.set_drawTarget
                0x9d012c04       0x30
 .text.set_drawTarget
                0x9d012c04       0x30 build/default/production/_ext/676789875/gfx_set.o
                0x9d012c04                set_drawTarget

.text.set_drawBlendMode
                0x9d012c34       0x30
 .text.set_drawBlendMode
                0x9d012c34       0x30 build/default/production/_ext/676789875/gfx_set.o
                0x9d012c34                set_drawBlendMode

.text.set_drawResizeMode
                0x9d012c64       0x30
 .text.set_drawResizeMode
                0x9d012c64       0x30 build/default/production/_ext/676789875/gfx_set.o
                0x9d012c64                set_drawResizeMode

.text.set_drawAlphaEnable
                0x9d012c94       0x30
 .text.set_drawAlphaEnable
                0x9d012c94       0x30 build/default/production/_ext/676789875/gfx_set.o
                0x9d012c94                set_drawAlphaEnable

.text.set_drawAlphaValue
                0x9d012cc4       0x30
 .text.set_drawAlphaValue
                0x9d012cc4       0x30 build/default/production/_ext/676789875/gfx_set.o
                0x9d012cc4                set_drawAlphaValue

.text.set_drawMaskEnable
                0x9d012cf4       0x30
 .text.set_drawMaskEnable
                0x9d012cf4       0x30 build/default/production/_ext/676789875/gfx_set.o
                0x9d012cf4                set_drawMaskEnable

.text.set_drawMaskValue
                0x9d012d24       0x30
 .text.set_drawMaskValue
                0x9d012d24       0x30 build/default/production/_ext/676789875/gfx_set.o
                0x9d012d24                set_drawMaskValue

.text.set_drawThickness
                0x9d012d54       0x30
 .text.set_drawThickness
                0x9d012d54       0x30 build/default/production/_ext/676789875/gfx_set.o
                0x9d012d54                set_drawThickness

.text.set_drawClipEnable
                0x9d012d84       0x30
 .text.set_drawClipEnable
                0x9d012d84       0x30 build/default/production/_ext/676789875/gfx_set.o
                0x9d012d84                set_drawClipEnable

.text.set_drawClipRect
                0x9d012db4       0x30
 .text.set_drawClipRect
                0x9d012db4       0x30 build/default/production/_ext/676789875/gfx_set.o
                0x9d012db4                set_drawClipRect

.text.rgb332_rgb888
                0x9d012de4       0x30
 .text.rgb332_rgb888
                0x9d012de4       0x30 build/default/production/_ext/676789875/gfx_color_convert.o

.text.rgb332_rgba8888
                0x9d012e14       0x30
 .text.rgb332_rgba8888
                0x9d012e14       0x30 build/default/production/_ext/676789875/gfx_color_convert.o

.text.rgb332_argb8888
                0x9d012e44       0x30
 .text.rgb332_argb8888
                0x9d012e44       0x30 build/default/production/_ext/676789875/gfx_color_convert.o

.text.rgba5551_rgb888
                0x9d012e74       0x30
 .text.rgba5551_rgb888
                0x9d012e74       0x30 build/default/production/_ext/676789875/gfx_color_convert.o

.text.argb8888_rgba5551
                0x9d012ea4       0x30
 .text.argb8888_rgba5551
                0x9d012ea4       0x30 build/default/production/_ext/676789875/gfx_color_convert.o

.text.BSP_Initialize
                0x9d012ed4       0x30
 .text.BSP_Initialize
                0x9d012ed4       0x30 build/default/production/_ext/74298950/bsp.o
                0x9d012ed4                BSP_Initialize

.rodata         0x9d012f04       0x30
 .rodata        0x9d012f04       0x30 build/default/production/_ext/74298950/bsp.o

.text.free      0x9d012f34       0x30
 .text.free     0x9d012f34       0x30 c:/program files (x86)/microchip/xc32/v2.30/bin/bin/../../lib/gcc/pic32mx/4.8.3/../../../../pic32mx/lib\libc.a(malloc.o)
                0x9d012f34                free

.text._laContext_HandleScreenChangeEvent
                0x9d012f64       0x2c
 .text._laContext_HandleScreenChangeEvent
                0x9d012f64       0x2c build/default/production/_ext/1071800814/libaria_context.o
                0x9d012f64                _laContext_HandleScreenChangeEvent

.text.defGlobalPaletteSet
                0x9d012f90       0x2c
 .text.defGlobalPaletteSet
                0x9d012f90       0x2c build/default/production/_ext/676789875/gfx_default_impl.o
                0x9d012f90                defGlobalPaletteSet

.text.defLayerSwapSyncSet
                0x9d012fbc       0x2c
 .text.defLayerSwapSyncSet
                0x9d012fbc       0x2c build/default/production/_ext/676789875/gfx_default_impl.o
                0x9d012fbc                defLayerSwapSyncSet

.text.defDrawModeSet
                0x9d012fe8       0x2c
 .text.defDrawModeSet
                0x9d012fe8       0x2c build/default/production/_ext/676789875/gfx_default_impl.o
                0x9d012fe8                defDrawModeSet

.text.defDrawColorSet
                0x9d013014       0x2c
 .text.defDrawColorSet
                0x9d013014       0x2c build/default/production/_ext/676789875/gfx_default_impl.o
                0x9d013014                defDrawColorSet

.text.defDrawResizeModeSet
                0x9d013040       0x2c
 .text.defDrawResizeModeSet
                0x9d013040       0x2c build/default/production/_ext/676789875/gfx_default_impl.o
                0x9d013040                defDrawResizeModeSet

.text.defDrawAlphaEnableSet
                0x9d01306c       0x2c
 .text.defDrawAlphaEnableSet
                0x9d01306c       0x2c build/default/production/_ext/676789875/gfx_default_impl.o
                0x9d01306c                defDrawAlphaEnableSet

.text.defDrawAlphaValueSet
                0x9d013098       0x2c
 .text.defDrawAlphaValueSet
                0x9d013098       0x2c build/default/production/_ext/676789875/gfx_default_impl.o
                0x9d013098                defDrawAlphaValueSet

.text.defDrawMaskValueSet
                0x9d0130c4       0x2c
 .text.defDrawMaskValueSet
                0x9d0130c4       0x2c build/default/production/_ext/676789875/gfx_default_impl.o
                0x9d0130c4                defDrawMaskValueSet

.text.defDrawThicknessSet
                0x9d0130f0       0x2c
 .text.defDrawThicknessSet
                0x9d0130f0       0x2c build/default/production/_ext/676789875/gfx_default_impl.o
                0x9d0130f0                defDrawThicknessSet

.text.defDrawClipEnabledSet
                0x9d01311c       0x2c
 .text.defDrawClipEnabledSet
                0x9d01311c       0x2c build/default/production/_ext/676789875/gfx_default_impl.o
                0x9d01311c                defDrawClipEnabledSet

.text.rgb565_argb8888
                0x9d013148       0x2c
 .text.rgb565_argb8888
                0x9d013148       0x2c build/default/production/_ext/676789875/gfx_color_convert.o

.text.GFX_Percent
                0x9d013174       0x2c
 .text.GFX_Percent
                0x9d013174       0x2c build/default/production/_ext/676789875/gfx_math.o
                0x9d013174                GFX_Percent

.text.SYS_Tasks
                0x9d0131a0       0x2c
 .text.SYS_Tasks
                0x9d0131a0       0x2c build/default/production/_ext/1688732426/system_tasks.o
                0x9d0131a0                SYS_Tasks

.text._stub_sbd_memlayout
                0x9d0131cc       0x2c
 .text._stub_sbd_memlayout
                0x9d0131cc       0x2c c:/program files (x86)/microchip/xc32/v2.30/bin/bin/../../lib/gcc/pic32mx/4.8.3/../../../../pic32mx/lib\libpic32.a(sbrk.o)
                0x9d0131cc                _sbd_memlayout
                0x9d0131cc                _stub_sbd_memlayout

.text.GFX_Initialize
                0x9d0131f8       0x28
 .text.GFX_Initialize
                0x9d0131f8       0x28 build/default/production/_ext/676789875/gfx.o
                0x9d0131f8                GFX_Initialize

.text.defOrientPoint
                0x9d013220       0x28
 .text.defOrientPoint
                0x9d013220       0x28 build/default/production/_ext/676789875/gfx_default_impl.o
                0x9d013220                defOrientPoint

.text.defMirrorPoint
                0x9d013248       0x28
 .text.defMirrorPoint
                0x9d013248       0x28 build/default/production/_ext/676789875/gfx_default_impl.o
                0x9d013248                defMirrorPoint

.text.indexGet4bpp
                0x9d013270       0x28
 .text.indexGet4bpp
                0x9d013270       0x28 build/default/production/_ext/676789875/gfx_pixel_buffer.o

.text.rgb332_rgb565
                0x9d013298       0x28
 .text.rgb332_rgb565
                0x9d013298       0x28 build/default/production/_ext/676789875/gfx_color_convert.o

.text.rgb332_rgba5551
                0x9d0132c0       0x28
 .text.rgb332_rgba5551
                0x9d0132c0       0x28 build/default/production/_ext/676789875/gfx_color_convert.o

.text.rgb565_rgba8888
                0x9d0132e8       0x28
 .text.rgb565_rgba8888
                0x9d0132e8       0x28 build/default/production/_ext/676789875/gfx_color_convert.o

.text.rgb888_rgba5551
                0x9d013310       0x28
 .text.rgb888_rgba5551
                0x9d013310       0x28 build/default/production/_ext/676789875/gfx_color_convert.o

.text.DRV_PMP0_Read
                0x9d013338       0x28
 .text.DRV_PMP0_Read
                0x9d013338       0x28 build/default/production/_ext/664138601/drv_pmp_static.o
                0x9d013338                DRV_PMP0_Read

.text.GFX_InitializeDriverList
                0x9d013360       0x28
 .text.GFX_InitializeDriverList
                0x9d013360       0x28 build/default/production/_ext/2065038297/gfx_driver_def.o
                0x9d013360                GFX_InitializeDriverList

.text.getGlyphRowDataSize1bpp
                0x9d013388       0x24
 .text.getGlyphRowDataSize1bpp
                0x9d013388       0x24 build/default/production/_ext/1963452113/gfxu_string_utils.o
                0x9d013388                getGlyphRowDataSize1bpp

.text.laArray_Create
                0x9d0133ac       0x24
 .text.laArray_Create
                0x9d0133ac       0x24 build/default/production/_ext/1071800814/libaria_array.o
                0x9d0133ac                laArray_Create

.text.laRectArray_Create
                0x9d0133d0       0x24
 .text.laRectArray_Create
                0x9d0133d0       0x24 build/default/production/_ext/1071800814/libaria_rectarray.o
                0x9d0133d0                laRectArray_Create

.text.laScreen_GetLayerIndex
                0x9d0133f4       0x24
 .text.laScreen_GetLayerIndex
                0x9d0133f4       0x24 build/default/production/_ext/1071800814/libaria_screen.o
                0x9d0133f4                laScreen_GetLayerIndex

.text.laString_Initialize
                0x9d013418       0x24
 .text.laString_Initialize
                0x9d013418       0x24 build/default/production/_ext/1071800814/libaria_string.o
                0x9d013418                laString_Initialize

.text.defAlphaGetPoint
                0x9d01343c       0x24
 .text.defAlphaGetPoint
                0x9d01343c       0x24 build/default/production/_ext/676789875/gfx_default_impl.o
                0x9d01343c                defAlphaGetPoint

.text.defEnd    0x9d013460       0x24
 .text.defEnd   0x9d013460       0x24 build/default/production/_ext/676789875/gfx_default_impl.o
                0x9d013460                defEnd

.text.defLayerEnabledGet
                0x9d013484       0x24
 .text.defLayerEnabledGet
                0x9d013484       0x24 build/default/production/_ext/676789875/gfx_default_impl.o
                0x9d013484                defLayerEnabledGet

.text.defLayerVisibleGet
                0x9d0134a8       0x24
 .text.defLayerVisibleGet
                0x9d0134a8       0x24 build/default/production/_ext/676789875/gfx_default_impl.o
                0x9d0134a8                defLayerVisibleGet

.text.defLayerBufferCountGet
                0x9d0134cc       0x24
 .text.defLayerBufferCountGet
                0x9d0134cc       0x24 build/default/production/_ext/676789875/gfx_default_impl.o
                0x9d0134cc                defLayerBufferCountGet

.text.defLayerVsyncGet
                0x9d0134f0       0x24
 .text.defLayerVsyncGet
                0x9d0134f0       0x24 build/default/production/_ext/676789875/gfx_default_impl.o
                0x9d0134f0                defLayerVsyncGet

.text.defLayerInvalidGet
                0x9d013514       0x24
 .text.defLayerInvalidGet
                0x9d013514       0x24 build/default/production/_ext/676789875/gfx_default_impl.o
                0x9d013514                defLayerInvalidGet

.text.defLayerSwapGet
                0x9d013538       0x24
 .text.defLayerSwapGet
                0x9d013538       0x24 build/default/production/_ext/676789875/gfx_default_impl.o
                0x9d013538                defLayerSwapGet

.text.defLayerAlphaEnableGet
                0x9d01355c       0x24
 .text.defLayerAlphaEnableGet
                0x9d01355c       0x24 build/default/production/_ext/676789875/gfx_default_impl.o
                0x9d01355c                defLayerAlphaEnableGet

.text.defLayerAlphaAmountGet
                0x9d013580       0x24
 .text.defLayerAlphaAmountGet
                0x9d013580       0x24 build/default/production/_ext/676789875/gfx_default_impl.o
                0x9d013580                defLayerAlphaAmountGet

.text.defLayerMaskEnableGet
                0x9d0135a4       0x24
 .text.defLayerMaskEnableGet
                0x9d0135a4       0x24 build/default/production/_ext/676789875/gfx_default_impl.o
                0x9d0135a4                defLayerMaskEnableGet

.text.defLayerMaskColorGet
                0x9d0135c8       0x24
 .text.defLayerMaskColorGet
                0x9d0135c8       0x24 build/default/production/_ext/676789875/gfx_default_impl.o
                0x9d0135c8                defLayerMaskColorGet

.text.orient_90
                0x9d0135ec       0x24
 .text.orient_90
                0x9d0135ec       0x24 build/default/production/_ext/676789875/gfx_util.o

.text.orient_270
                0x9d013610       0x24
 .text.orient_270
                0x9d013610       0x24 build/default/production/_ext/676789875/gfx_util.o

.text.mirror_0  0x9d013634       0x24
 .text.mirror_0
                0x9d013634       0x24 build/default/production/_ext/676789875/gfx_util.o

.text.mirror_90
                0x9d013658       0x24
 .text.mirror_90
                0x9d013658       0x24 build/default/production/_ext/676789875/gfx_util.o

.text.mirror_180
                0x9d01367c       0x24
 .text.mirror_180
                0x9d01367c       0x24 build/default/production/_ext/676789875/gfx_util.o

.text.mirror_270
                0x9d0136a0       0x24
 .text.mirror_270
                0x9d0136a0       0x24 build/default/production/_ext/676789875/gfx_util.o

.text.rgb565_rgb888
                0x9d0136c4       0x24
 .text.rgb565_rgb888
                0x9d0136c4       0x24 build/default/production/_ext/676789875/gfx_color_convert.o

.text.rgb888_rgb332
                0x9d0136e8       0x24
 .text.rgb888_rgb332
                0x9d0136e8       0x24 build/default/production/_ext/676789875/gfx_color_convert.o

.text.rgba8888_rgb332
                0x9d01370c       0x24
 .text.rgba8888_rgb332
                0x9d01370c       0x24 build/default/production/_ext/676789875/gfx_color_convert.o

.text.rgba8888_rgb565
                0x9d013730       0x24
 .text.rgba8888_rgb565
                0x9d013730       0x24 build/default/production/_ext/676789875/gfx_color_convert.o

.text.rgba8888_rgb888
                0x9d013754       0x24
 .text.rgba8888_rgb888
                0x9d013754       0x24 build/default/production/_ext/676789875/gfx_color_convert.o

.text.DRV_PMP0_Write
                0x9d013778       0x24
 .text.DRV_PMP0_Write
                0x9d013778       0x24 build/default/production/_ext/664138601/drv_pmp_static.o
                0x9d013778                DRV_PMP0_Write

.text.main      0x9d01379c       0x20
 .text.main     0x9d01379c       0x20 build/default/production/_ext/1360937237/main.o
                0x9d01379c                main

.text.defBrightnessGet
                0x9d0137bc       0x20
 .text.defBrightnessGet
                0x9d0137bc       0x20 build/default/production/_ext/676789875/gfx_default_impl.o
                0x9d0137bc                defBrightnessGet

.text.defVSyncCallbackGet
                0x9d0137dc       0x20
 .text.defVSyncCallbackGet
                0x9d0137dc       0x20 build/default/production/_ext/676789875/gfx_default_impl.o
                0x9d0137dc                defVSyncCallbackGet

.text.defHSyncCallbackGet
                0x9d0137fc       0x20
 .text.defHSyncCallbackGet
                0x9d0137fc       0x20 build/default/production/_ext/676789875/gfx_default_impl.o
                0x9d0137fc                defHSyncCallbackGet

.text.defOrientationGet
                0x9d01381c       0x20
 .text.defOrientationGet
                0x9d01381c       0x20 build/default/production/_ext/676789875/gfx_default_impl.o
                0x9d01381c                defOrientationGet

.text.defMirroringGet
                0x9d01383c       0x20
 .text.defMirroringGet
                0x9d01383c       0x20 build/default/production/_ext/676789875/gfx_default_impl.o
                0x9d01383c                defMirroringGet

.text.defColorModeGet
                0x9d01385c       0x20
 .text.defColorModeGet
                0x9d01385c       0x20 build/default/production/_ext/676789875/gfx_default_impl.o
                0x9d01385c                defColorModeGet

.text.defGlobalPaletteGet
                0x9d01387c       0x20
 .text.defGlobalPaletteGet
                0x9d01387c       0x20 build/default/production/_ext/676789875/gfx_default_impl.o
                0x9d01387c                defGlobalPaletteGet

.text.defLayerActiveGet
                0x9d01389c       0x20
 .text.defLayerActiveGet
                0x9d01389c       0x20 build/default/production/_ext/676789875/gfx_default_impl.o
                0x9d01389c                defLayerActiveGet

.text.defLayerSwapSyncGet
                0x9d0138bc       0x20
 .text.defLayerSwapSyncGet
                0x9d0138bc       0x20 build/default/production/_ext/676789875/gfx_default_impl.o
                0x9d0138bc                defLayerSwapSyncGet

.text.defDrawPipelineModeGet
                0x9d0138dc       0x20
 .text.defDrawPipelineModeGet
                0x9d0138dc       0x20 build/default/production/_ext/676789875/gfx_default_impl.o
                0x9d0138dc                defDrawPipelineModeGet

.text.defDrawModeGet
                0x9d0138fc       0x20
 .text.defDrawModeGet
                0x9d0138fc       0x20 build/default/production/_ext/676789875/gfx_default_impl.o
                0x9d0138fc                defDrawModeGet

.text.defDrawColorGet
                0x9d01391c       0x20
 .text.defDrawColorGet
                0x9d01391c       0x20 build/default/production/_ext/676789875/gfx_default_impl.o
                0x9d01391c                defDrawColorGet

.text.defDrawBlendModeGet
                0x9d01393c       0x20
 .text.defDrawBlendModeGet
                0x9d01393c       0x20 build/default/production/_ext/676789875/gfx_default_impl.o
                0x9d01393c                defDrawBlendModeGet

.text.defDrawResizeModeGet
                0x9d01395c       0x20
 .text.defDrawResizeModeGet
                0x9d01395c       0x20 build/default/production/_ext/676789875/gfx_default_impl.o
                0x9d01395c                defDrawResizeModeGet

.text.defDrawAlphaEnableGet
                0x9d01397c       0x20
 .text.defDrawAlphaEnableGet
                0x9d01397c       0x20 build/default/production/_ext/676789875/gfx_default_impl.o
                0x9d01397c                defDrawAlphaEnableGet

.text.defDrawAlphaValueGet
                0x9d01399c       0x20
 .text.defDrawAlphaValueGet
                0x9d01399c       0x20 build/default/production/_ext/676789875/gfx_default_impl.o
                0x9d01399c                defDrawAlphaValueGet

.text.defDrawMaskEnableGet
                0x9d0139bc       0x20
 .text.defDrawMaskEnableGet
                0x9d0139bc       0x20 build/default/production/_ext/676789875/gfx_default_impl.o
                0x9d0139bc                defDrawMaskEnableGet

.text.defDrawMaskValueGet
                0x9d0139dc       0x20
 .text.defDrawMaskValueGet
                0x9d0139dc       0x20 build/default/production/_ext/676789875/gfx_default_impl.o
                0x9d0139dc                defDrawMaskValueGet

.text.defDrawThicknessGet
                0x9d0139fc       0x20
 .text.defDrawThicknessGet
                0x9d0139fc       0x20 build/default/production/_ext/676789875/gfx_default_impl.o
                0x9d0139fc                defDrawThicknessGet

.text.defDrawClipEnabledGet
                0x9d013a1c       0x20
 .text.defDrawClipEnabledGet
                0x9d013a1c       0x20 build/default/production/_ext/676789875/gfx_default_impl.o
                0x9d013a1c                defDrawClipEnabledGet

.text.get3byte  0x9d013a3c       0x20
 .text.get3byte
                0x9d013a3c       0x20 build/default/production/_ext/676789875/gfx_pixel_buffer.o

.rodata         0x9d013a5c       0x20
 .rodata        0x9d013a5c       0x20 build/default/production/_ext/676789875/gfx_util.o

.text.gs8_rgb565
                0x9d013a7c       0x20
 .text.gs8_rgb565
                0x9d013a7c       0x20 build/default/production/_ext/676789875/gfx_color_convert.o

.text.gs8_rgba5551
                0x9d013a9c       0x20
 .text.gs8_rgba5551
                0x9d013a9c       0x20 build/default/production/_ext/676789875/gfx_color_convert.o

.text.rgb565_rgb332
                0x9d013abc       0x20
 .text.rgb565_rgb332
                0x9d013abc       0x20 build/default/production/_ext/676789875/gfx_color_convert.o

.text.rgba5551_rgb332
                0x9d013adc       0x20
 .text.rgba5551_rgb332
                0x9d013adc       0x20 build/default/production/_ext/676789875/gfx_color_convert.o

.text.rgb888_rgb565
                0x9d013afc       0x20
 .text.rgb888_rgb565
                0x9d013afc       0x20 build/default/production/_ext/676789875/gfx_color_convert.o

.text.laUpdate  0x9d013b1c       0x1c
 .text.laUpdate
                0x9d013b1c       0x1c build/default/production/_ext/1071800814/libaria.o
                0x9d013b1c                laUpdate

.text.laContext_GetEditWidget
                0x9d013b38       0x1c
 .text.laContext_GetEditWidget
                0x9d013b38       0x1c build/default/production/_ext/1071800814/libaria_context.o
                0x9d013b38                laContext_GetEditWidget

.text.laRectArray_Clear
                0x9d013b54       0x1c
 .text.laRectArray_Clear
                0x9d013b54       0x1c build/default/production/_ext/1071800814/libaria_rectarray.o
                0x9d013b54                laRectArray_Clear

.text.__pic32_alloc_coherent
                0x9d013b70       0x1c
 .text.__pic32_alloc_coherent
                0x9d013b70       0x1c build/default/production/_ext/676789875/gfx.o

.text.__pic32_free_coherent
                0x9d013b8c       0x1c
 .text.__pic32_free_coherent
                0x9d013b8c       0x1c build/default/production/_ext/676789875/gfx.o

.text.defPixelGet
                0x9d013ba8       0x1c
 .text.defPixelGet
                0x9d013ba8       0x1c build/default/production/_ext/676789875/gfx_default_impl.o
                0x9d013ba8                defPixelGet

.text.defPixelSet
                0x9d013bc4       0x1c
 .text.defPixelSet
                0x9d013bc4       0x1c build/default/production/_ext/676789875/gfx_default_impl.o
                0x9d013bc4                defPixelSet

.text.GFX_DriverIntfInitialize
                0x9d013be0       0x1c
 .text.GFX_DriverIntfInitialize
                0x9d013be0       0x1c build/default/production/_ext/676789875/gfx_driver_interface.o
                0x9d013be0                GFX_DriverIntfInitialize

.text.set3byte  0x9d013bfc       0x1c
 .text.set3byte
                0x9d013bfc       0x1c build/default/production/_ext/676789875/gfx_pixel_buffer.o

.text.gs8_rgba8888
                0x9d013c18       0x1c
 .text.gs8_rgba8888
                0x9d013c18       0x1c build/default/production/_ext/676789875/gfx_color_convert.o

.text.gs8_argb8888
                0x9d013c34       0x1c
 .text.gs8_argb8888
                0x9d013c34       0x1c build/default/production/_ext/676789875/gfx_color_convert.o

.text.lerp_gs8  0x9d013c50       0x1c
 .text.lerp_gs8
                0x9d013c50       0x1c build/default/production/_ext/676789875/gfx_color_lerp.o

.text.DRV_PMP0_Initialize
                0x9d013c6c       0x1c
 .text.DRV_PMP0_Initialize
                0x9d013c6c       0x1c build/default/production/_ext/664138601/drv_pmp_static.o
                0x9d013c6c                DRV_PMP0_Initialize

.text.APP_Tasks
                0x9d013c88       0x18
 .text.APP_Tasks
                0x9d013c88       0x18 build/default/production/_ext/1360937237/app.o
                0x9d013c88                APP_Tasks

.text._laWidget_IncreaseDirtyState
                0x9d013ca0       0x18
 .text._laWidget_IncreaseDirtyState
                0x9d013ca0       0x18 build/default/production/_ext/1071800814/libaria_widget.o
                0x9d013ca0                _laWidget_IncreaseDirtyState

.text.defMirrorPointEmpty
                0x9d013cb8       0x18
 .text.defMirrorPointEmpty
                0x9d013cb8       0x18 build/default/production/_ext/676789875/gfx_default_impl.o
                0x9d013cb8                defMirrorPointEmpty

.text.GFX_DisplayInfoPtrGet
                0x9d013cd0       0x18
 .text.GFX_DisplayInfoPtrGet
                0x9d013cd0       0x18 build/default/production/_ext/676789875/gfx_display.o
                0x9d013cd0                GFX_DisplayInfoPtrGet

.text.orient_0  0x9d013ce8       0x18
 .text.orient_0
                0x9d013ce8       0x18 build/default/production/_ext/676789875/gfx_util.o

.text.gs8_rgb332
                0x9d013d00       0x18
 .text.gs8_rgb332
                0x9d013d00       0x18 build/default/production/_ext/676789875/gfx_color_convert.o

.text.rgb565_rgba5551
                0x9d013d18       0x18
 .text.rgb565_rgba5551
                0x9d013d18       0x18 build/default/production/_ext/676789875/gfx_color_convert.o

.text.SYS_DEVCON_JTAGEnable
                0x9d013d30       0x18
 .text.SYS_DEVCON_JTAGEnable
                0x9d013d30       0x18 build/default/production/_ext/340578644/sys_devcon.o
                0x9d013d30                SYS_DEVCON_JTAGEnable

.text           0x9d013d48       0x18
 .text          0x9d013d48       0x18 c:/program files (x86)/microchip/xc32/v2.30/bin/bin/../../lib/gcc/pic32mx/4.8.3/../../../../pic32mx/lib\libpic32.a(default-nmi-handler.o)
                0x9d013d48                _nmi_handler

.text.laContext_GetDefaultScheme
                0x9d013d60       0x14
 .text.laContext_GetDefaultScheme
                0x9d013d60       0x14 build/default/production/_ext/1071800814/libaria_context.o
                0x9d013d60                laContext_GetDefaultScheme

.text.defBrightnessRangeGet
                0x9d013d74       0x14
 .text.defBrightnessRangeGet
                0x9d013d74       0x14 build/default/production/_ext/676789875/gfx_default_impl.o
                0x9d013d74                defBrightnessRangeGet

.text.get_displayCount
                0x9d013d88       0x14
 .text.get_displayCount
                0x9d013d88       0x14 build/default/production/_ext/676789875/gfx_get.o
                0x9d013d88                get_displayCount

.text.get_driverCount
                0x9d013d9c       0x14
 .text.get_driverCount
                0x9d013d9c       0x14 build/default/production/_ext/676789875/gfx_get.o
                0x9d013d9c                get_driverCount

.text.gs8_rgb888
                0x9d013db0       0x14
 .text.gs8_rgb888
                0x9d013db0       0x14 build/default/production/_ext/676789875/gfx_color_convert.o

.text.rgba5551_rgb565
                0x9d013dc4       0x14
 .text.rgba5551_rgb565
                0x9d013dc4       0x14 build/default/production/_ext/676789875/gfx_color_convert.o

.text.SYS_INT_Initialize
                0x9d013dd8       0x14
 .text.SYS_INT_Initialize
                0x9d013dd8       0x14 build/default/production/_ext/231205469/sys_int_pic32.o
                0x9d013dd8                SYS_INT_Initialize

.text.SYS_DEVCON_Initialize
                0x9d013dec       0x14
 .text.SYS_DEVCON_Initialize
                0x9d013dec       0x14 build/default/production/_ext/340578644/sys_devcon.o
                0x9d013dec                SYS_DEVCON_Initialize

.text.defMaskColor
                0x9d013e00       0x10
 .text.defMaskColor
                0x9d013e00       0x10 build/default/production/_ext/676789875/gfx_default_impl.o
                0x9d013e00                defMaskColor

.text.GFX_Mini  0x9d013e10       0x10
 .text.GFX_Mini
                0x9d013e10       0x10 build/default/production/_ext/676789875/gfx_math.o
                0x9d013e10                GFX_Mini

.text.GFX_Maxi  0x9d013e20       0x10
 .text.GFX_Maxi
                0x9d013e20       0x10 build/default/production/_ext/676789875/gfx_math.o
                0x9d013e20                GFX_Maxi

.text.laContext_SetActive
                0x9d013e30        0xc
 .text.laContext_SetActive
                0x9d013e30        0xc build/default/production/_ext/1071800814/libaria_context.o
                0x9d013e30                laContext_SetActive

.text.GFX_DriverIntfPtrGet
                0x9d013e3c        0xc
 .text.GFX_DriverIntfPtrGet
                0x9d013e3c        0xc build/default/production/_ext/676789875/gfx_driver_interface.o
                0x9d013e3c                GFX_DriverIntfPtrGet

.text.set1byte  0x9d013e48        0xc
 .text.set1byte
                0x9d013e48        0xc build/default/production/_ext/676789875/gfx_pixel_buffer.o

.text.set2byte  0x9d013e54        0xc
 .text.set2byte
                0x9d013e54        0xc build/default/production/_ext/676789875/gfx_pixel_buffer.o

.text.set4byte  0x9d013e60        0xc
 .text.set4byte
                0x9d013e60        0xc build/default/production/_ext/676789875/gfx_pixel_buffer.o

.text.rgb888_rgba8888
                0x9d013e6c        0xc
 .text.rgb888_rgba8888
                0x9d013e6c        0xc build/default/production/_ext/676789875/gfx_color_convert.o

.text.rgb888_argb8888
                0x9d013e78        0xc
 .text.rgb888_argb8888
                0x9d013e78        0xc build/default/production/_ext/676789875/gfx_color_convert.o

.text.SYS_CLK_SystemFrequencyGet
                0x9d013e84        0xc
 .text.SYS_CLK_SystemFrequencyGet
                0x9d013e84        0xc build/default/production/_ext/639803181/sys_clk_pic32mx.o
                0x9d013e84                SYS_CLK_SystemFrequencyGet

.text.APP_Initialize
                0x9d013e90        0x8
 .text.APP_Initialize
                0x9d013e90        0x8 build/default/production/_ext/1360937237/app.o
                0x9d013e90                APP_Initialize

.text.getGlyphRowDataSize8bpp
                0x9d013e98        0x8
 .text.getGlyphRowDataSize8bpp
                0x9d013e98        0x8 build/default/production/_ext/1963452113/gfxu_string_utils.o
                0x9d013e98                getGlyphRowDataSize8bpp

.text.laContext_GetActive
                0x9d013ea0        0x8
 .text.laContext_GetActive
                0x9d013ea0        0x8 build/default/production/_ext/1071800814/libaria_context.o
                0x9d013ea0                laContext_GetActive

.text.update    0x9d013ea8        0x8
 .text.update   0x9d013ea8        0x8 build/default/production/_ext/1071800814/libaria_widget.o

.text.moved     0x9d013eb0        0x8
 .text.moved    0x9d013eb0        0x8 build/default/production/_ext/1071800814/libaria_widget.o

.text.resized   0x9d013eb8        0x8
 .text.resized  0x9d013eb8        0x8 build/default/production/_ext/1071800814/libaria_widget.o

.text.focusGained
                0x9d013ec0        0x8
 .text.focusGained
                0x9d013ec0        0x8 build/default/production/_ext/1071800814/libaria_widget.o

.text.focusLost
                0x9d013ec8        0x8
 .text.focusLost
                0x9d013ec8        0x8 build/default/production/_ext/1071800814/libaria_widget.o

.text.touchDownEvent
                0x9d013ed0        0x8
 .text.touchDownEvent
                0x9d013ed0        0x8 build/default/production/_ext/1071800814/libaria_widget.o

.text.touchUpEvent
                0x9d013ed8        0x8
 .text.touchUpEvent
                0x9d013ed8        0x8 build/default/production/_ext/1071800814/libaria_widget.o

.text.touchMovedEvent
                0x9d013ee0        0x8
 .text.touchMovedEvent
                0x9d013ee0        0x8 build/default/production/_ext/1071800814/libaria_widget.o

.text.languageChangingEvent
                0x9d013ee8        0x8
 .text.languageChangingEvent
                0x9d013ee8        0x8 build/default/production/_ext/1071800814/libaria_widget.o

.text._laWidget_SetDirtyState
                0x9d013ef0        0x8
 .text._laWidget_SetDirtyState
                0x9d013ef0        0x8 build/default/production/_ext/1071800814/libaria_widget.o
                0x9d013ef0                _laWidget_SetDirtyState

.text._laWidget_ClearDirtyState
                0x9d013ef8        0x8
 .text._laWidget_ClearDirtyState
                0x9d013ef8        0x8 build/default/production/_ext/1071800814/libaria_widget.o
                0x9d013ef8                _laWidget_ClearDirtyState

.text.GFX_ActiveContext
                0x9d013f00        0x8
 .text.GFX_ActiveContext
                0x9d013f00        0x8 build/default/production/_ext/676789875/gfx_context.o
                0x9d013f00                GFX_ActiveContext

.text.GFX_ContextActiveSet
                0x9d013f08        0x8
 .text.GFX_ContextActiveSet
                0x9d013f08        0x8 build/default/production/_ext/676789875/gfx_context.o
                0x9d013f08                GFX_ContextActiveSet

.text._GFX_DefaultSyncCallback
                0x9d013f10        0x8
 .text._GFX_DefaultSyncCallback
                0x9d013f10        0x8 build/default/production/_ext/676789875/gfx_context.o
                0x9d013f10                _GFX_DefaultSyncCallback

.text.defUpdate
                0x9d013f18        0x8
 .text.defUpdate
                0x9d013f18        0x8 build/default/production/_ext/676789875/gfx_default_impl.o
                0x9d013f18                defUpdate

.text.defLayerSwapPending
                0x9d013f20        0x8
 .text.defLayerSwapPending
                0x9d013f20        0x8 build/default/production/_ext/676789875/gfx_default_impl.o
                0x9d013f20                defLayerSwapPending

.text.defLayerSwapped
                0x9d013f28        0x8
 .text.defLayerSwapped
                0x9d013f28        0x8 build/default/production/_ext/676789875/gfx_default_impl.o
                0x9d013f28                defLayerSwapped

.text.defMaskEmpty
                0x9d013f30        0x8
 .text.defMaskEmpty
                0x9d013f30        0x8 build/default/production/_ext/676789875/gfx_default_impl.o
                0x9d013f30                defMaskEmpty

.text.defAlphaEmptyPoint
                0x9d013f38        0x8
 .text.defAlphaEmptyPoint
                0x9d013f38        0x8 build/default/production/_ext/676789875/gfx_default_impl.o
                0x9d013f38                defAlphaEmptyPoint

.text.defEmptyAlphaBlend
                0x9d013f40        0x8
 .text.defEmptyAlphaBlend
                0x9d013f40        0x8 build/default/production/_ext/676789875/gfx_default_impl.o
                0x9d013f40                defEmptyAlphaBlend

.text.defInterrupt
                0x9d013f48        0x8
 .text.defInterrupt
                0x9d013f48        0x8 build/default/production/_ext/676789875/gfx_default_impl.o
                0x9d013f48                defInterrupt

.text.get_unimplemented
                0x9d013f50        0x8
 .text.get_unimplemented
                0x9d013f50        0x8 build/default/production/_ext/676789875/gfx_get.o
                0x9d013f50                get_unimplemented

.text.get1byte  0x9d013f58        0x8
 .text.get1byte
                0x9d013f58        0x8 build/default/production/_ext/676789875/gfx_pixel_buffer.o

.text.get2byte  0x9d013f60        0x8
 .text.get2byte
                0x9d013f60        0x8 build/default/production/_ext/676789875/gfx_pixel_buffer.o

.text.get4byte  0x9d013f68        0x8
 .text.get4byte
                0x9d013f68        0x8 build/default/production/_ext/676789875/gfx_pixel_buffer.o

.text.set_unimplemented
                0x9d013f70        0x8
 .text.set_unimplemented
                0x9d013f70        0x8 build/default/production/_ext/676789875/gfx_set.o
                0x9d013f70                set_unimplemented

.text.no_conv   0x9d013f78        0x8
 .text.no_conv  0x9d013f78        0x8 build/default/production/_ext/676789875/gfx_color_convert.o

.text.gs8_yuv   0x9d013f80        0x8
 .text.gs8_yuv  0x9d013f80        0x8 build/default/production/_ext/676789875/gfx_color_convert.o

.text.rgb332_yuv
                0x9d013f88        0x8
 .text.rgb332_yuv
                0x9d013f88        0x8 build/default/production/_ext/676789875/gfx_color_convert.o

.text.rgb565_yuv
                0x9d013f90        0x8
 .text.rgb565_yuv
                0x9d013f90        0x8 build/default/production/_ext/676789875/gfx_color_convert.o

.text.rgba5551_gs8
                0x9d013f98        0x8
 .text.rgba5551_gs8
                0x9d013f98        0x8 build/default/production/_ext/676789875/gfx_color_convert.o

.text.rgba5551_yuv
                0x9d013fa0        0x8
 .text.rgba5551_yuv
                0x9d013fa0        0x8 build/default/production/_ext/676789875/gfx_color_convert.o

.text.rgb888_gs8
                0x9d013fa8        0x8
 .text.rgb888_gs8
                0x9d013fa8        0x8 build/default/production/_ext/676789875/gfx_color_convert.o

.text.rgb888_yuv
                0x9d013fb0        0x8
 .text.rgb888_yuv
                0x9d013fb0        0x8 build/default/production/_ext/676789875/gfx_color_convert.o

.text.rgba8888_gs8
                0x9d013fb8        0x8
 .text.rgba8888_gs8
                0x9d013fb8        0x8 build/default/production/_ext/676789875/gfx_color_convert.o

.text.rgba8888_argb8888
                0x9d013fc0        0x8
 .text.rgba8888_argb8888
                0x9d013fc0        0x8 build/default/production/_ext/676789875/gfx_color_convert.o

.text.rgba8888_yuv
                0x9d013fc8        0x8
 .text.rgba8888_yuv
                0x9d013fc8        0x8 build/default/production/_ext/676789875/gfx_color_convert.o

.text.argb8888_rgb888
                0x9d013fd0        0x8
 .text.argb8888_rgb888
                0x9d013fd0        0x8 build/default/production/_ext/676789875/gfx_color_convert.o

.text.argb8888_rgba8888
                0x9d013fd8        0x8
 .text.argb8888_rgba8888
                0x9d013fd8        0x8 build/default/production/_ext/676789875/gfx_color_convert.o

.text.yuv_gs8   0x9d013fe0        0x8
 .text.yuv_gs8  0x9d013fe0        0x8 build/default/production/_ext/676789875/gfx_color_convert.o

.text.yuv_rgb332
                0x9d013fe8        0x8
 .text.yuv_rgb332
                0x9d013fe8        0x8 build/default/production/_ext/676789875/gfx_color_convert.o

.text.yuv_rgb565
                0x9d013ff0        0x8
 .text.yuv_rgb565
                0x9d013ff0        0x8 build/default/production/_ext/676789875/gfx_color_convert.o

.text.yuv_rgba5551
                0x9d013ff8        0x8
 .text.yuv_rgba5551
                0x9d013ff8        0x8 build/default/production/_ext/676789875/gfx_color_convert.o

.text.yuv_rgb888
                0x9d014000        0x8
 .text.yuv_rgb888
                0x9d014000        0x8 build/default/production/_ext/676789875/gfx_color_convert.o

.text.yuv_rgba8888
                0x9d014008        0x8
 .text.yuv_rgba8888
                0x9d014008        0x8 build/default/production/_ext/676789875/gfx_color_convert.o

.text.yuv_argb8888
                0x9d014010        0x8
 .text.yuv_argb8888
                0x9d014010        0x8 build/default/production/_ext/676789875/gfx_color_convert.o

.text.lut_yuv   0x9d014018        0x8
 .text.lut_yuv  0x9d014018        0x8 build/default/production/_ext/676789875/gfx_color_convert.o

.text.cpuDrawLine_AA
                0x9d014020        0x8
 .text.cpuDrawLine_AA
                0x9d014020        0x8 build/default/production/_ext/676789875/gfx_draw_line.o
                0x9d014020                cpuDrawLine_AA

.text.cpuDrawRect_Line_AA
                0x9d014028        0x8
 .text.cpuDrawRect_Line_AA
                0x9d014028        0x8 build/default/production/_ext/676789875/gfx_draw_rect.o
                0x9d014028                cpuDrawRect_Line_AA

.text.cpuDrawRect_Fill_AA
                0x9d014030        0x8
 .text.cpuDrawRect_Fill_AA
                0x9d014030        0x8 build/default/production/_ext/676789875/gfx_draw_rect.o
                0x9d014030                cpuDrawRect_Fill_AA

.text.brightnessRangeGet
                0x9d014038        0x8
 .text.brightnessRangeGet
                0x9d014038        0x8 build/default/production/_ext/347121368/drv_gfx_ssd1926.o

.text.brightnessSet
                0x9d014040        0x8
 .text.brightnessSet
                0x9d014040        0x8 build/default/production/_ext/347121368/drv_gfx_ssd1926.o

.text.vsyncSet  0x9d014048        0x8
 .text.vsyncSet
                0x9d014048        0x8 build/default/production/_ext/347121368/drv_gfx_ssd1926.o

.text.vsyncCallbackSet
                0x9d014050        0x8
 .text.vsyncCallbackSet
                0x9d014050        0x8 build/default/production/_ext/347121368/drv_gfx_ssd1926.o

.text.hsyncCallbackSet
                0x9d014058        0x8
 .text.hsyncCallbackSet
                0x9d014058        0x8 build/default/production/_ext/347121368/drv_gfx_ssd1926.o

.text.layerActiveSet
                0x9d014060        0x8
 .text.layerActiveSet
                0x9d014060        0x8 build/default/production/_ext/347121368/drv_gfx_ssd1926.o

.text.layerEnabledSet
                0x9d014068        0x8
 .text.layerEnabledSet
                0x9d014068        0x8 build/default/production/_ext/347121368/drv_gfx_ssd1926.o

.text.layerPositionSet
                0x9d014070        0x8
 .text.layerPositionSet
                0x9d014070        0x8 build/default/production/_ext/347121368/drv_gfx_ssd1926.o

.text.layerSizeSet
                0x9d014078        0x8
 .text.layerSizeSet
                0x9d014078        0x8 build/default/production/_ext/347121368/drv_gfx_ssd1926.o

.text.layerBufferCountSet
                0x9d014080        0x8
 .text.layerBufferCountSet
                0x9d014080        0x8 build/default/production/_ext/347121368/drv_gfx_ssd1926.o

.text.layerBufferAddressSet
                0x9d014088        0x8
 .text.layerBufferAddressSet
                0x9d014088        0x8 build/default/production/_ext/347121368/drv_gfx_ssd1926.o

.text.layerBufferCoherentSet
                0x9d014090        0x8
 .text.layerBufferCoherentSet
                0x9d014090        0x8 build/default/production/_ext/347121368/drv_gfx_ssd1926.o

.text.layerBufferAllocate
                0x9d014098        0x8
 .text.layerBufferAllocate
                0x9d014098        0x8 build/default/production/_ext/347121368/drv_gfx_ssd1926.o

.text.layerBufferFree
                0x9d0140a0        0x8
 .text.layerBufferFree
                0x9d0140a0        0x8 build/default/production/_ext/347121368/drv_gfx_ssd1926.o

.text.layerVisibleSet
                0x9d0140a8        0x8
 .text.layerVisibleSet
                0x9d0140a8        0x8 build/default/production/_ext/347121368/drv_gfx_ssd1926.o

.text.layerAlphaEnableSet
                0x9d0140b0        0x8
 .text.layerAlphaEnableSet
                0x9d0140b0        0x8 build/default/production/_ext/347121368/drv_gfx_ssd1926.o

.text.pixelGet  0x9d0140b8        0x8
 .text.pixelGet
                0x9d0140b8        0x8 build/default/production/_ext/347121368/drv_gfx_ssd1926.o

.text._on_reset
                0x9d0140c0        0x8
 .text._on_reset
                0x9d0140c0        0x8 c:/program files (x86)/microchip/xc32/v2.30/bin/bin/../../lib/gcc/pic32mx/4.8.3/../../../../pic32mx/lib\libpic32.a(default-on-reset.o)
                0x9d0140c0                _on_reset

.text._on_bootstrap
                0x9d0140c8        0x8
 .text._on_bootstrap
                0x9d0140c8        0x8 c:/program files (x86)/microchip/xc32/v2.30/bin/bin/../../lib/gcc/pic32mx/4.8.3/../../../../pic32mx/lib\libpic32.a(default-on-bootstrap.o)
                0x9d0140c8                _on_bootstrap
